
-------------------------------------------------------------------------------

 Embedded CDA Version: R4.0.11

 Kernel Configuration:
 ---------------------
 Architecture     : TMS320C64x+
 Kernel           : os320c64xpR408_BPSH8C41

 DEBUG_INFO       : Yes    BUFFER_CHECK     : Yes
 STACK_CHECK      : Yes    PARAMETER_CHECK  : Yes
 DEBUG_HOOKS      : Yes    BYTE_ORDER       : Big Endian
 

-------------------------------------------------------------------------------

1. Error Messages
=================

No error detected.


2. Processes
============
Pid       Process Name                Type     Prio  Status       Owned  Queued
---       ------------                ----     ----  ------       -----  ------
00000000  p_idle                      IDLE      255  RUNNING          2  0    
00000001  ose_rlnh                    PRIO        8  WAIT RECEIVE    17  0    
00000002  ticker                      INT        30  ...              1  0    
00000003  bsptstimer                  INT        30  ...              0  0    
00000004  dp_main                     PRIO       12  WAIT RECEIVE   109  0    
00000005  ose_sysd                    PRIO        9  WAIT RECEIVE    15  0    
00000006  dp_text                     PRIO       13  WAIT RECEIVE     3  0    
00000007  eth_isr                     INT        30  ...              1  0    
00000008  eth_isr                     INT        30  ...              0  0    
00000009  rlnh_cm_rx_proc             PRIO        9  WAIT_FSEM        9  0    
0000000a  eth_isr                     INT        30  ...              0  0    
0000000b  eth_isr                     INT        30  ...              0  0    
0000000c  dp_sup                      PRIO       11  WAIT RECEIVE     0  0    
0000000d  dp_diagnostics              PRIO       13  WAIT RECEIVE     0  0    
0000000e  p_fault                     PRIO       10  WAIT RECEIVE     0  0    
0000000f  p_load_probe                PRIO       10  WAIT RECEIVE     1  0    
00000010  p_trace                     PRIO       10  WAIT RECEIVE     2  0    
00000011  p_com                       PRIO        8  WAIT RECEIVE     1  0    
00000012  p_blink                     PRIO       29  WAIT RECEIVE     1  0    
00000013  p_office                    PRIO       10  WAIT RECEIVE     1  0    
00000014  p_dmx                       PRIO       20  WAIT RECEIVE     0  0    
00000015  p_memcheck                  PRIO       30  WAIT RECEIVE     1  0    
00000016  p_debug                     PRIO       10  WAIT RECEIVE     0  0    
00000017  p_has                       PRIO       10  WAIT REC_W_T     2  0    
00000018  t_fr                        PRIO       10  WAIT RECEIVE     0  0    
00000019  drm                         PRIO        9  WAIT RECEIVE     7  0    
0000001a  dss                         PRIO       12  WAIT RECEIVE     2  0    
0000001b  dfa                         PRIO       12  WAIT RECEIVE     1  0    
0000001c  dms                         PRIO       13  WAIT RECEIVE     4  0    
0000001d  dirt                        PRIO       10  WAIT RECEIVE     2  0    
0000001e  das                         PRIO       10  WAIT RECEIVE     1  0    
0000001f  master                      PRIO       11  WAIT RECEIVE     2  0    
00000020  sgw                         PRIO       11  WAIT RECEIVE     1  0    
00000021  dtt                         PRIO       11  WAIT RECEIVE     1  0    
00000022  tcp_fwd                     PRIO       13  WAIT RECEIVE     0  0    
00000023  dus                         PRIO       13  WAIT RECEIVE     0  0    
00000040  eth0_vlan_link0/            PHANTOM  
00000041  eth0_vlan_link0/BondManager PHANTOM  
00000042  eth0_vlan_link0/DSPSelector PHANTOM  
00000043  eth0_vlan_link0/pq_office   PHANTOM  
00000044  eth0_vlan_link0/blmed_rtp   PHANTOM  
00000045  eth0_vlan_link0/dmp_main    PHANTOM  
00000046  eth0_vlan_link0/dmp_file_ac PHANTOM  
00000047  eth0_vlan_link0/VA2PRB      PHANTOM  
00000048  eth0_vlan_link0/dspproxy    PHANTOM  
00000049  dms_dms_link_0/             PHANTOM  
0000004a  dms_dms_link_0/dms          PHANTOM  


3. Signal Queues
================

===============================================================================
Process: Pid = 00000000 (p_idle)
The signal queue contains no signal buffers.


===============================================================================
Process: Pid = 00000001 (ose_rlnh)
The signal queue contains no signal buffers.


===============================================================================
Process: Pid = 00000002 (ticker)
The signal queue contains no signal buffers.


===============================================================================
Process: Pid = 00000003 (bsptstimer)
The signal queue contains no signal buffers.


===============================================================================
Process: Pid = 00000004 (dp_main)
The signal queue contains no signal buffers.


===============================================================================
Process: Pid = 00000005 (ose_sysd)
The signal queue contains no signal buffers.


===============================================================================
Process: Pid = 00000006 (dp_text)
The signal queue contains no signal buffers.


===============================================================================
Process: Pid = 00000007 (eth_isr)
The signal queue contains no signal buffers.


===============================================================================
Process: Pid = 00000008 (eth_isr)
The signal queue contains no signal buffers.


===============================================================================
Process: Pid = 00000009 (rlnh_cm_rx_proc)
The signal queue contains no signal buffers.


===============================================================================
Process: Pid = 0000000a (eth_isr)
The signal queue contains no signal buffers.


===============================================================================
Process: Pid = 0000000b (eth_isr)
The signal queue contains no signal buffers.


===============================================================================
Process: Pid = 0000000c (dp_sup)
The signal queue contains no signal buffers.


===============================================================================
Process: Pid = 0000000d (dp_diagnostics)
The signal queue contains no signal buffers.


===============================================================================
Process: Pid = 0000000e (p_fault)
The signal queue contains no signal buffers.


===============================================================================
Process: Pid = 0000000f (p_load_probe)
The signal queue contains no signal buffers.


===============================================================================
Process: Pid = 00000010 (p_trace)
The signal queue contains no signal buffers.


===============================================================================
Process: Pid = 00000011 (p_com)
The signal queue contains no signal buffers.


===============================================================================
Process: Pid = 00000012 (p_blink)
The signal queue contains no signal buffers.


===============================================================================
Process: Pid = 00000013 (p_office)
The signal queue contains no signal buffers.


===============================================================================
Process: Pid = 00000014 (p_dmx)
The signal queue contains no signal buffers.


===============================================================================
Process: Pid = 00000015 (p_memcheck)
The signal queue contains no signal buffers.


===============================================================================
Process: Pid = 00000016 (p_debug)
The signal queue contains no signal buffers.


===============================================================================
Process: Pid = 00000017 (p_has)
The signal queue contains no signal buffers.


===============================================================================
Process: Pid = 00000018 (t_fr)
The signal queue contains no signal buffers.


===============================================================================
Process: Pid = 00000019 (drm)
The signal queue contains no signal buffers.


===============================================================================
Process: Pid = 0000001a (dss)
The signal queue contains no signal buffers.


===============================================================================
Process: Pid = 0000001b (dfa)
The signal queue contains no signal buffers.


===============================================================================
Process: Pid = 0000001c (dms)
The signal queue contains no signal buffers.


===============================================================================
Process: Pid = 0000001d (dirt)
The signal queue contains no signal buffers.


===============================================================================
Process: Pid = 0000001e (das)
The signal queue contains no signal buffers.


===============================================================================
Process: Pid = 0000001f (master)
The signal queue contains no signal buffers.


===============================================================================
Process: Pid = 00000020 (sgw)
The signal queue contains no signal buffers.


===============================================================================
Process: Pid = 00000021 (dtt)
The signal queue contains no signal buffers.


===============================================================================
Process: Pid = 00000022 (tcp_fwd)
The signal queue contains no signal buffers.


===============================================================================
Process: Pid = 00000023 (dus)
The signal queue contains no signal buffers.



4. Memory Usage
===============

                        Start Addr   End Addr     Size (Hex)   Size (Dec)
                        ----------   ----------   ----------   ----------
POOL 0       Adm area : 0x00801000   0x0080105f   0x00000060           96
           Used space : 0x00801060   0x008138bf   0x00012860        75872
           Free space : 0x008138c0   0x0082b7ff   0x00017f40        98112
          Total range : 0x00801000   0x0082b7ff   0x0002a800       174080

                        Start Addr   End Addr     Size (Hex)   Size (Dec)
                        ----------   ----------   ----------   ----------
POOL 1   Unused pool.

                        Start Addr   End Addr     Size (Hex)   Size (Dec)
                        ----------   ----------   ----------   ----------
POOL 2   Unused pool.

                        Start Addr   End Addr     Size (Hex)   Size (Dec)
                        ----------   ----------   ----------   ----------
POOL 3   Unused pool.

                        Start Addr   End Addr     Size (Hex)   Size (Dec)
                        ----------   ----------   ----------   ----------
POOL 4       Adm area : 0xe1300000   0xe130005f   0x00000060           96
           Used space : 0xe1300060   0xe131c607   0x0001c5a8       116136
           Free space : 0xe131c608   0xe1b0dfff   0x007f19f8      8329720
          Total range : 0xe1300000   0xe1b0dfff   0x0080e000      8445952

                        Start Addr   End Addr     Size (Hex)   Size (Dec)
                        ----------   ----------   ----------   ----------
POOL 5       Adm area : 0xe4354000   0xe435405f   0x00000060           96
           Used space : 0xe4354060   0xe435c0af   0x00008050        32848
           Free space : 0xe435c0b0   0xe4453fff   0x000f7f50      1015632
          Total range : 0xe4354000   0xe4453fff   0x00100000      1048576

                        Start Addr   End Addr     Size (Hex)   Size (Dec)
                        ----------   ----------   ----------   ----------
POOL 6   Unused pool.

                        Start Addr   End Addr     Size (Hex)   Size (Dec)
                        ----------   ----------   ----------   ----------
POOL 7   Unused pool.


5. Signal Space Usage
=====================

POOL 0
                                                          Queue   Owned   Total
                                                          -----   -----   -----
Buffer size 24
                                 dp_main (Pid 00000004) :     0       4       4
                                   p_com (Pid 00000011) :     0       1       1
                                   p_has (Pid 00000017) :     0       2       2
                                     dms (Pid 0000001c) :     0       1       1
                                      Kernel (Freelist) :     -       -       7
                                                  Total :     0       8      15
-------------------------------------------------------------------------------
Buffer size 48
                                  p_idle (Pid 00000000) :     0       2       2
                                  ticker (Pid 00000002) :     0       1       1
                                 dp_main (Pid 00000004) :     0      85      85
                                ose_sysd (Pid 00000005) :     0       2       2
                         rlnh_cm_rx_proc (Pid 00000009) :     0       1       1
                            p_load_probe (Pid 0000000f) :     0       1       1
                                 p_blink (Pid 00000012) :     0       1       1
                              p_memcheck (Pid 00000015) :     0       1       1
                                     dss (Pid 0000001a) :     0       2       2
                                    dirt (Pid 0000001d) :     0       1       1
                                     das (Pid 0000001e) :     0       1       1
                                  master (Pid 0000001f) :     0       1       1
                                      Kernel (Freelist) :     -       -       2
                                                  Total :     0      99     101
-------------------------------------------------------------------------------
Buffer size 72
                                 dp_main (Pid 00000004) :     0       4       4
                                 eth_isr (Pid 00000007) :     0       1       1
                         rlnh_cm_rx_proc (Pid 00000009) :     0       8       8
                                                  Total :     0      13      13
-------------------------------------------------------------------------------
Buffer size 200
                                 dp_main (Pid 00000004) :     0       6       6
                                                  Total :     0       6       6
-------------------------------------------------------------------------------
Buffer size 512
                                 dp_main (Pid 00000004) :     0       1       1
                                     dms (Pid 0000001c) :     0       1       1
                                                  Total :     0       2       2
-------------------------------------------------------------------------------
Buffer size 1024
                                 dp_main (Pid 00000004) :     0       2       2
                                                  Total :     0       2       2
-------------------------------------------------------------------------------
Buffer size 2048
                                 dp_main (Pid 00000004) :     0       1       1
                                                  Total :     0       1       1
-------------------------------------------------------------------------------
Buffer size 4096
                                                  Total :     0       0       0
-------------------------------------------------------------------------------


POOL 1
    Unused pool.
POOL 2
    Unused pool.
POOL 3
    Unused pool.
POOL 4
                                                          Queue   Owned   Total
                                                          -----   -----   -----
Buffer size 128
                                ose_sysd (Pid 00000005) :     0      11      11
                                 p_trace (Pid 00000010) :     0       1       1
                                     drm (Pid 00000019) :     0       2       2
                                     dfa (Pid 0000001b) :     0       1       1
                                     dtt (Pid 00000021) :     0       1       1
                                      Kernel (Freelist) :     -       -       1
                                                  Total :     0      16      17
-------------------------------------------------------------------------------
Buffer size 512
                                     dms (Pid 0000001c) :     0       1       1
                                     sgw (Pid 00000020) :     0       1       1
                                                  Total :     0       2       2
-------------------------------------------------------------------------------
Buffer size 1152
                                                  Total :     0       0       0
-------------------------------------------------------------------------------
Buffer size 2000
                                 p_trace (Pid 00000010) :     0       1       1
                                     drm (Pid 00000019) :     0       2       2
                                    dirt (Pid 0000001d) :     0       1       1
                                  master (Pid 0000001f) :     0       1       1
                                                  Total :     0       5       5
-------------------------------------------------------------------------------
Buffer size 3072
                                p_office (Pid 00000013) :     0       1       1
                                     drm (Pid 00000019) :     0       1       1
                                                  Total :     0       2       2
-------------------------------------------------------------------------------
Buffer size 4208
                                                  Total :     0       0       0
-------------------------------------------------------------------------------
Buffer size 12000
                                     drm (Pid 00000019) :     0       1       1
                                                  Total :     0       1       1
-------------------------------------------------------------------------------
Buffer size 65000
                                     drm (Pid 00000019) :     0       1       1
                                                  Total :     0       1       1
-------------------------------------------------------------------------------


POOL 5
                                                          Queue   Owned   Total
                                                          -----   -----   -----
Buffer size 16
                                 dp_main (Pid 00000004) :     0       1       1
                                      Kernel (Freelist) :     -       -       4
                                                  Total :     0       1       5
-------------------------------------------------------------------------------
Buffer size 32
                                ose_rlnh (Pid 00000001) :     0      16      16
                                 dp_main (Pid 00000004) :     0       5       5
                                      Kernel (Freelist) :     -       -       3
                                                  Total :     0      21      24
-------------------------------------------------------------------------------
Buffer size 128
                                ose_sysd (Pid 00000005) :     0       2       2
                                     drm (Pid 00000019) :     0       0       1
                                     dms (Pid 0000001c) :     0       1       1
                                      Kernel (Freelist) :     -       -       3
                                                  Total :     0       3       7
-------------------------------------------------------------------------------
Buffer size 256
                                                  Total :     0       0       0
-------------------------------------------------------------------------------
Buffer size 512
                                                  Total :     0       0       0
-------------------------------------------------------------------------------
The number for this buffersize may not be correct.
There seems to be some buffers owned by the kernel,
but not accounted for by any process.
Buffer size 1600
                                ose_rlnh (Pid 00000001) :     0       1       1
                                 dp_text (Pid 00000006) :     0       3       3
                                      Kernel (Freelist) :     -       -       2
                                                  Total :     0       6       8
-------------------------------------------------------------------------------
Buffer size 4096
                                                  Total :     0       0       0
-------------------------------------------------------------------------------
Buffer size 12000
                                                  Total :     0       0       0
-------------------------------------------------------------------------------


POOL 6
    Unused pool.
POOL 7
    Unused pool.

6. Signal Space Analysis
========================

Free Signal Buffers
-------------------

All free signal buffers (if any) in each pool are probably correct.


Signal Queues
-------------

All signal buffers (if any) in each queue are probably correct.


Signal Space Scan
-----------------

All signal buffers (if any) in each pool are probably correct.


7. Listing of All Signals in the System
=======================================

===============================================================================
Kernel Free lists:
-----------------

     Signo   Sender     Addr    Owner Pool Req. Size Real Size
---------- -------- -------- -------- ---- --------- ---------
     16128 00000001 00000005 ffffffff    0        23        24

Hex Addr  00 01 02 03 04 05 06 07 08 09 0a 0b 0c 0d 0e 0f
--------  -- -- -- -- -- -- -- -- -- -- -- -- -- -- -- --
  8081c0  00 00 3f 00 00 00 00 00 00 00 00 01 00 00 00 42
  8081d0  64 66 61 00 00 80 81 72

-------------------------------------------------------------------------------
     Signo   Sender     Addr    Owner Pool Req. Size Real Size
---------- -------- -------- -------- ---- --------- ---------
     16128 00000001 00000005 ffffffff    0        24        24

Hex Addr  00 01 02 03 04 05 06 07 08 09 0a 0b 0c 0d 0e 0f
--------  -- -- -- -- -- -- -- -- -- -- -- -- -- -- -- --
  808458  00 00 3f 00 00 00 00 00 00 00 00 01 00 00 00 44
  808468  64 69 72 74 00 00 00 00 72

-------------------------------------------------------------------------------
     Signo   Sender     Addr    Owner Pool Req. Size Real Size
---------- -------- -------- -------- ---- --------- ---------
     16130 00000019 00000005 ffffffff    0         8        24

Hex Addr  00 01 02 03 04 05 06 07 08 09 0a 0b 0c 0d 0e 0f
--------  -- -- -- -- -- -- -- -- -- -- -- -- -- -- -- --
  80da48  00 00 3f 02 00 80 da 6c 72

-------------------------------------------------------------------------------
     Signo   Sender     Addr    Owner Pool Req. Size Real Size
---------- -------- -------- -------- ---- --------- ---------
     16130 00000019 00000005 ffffffff    0         8        24

Hex Addr  00 01 02 03 04 05 06 07 08 09 0a 0b 0c 0d 0e 0f
--------  -- -- -- -- -- -- -- -- -- -- -- -- -- -- -- --
  80ebd8  00 00 3f 02 00 80 e2 f4 72

-------------------------------------------------------------------------------
     Signo   Sender     Addr    Owner Pool Req. Size Real Size
---------- -------- -------- -------- ---- --------- ---------
     16130 00000019 00000005 ffffffff    0         8        24

Hex Addr  00 01 02 03 04 05 06 07 08 09 0a 0b 0c 0d 0e 0f
--------  -- -- -- -- -- -- -- -- -- -- -- -- -- -- -- --
  80f4e0  00 00 3f 02 00 80 eb fc 72

-------------------------------------------------------------------------------
     Signo   Sender     Addr    Owner Pool Req. Size Real Size
---------- -------- -------- -------- ---- --------- ---------
     16128 00000001 00000005 ffffffff    0        23        24

Hex Addr  00 01 02 03 04 05 06 07 08 09 0a 0b 0c 0d 0e 0f
--------  -- -- -- -- -- -- -- -- -- -- -- -- -- -- -- --
  80fde8  00 00 3f 00 00 00 00 00 00 00 00 01 00 00 00 4a
  80fdf8  64 6d 73 00 42 42 42 72

-------------------------------------------------------------------------------
     Signo   Sender     Addr    Owner Pool Req. Size Real Size
---------- -------- -------- -------- ---- --------- ---------
     16130 00000001 00000005 ffffffff    0         8        24

Hex Addr  00 01 02 03 04 05 06 07 08 09 0a 0b 0c 0d 0e 0f
--------  -- -- -- -- -- -- -- -- -- -- -- -- -- -- -- --
  8106f0  00 00 3f 02 00 81 38 9c 72

-------------------------------------------------------------------------------
     Signo   Sender     Addr    Owner Pool Req. Size Real Size
---------- -------- -------- -------- ---- --------- ---------
   8467984 00000019 00000019 ffffffff    0        28        48

Hex Addr  00 01 02 03 04 05 06 07 08 09 0a 0b 0c 0d 0e 0f
--------  -- -- -- -- -- -- -- -- -- -- -- -- -- -- -- --
  813460  00 81 36 10 00 80 7d e8 00 01 d7 36 00 00 00 00
  813470  e0 fb 47 80 e0 fb 4e 6c 00 00 00 01 72

-------------------------------------------------------------------------------
     Signo   Sender     Addr    Owner Pool Req. Size Real Size
---------- -------- -------- -------- ---- --------- ---------
   8437472 0000001b 0000001b ffffffff    0        28        48

Hex Addr  00 01 02 03 04 05 06 07 08 09 0a 0b 0c 0d 0e 0f
--------  -- -- -- -- -- -- -- -- -- -- -- -- -- -- -- --
  813610  00 80 be e0 00 80 7d e8 00 01 d8 48 00 00 00 00
  813620  e0 fb ed 76 e0 fb fb 8c 00 00 00 05 72

-------------------------------------------------------------------------------
     Signo   Sender     Addr    Owner Pool Req. Size Real Size
---------- -------- -------- -------- ---- --------- ---------
1107493890 0000000f 00000019 ffffffff    4        28       128

Hex Addr  00 01 02 03 04 05 06 07 08 09 0a 0b 0c 0d 0e 0f
--------  -- -- -- -- -- -- -- -- -- -- -- -- -- -- -- --
e131c580  42 03 04 02 00 ff 42 03 04 02 00 60 81 00 0f a2
e131c590  08 06 00 01 08 00 06 04 00 02 42 03 04

-------------------------------------------------------------------------------
     Signo   Sender     Addr    Owner Pool Req. Size Real Size
---------- -------- -------- -------- ---- --------- ---------
         0 00000009 00000009 00000019    5        86       128

Hex Addr  00 01 02 03 04 05 06 07 08 09 0a 0b 0c 0d 0e 0f
--------  -- -- -- -- -- -- -- -- -- -- -- -- -- -- -- --
e4356848  00 00 00 00 e4 35 68 68 00 80 7b 80 44 45 46 41
e4356858  55 4c 54 00 00 00 00 00 e4 35 68 48 6d 61 69 6e
e4356868  00 00 50 9a 69 a3 42 03 04 01 00 60 81 00 0f a0
e4356878  89 11 46 30 80 08 f0 02 30 1e 72 00 7f ff 00 00
e4356888  00 06 00 00 00 05 00 01 03 ed 00 10 00 00 00 00
e4356898  00 0a 00 00 0d 80 72

-------------------------------------------------------------------------------
     Signo   Sender     Addr    Owner Pool Req. Size Real Size
---------- -------- -------- -------- ---- --------- ---------
     28681 00000043 00000013 ffffffff    5        16        16

Hex Addr  00 01 02 03 04 05 06 07 08 09 0a 0b 0c 0d 0e 0f
--------  -- -- -- -- -- -- -- -- -- -- -- -- -- -- -- --
e4356998  00 00 70 09 00 2b 4a ec 56 f9 3d 53 00 05 49 19
e43569a8  72

-------------------------------------------------------------------------------
     Signo   Sender     Addr    Owner Pool Req. Size Real Size
---------- -------- -------- -------- ---- --------- ---------
     81927 00000004 00000006 ffffffff    5      1347      1600

Hex Addr  00 01 02 03 04 05 06 07 08 09 0a 0b 0c 0d 0e 0f
--------  -- -- -- -- -- -- -- -- -- -- -- -- -- -- -- --
e4359738  00 01 40 07 00 00 00 00 00 00 00 01 00 00 00 02
e4359748  00 00 00 64 00 00 00 02 00 00 00 00 00 00 00 02
e4359758  00 00 01 78 00 00 00 00 00 00 01 3a 00 00 00 04
e4359768  00 00 00 00 00 00 00 0f 00 00 00 17 73 74 61 72
e4359778  74 75 70 5f 6d 61 69 6e 2e 63 00 53 54 41 52 54
e4359788  55 50 00 48 61 72 64 20 64 65 76 69 63 65 20 72
e4359798  65 73 65 74 00 00 00 00 00 00 00 00 00 00 00 00
e43597a8  00 00 00 00 00 00 00 00 00 00 00 00 00 00 00 00
e43597b8  00 00 00 00 00 00 00 00 00 00 00 00 00 00 00 00
e43597c8  00 00 00 00 00 00 00 00 00 00 00 00 00 00 00 00
e43597d8  00 00 00 00 00 00 00 00 00 00 00 00 00 00 00 00
e43597e8  00 00 00 00 00 00 00 00 00 00 00 00 00 00 00 00
e43597f8  00 00 00 00 00 00 00 00 00 00 00 00 00 00 00 00
e4359808  00 00 00 00 00 00 00 00 00 00 00 00 00 00 00 00
e4359818  00 00 00 00 00 00 00 00 00 00 00 00 00 00 00 00
e4359828  00 00 00 00 00 00 00 00 00 00 00 00 00 00 00 00
e4359838  00 00 00 00 00 00 00 00 00 00 00 00 00 00 00 00
e4359848  00 00 00 00 00 00 00 00 2f 74 6d 70 2f 64 6d 70
e4359858  2f 64 73 70 31 36 2e 63 6f 6e 66 00 00 00 00 00
e4359868  00 00 00 00 00 00 00 00 00 00 00 00 00 00 00 00
e4359878  00 00 00 00 00 00 00 00 00 00 00 00 00 00 00 00
e4359888  00 00 00 00 00 00 00 00 00 00 00 00 00 00 00 00
e4359898  00 00 00 00 00 00 00 00 00 00 00 00 00 00 00 00
e43598a8  00 00 00 00 00 00 00 00 00 00 00 00 00 00 00 00
e43598b8  00 00 00 00 00 00 00 00 00 00 00 00 00 00 00 00
e43598c8  00 00 00 00 00 00 00 00 00 00 00 00 00 00 00 00
e43598d8  00 00 00 00 00 00 00 00 00 00 00 00 00 00 00 00
e43598e8  00 00 00 00 00 00 00 00 00 00 00 00 00 00 00 00
e43598f8  00 00 00 00 00 00 00 00 00 00 00 00 00 00 00 00
e4359908  00 00 00 00 00 00 00 00 00 00 00 00 00 00 00 00
e4359918  00 00 00 00 00 00 00 00 00 00 00 00 00 00 00 00
e4359928  00 00 00 00 00 00 00 00 00 00 00 00 00 00 00 00
e4359938  00 00 00 00 00 00 00 00 00 00 00 00 00 00 00 00
e4359948  00 00 00 00 00 00 00 00 72 00 00 00 00 00 00 00
e4359958  00 00 00 00 00 00 00 00 00 00 00 00 00 00 00 00
e4359968  00 00 00 00 00 00 00 00 00 00 00 00 00 00 00 00
e4359978  00 00 00 00 00 00 00 00 00 00 00 00 00 00 00 00
e4359988  00 00 00 00 00 00 00 00 00 00 00 00 00 00 00 00
e4359998  00 00 00 00 00 00 00 00 00 00 00 00 00 00 00 00
e43599a8  00 00 00 00 00 00 00 00 00 00 00 00 00 00 00 00
e43599b8  00 00 00 00 00 00 00 00 00 00 00 00 00 00 00 00
e43599c8  00 00 00 00 00 00 00 00 00 00 00 00 00 00 00 00
e43599d8  00 00 00 00 00 00 00 00 00 00 00 00 00 00 00 00
e43599e8  00 00 00 00 00 00 00 00 00 00 00 00 00 00 00 00
e43599f8  00 00 00 00 00 00 00 00 00 00 00 00 00 00 00 00
e4359a08  00 00 00 00 00 00 00 00 00 00 00 00 00 00 00 00
e4359a18  00 00 00 00 00 00 00 00 00 00 00 00 01 53 bd 97
e4359a28  31 90 00 00 02 80 00 01 00 00 00 00 00 00 00 00
e4359a38  00 00 00 00 00 00 00 00 00 00 00 00 00 00 00 00
e4359a48  00 00 00 00 00 00 00 00 00 00 00 00 00 00 00 00
e4359a58  72 fb 15 95 f2 5d e5 cf fd 99 8f f7 6f ff ed fe
e4359a68  aa f4 6e bb ee ff 7b 75 ef 6d bb 9b f7 b9 ee ee
e4359a78  9b 73 6c bd f5 4f b7 aa f7 be c6 d8 77 de f7 4d
e4359a88  8b ff b6 dd ed c6 64 65 27 cb fc be f5 ff fe db
e4359a98  ff a2 5d fc 4f ab fb d3 1c 37 cf 9e fd 92 f7 8f
e4359aa8  bf fd b7 1d fe fb af f7 fb fe 7e bf be fd e6 9e
e4359ab8  97 ef fc 7e ad 77 7f bf ff be f2 5d e9 f7 4b 72
e4359ac8  fe 6b fd dc df dd 87 2b 7b d3 ff 97 c5 db fd fb
e4359ad8  af 19 de d1 98 df cb f7 bd e8 73 9b f8 9d e6 97
e4359ae8  b5 7f cf 71 ef 6e e6 fb 66 3c f7 fa fb df eb 71
e4359af8  ae 2b db da 3c 6f ee c5 f4 7f f5 f9 f6 fe ca bb
e4359b08  df df cf 7e c0 dc 5b fa ff ff 87 ab 7e f5 f7 fb
e4359b18  e7 af fb 77 32 fb e6 bf fd 9a ff 9e ef bf 6c fe
e4359b28  fe b3 d7 db fd 33 cf 1b c5 57 e5 af 3f fd fe db
e4359b38  ae 3e fb f7 57 db 67 b9 9f 3e 8f 98 fe af ce aa
e4359b48  ff b9 c6 73 7f bf fb d6 bf bf ec d1 7e fd 74 ff
e4359b58  bf f6 fc 57 b7 bb e6 ae b5 df f8 7e 9b fe ed 9c
e4359b68  bf b6 b7 de e8 5f 68 77 da ff ef d8 a5 f7 70 ae
e4359b78  71 d9 f4 ff fe fa 3f c9 cf 8f ee be ee f6 f7 fd
e4359b88  3d ae 3b 9e ff 6f ff e7 ea ff f7 bf cd bf 83 bf
e4359b98  bc 38 66 77 53 fe 7d bf e6 ff df fa b7 7f fe 9b
e4359ba8  fd 3f 63 fb 36 26 58 bb cd 5c e7 bf dc f5 7f ff
e4359bb8  f2 c6 dd 74 ff ff 6d fa f6 df fe cb db ee 7d 6e
e4359bc8  be 7b ae 41 d2 f1 3f bd 9a d3 b4 bc 77 ac f7 d7
e4359bd8  e3 a6 af 60 ee b9 e3 d7 ac 7b f7 e8 3d 9f fe 9b
e4359be8  cd f9 ed 5b 6f 77 57 ee ff 7f ea 98 75 ba 7c ed
e4359bf8  8f ef ea 7e d3 19 bf bd c2 b8 7f f3 b9 6e fb b7
e4359c08  dd fb ed 9f 1b 3e 5f 7f e7 6d ad fb 77 fa e5 c7
e4359c18  ff fe e3 dd 5f d2 ed ff e7 bd f1 df 4f f6 fe fb
e4359c28  5f 93 ff be fe f7 bf 9b ef c3 fe fc 87 be 4f d7
e4359c38  fb f4 eb 7f e1 9f 1b f2 f4 9f f6 d7 c7 cf ff 96
e4359c48  a9 6a f0 8b bf fd 7d 7e 9b fd c4 96 73 3f f7 ff
e4359c58  ef bf ee a9 fd 57 bf bd 56 c6 3d df ef bb ff dd
e4359c68  ed 86 ff 6b dd ed fd 7e ef ee ff bf e6 db c9 91
e4359c78  be fb e7 72

-------------------------------------------------------------------------------
     Signo   Sender     Addr    Owner Pool Req. Size Real Size
---------- -------- -------- -------- ---- --------- ---------
         2 00000009 00000009 ffffffff    5        16        16

Hex Addr  00 01 02 03 04 05 06 07 08 09 0a 0b 0c 0d 0e 0f
--------  -- -- -- -- -- -- -- -- -- -- -- -- -- -- -- --
e4359e48  00 00 00 02 00 00 00 07 56 41 32 50 52 42 00 c9
e4359e58  72

-------------------------------------------------------------------------------
     Signo   Sender     Addr    Owner Pool Req. Size Real Size
---------- -------- -------- -------- ---- --------- ---------
         0 00000004 00000009 ffffffff    5        82       128

Hex Addr  00 01 02 03 04 05 06 07 08 09 0a 0b 0c 0d 0e 0f
--------  -- -- -- -- -- -- -- -- -- -- -- -- -- -- -- --
e4359e80  00 00 00 00 e4 35 9e a0 00 80 7b 80 00 2b 5a ec
e4359e90  08 60 00 04 00 00 04 00 e4 35 9e 80 00 28 5a b4
e4359ea0  00 00 50 9a 69 a3 42 03 04 01 00 60 81 00 0f a0
e4359eb0  89 11 46 30 80 08 f0 02 d0 24 72 00 7f ff 00 00
e4359ec0  00 06 00 00 00 06 00 01 03 ed 00 10 00 00 00 00
e4359ed0  00 0b 00

-------------------------------------------------------------------------------
     Signo   Sender     Addr    Owner Pool Req. Size Real Size
---------- -------- -------- -------- ---- --------- ---------
         0 00000019 00000009 ffffffff    5        78       128

Hex Addr  00 01 02 03 04 05 06 07 08 09 0a 0b 0c 0d 0e 0f
--------  -- -- -- -- -- -- -- -- -- -- -- -- -- -- -- --
e435a000  00 00 00 00 e4 35 a0 20 00 80 7e b0 00 84 5d f0
e435a010  00 81 36 68 00 00 00 04 e4 35 a0 00 64 6d 73 5f
e435a020  00 00 50 9a 69 a3 42 03 04 01 00 60 81 00 0f a0
e435a030  89 11 46 30 80 44 20 01 a0 19 f0 00 7f ff 00 00
e435a040  00 03 00 00 00 03 00 00 00 06 00 00 00 00 00

-------------------------------------------------------------------------------
     Signo   Sender     Addr    Owner Pool Req. Size Real Size
---------- -------- -------- -------- ---- --------- ---------
         2 00000009 00000009 ffffffff    5        20        32

Hex Addr  00 01 02 03 04 05 06 07 08 09 0a 0b 0c 0d 0e 0f
--------  -- -- -- -- -- -- -- -- -- -- -- -- -- -- -- --
e435a180  00 00 00 02 00 00 00 08 64 73 70 70 72 6f 78 79
e435a190  00 00 00 63 72

-------------------------------------------------------------------------------
     Signo   Sender     Addr    Owner Pool Req. Size Real Size
---------- -------- -------- -------- ---- --------- ---------
      1556 00000009 00000001 ffffffff    5        24        32

Hex Addr  00 01 02 03 04 05 06 07 08 09 0a 0b 0c 0d 0e 0f
--------  -- -- -- -- -- -- -- -- -- -- -- -- -- -- -- --
e435a3c0  00 00 06 14 e4 35 70 38 00 00 00 08 64 73 70 70
e435a3d0  72 6f 78 79 00 42 00 72 72

-------------------------------------------------------------------------------
     Signo   Sender     Addr    Owner Pool Req. Size Real Size
---------- -------- -------- -------- ---- --------- ---------
    786432 00000042 00000019 ffffffff    5         8        16

Hex Addr  00 01 02 03 04 05 06 07 08 09 0a 0b 0c 0d 0e 0f
--------  -- -- -- -- -- -- -- -- -- -- -- -- -- -- -- --
e435ab00  00 0c 00 00 00 00 00 60 72

-------------------------------------------------------------------------------
     Signo   Sender     Addr    Owner Pool Req. Size Real Size
---------- -------- -------- -------- ---- --------- ---------
     81927 00000004 00000006 ffffffff    5      1347      1600

Hex Addr  00 01 02 03 04 05 06 07 08 09 0a 0b 0c 0d 0e 0f
--------  -- -- -- -- -- -- -- -- -- -- -- -- -- -- -- --
e435ab38  00 01 40 07 00 00 00 00 00 00 00 00 00 00 00 03
e435ab48  00 00 00 73 00 00 00 02 00 00 00 00 00 00 00 02
e435ab58  00 00 01 80 00 00 00 00 00 00 01 3a 00 00 00 04
e435ab68  00 00 00 00 00 00 00 0f 00 00 00 17 73 74 61 72
e435ab78  74 75 70 5f 6d 61 69 6e 2e 63 00 53 54 41 52 54
e435ab88  55 50 00 43 68 69 70 20 72 65 76 69 73 69 6f 6e
e435ab98  3a 20 31 2e 32 20 28 6d 61 6a 6f 72 2f 6d 69 6e
e435aba8  6f 72 29 00 00 00 00 00 00 00 00 00 00 00 00 00
e435abb8  00 00 00 00 00 00 00 00 00 00 00 00 00 00 00 00
e435abc8  00 00 00 00 00 00 00 00 00 00 00 00 00 00 00 00
e435abd8  00 00 00 00 00 00 00 00 00 00 00 00 00 00 00 00
e435abe8  00 00 00 00 00 00 00 00 00 00 00 00 00 00 00 00
e435abf8  00 00 00 00 00 00 00 00 00 00 00 00 00 00 00 00
e435ac08  00 00 00 00 00 00 00 00 00 00 00 00 00 00 00 00
e435ac18  72 d6 bc e7 fe ef f7 b8 ed d5 ff bd ef be 76 fd
e435ac28  b4 66 f6 ec a9 77 8d 2d e4 35 bf a0 00 00 00 10
e435ac38  05 00 7b 3b b7 fb bf f6 fd 26 a3 bb ff ff ff ff
e435ac48  00 00 00 0c 00 00 00 0c 00 00 00 02 00 00 00 09
e435ac58  64 70 5f 73 75 70 00 cd 72 5a fe 9c f3 db df ba
e435ac68  e4 35 97 18 00 00 02 04 05 05 f6 fc ff ff f4 1d
e435ac78  da df 2e 6f ff ff ff ff 00 00 00 09 00 00 00 1f
e435ac88  00 00 00 00 e4 35 ac a8 00 81 73 f0 00 00 00 09
e435ac98  00 00 00 84 00 00 00 00 e4 35 ac 88 00 00 00 08
e435aca8  42 03 03 01 00 60 42 03 04 01 00 60 81 00 0f a0
e435acb8  89 11 46 00 81 d2 30 5b d6 e5 f0 00 31 28 00 00
e435acc8  00 00 00 00 00 00 00 00 00 00 00 00 00 00 00 00
e435acd8  00 00 00 00 00 00 00 00 00 00 00 00 00 00 00 00
e435ace8  00 00 00 00 00 00 00 00 00 00 00 00 00 00 00 00
e435acf8  00 00 00 00 00 00 00 00 00 00 00 00 00 00 00 00
e435ad08  00 00 00 00 00 00 00 00 00 00 00 00 00 00 00 00
e435ad18  00 00 00 00 00 00 00 00 00 00 00 00 00 00 00 00
e435ad28  00 00 00 00 00 00 00 00 00 00 00 00 00 00 00 00
e435ad38  00 00 00 00 00 00 00 00 00 00 00 00 00 00 00 00
e435ad48  00 00 00 00 00 00 00 00 00 00 00 00 00 00 00 00
e435ad58  00 00 00 00 00 00 00 00 00 00 00 00 00 00 00 00
e435ad68  00 00 00 00 00 00 00 00 00 00 00 00 00 00 00 00
e435ad78  00 00 00 00 00 00 00 00 00 00 00 00 00 00 00 00
e435ad88  00 00 00 00 00 00 00 00 00 00 00 00 00 00 00 00
e435ad98  00 00 00 00 00 00 00 00 00 00 00 00 00 00 00 00
e435ada8  00 00 00 00 00 00 00 00 00 00 00 00 00 00 00 00
e435adb8  00 00 00 00 00 00 00 00 00 00 00 00 00 00 00 00
e435adc8  00 00 00 00 00 00 00 00 00 00 00 00 00 00 00 00
e435add8  00 00 00 00 00 00 00 00 00 00 00 00 00 00 00 00
e435ade8  00 00 00 00 00 00 00 00 00 00 00 00 00 00 00 00
e435adf8  00 00 00 00 00 00 00 00 00 00 00 00 00 00 00 00
e435ae08  00 00 00 00 00 00 00 00 00 00 00 00 00 00 00 00
e435ae18  00 00 00 00 00 00 00 00 00 00 00 00 00 00 00 00
e435ae28  00 00 00 00 00 00 00 00 00 00 00 00 00 00 00 00
e435ae38  00 00 00 72 00 00 00 00 00 00 00 00 00 00 00 00
e435ae48  00 00 00 00 00 00 00 00 00 00 00 00 00 00 00 00
e435ae58  00 00 00 00 00 00 00 00 00 00 00 00 00 00 00 00
e435ae68  00 00 00 00 00 00 00 00 00 00 00 00 00 00 00 00
e435ae78  00 00 00 00 00 00 00 00 01 00 00 00 00 00 00 00
e435ae88  ff ff ff ff 72 00 00 00 00 01 00 01 00 00 00 00
e435ae98  00 00 00 00 00 00 00 00 00 00 00 00 00 00 00 00
e435aea8  00 00 00 00 00 00 00 00 00 00 00 00 00 00 00 00
e435aeb8  00 00 00 00 00 00 00 00 00 00 00 00 00 00 00 00
e435aec8  00 00 00 00 00 00 00 00 00 00 00 00 00 00 00 00
e435aed8  00 00 00 00 00 00 00 00 00 00 00 00 00 00 00 00
e435aee8  00 00 00 00 00 00 00 00 00 00 00 00 00 00 00 00
e435aef8  00 00 00 00 00 00 00 00 00 00 00 00 00 00 00 00
e435af08  00 00 00 00 00 00 00 00 00 00 00 00 00 00 00 00
e435af18  00 00 00 00 00 00 00 00 00 00 00 00 00 00 00 00
e435af28  00 00 00 00 00 00 00 00 00 00 00 00 00 00 00 00
e435af38  00 00 00 00 00 00 00 00 e4 35 dc d8 00 00 02 04
e435af48  05 05 00 00 00 00 00 00 00 00 00 00 ff ff ff ff
e435af58  00 00 00 09 00 00 00 1f 00 00 00 00 e4 35 af 80
e435af68  00 81 43 c8 00 00 00 09 00 00 00 84 00 00 00 00
e435af78  e4 35 af 60 00 00 00 08 42 03 03 01 00 60 42 03
e435af88  04 01 00 60 81 00 0f a0 89 11 46 00 81 d2 30 4b
e435af98  a8 68 f0 00 03 af 00 00 00 00 00 00 00 00 00 00
e435afa8  00 00 00 00 00 00 00 00 00 00 00 00 00 00 00 00
e435afb8  00 00 00 00 00 00 00 00 00 00 00 00 00 00 00 00
e435afc8  00 00 00 00 00 00 00 00 00 00 00 00 00 00 00 00
e435afd8  00 00 00 00 00 00 00 00 00 00 00 00 00 00 00 00
e435afe8  00 00 00 00 00 00 00 00 00 00 00 00 00 00 00 00
e435aff8  00 00 00 00 00 00 00 00 00 00 00 00 00 00 00 00
e435b008  00 00 00 00 00 00 00 00 00 00 00 00 00 00 00 00
e435b018  00 00 00 00 00 00 00 00 00 00 00 00 00 00 00 00
e435b028  00 00 00 00 00 00 00 00 00 00 00 00 00 00 00 00
e435b038  00 00 00 00 00 00 00 00 00 00 00 00 00 00 00 00
e435b048  00 00 00 00 00 00 00 00 00 00 00 00 00 00 00 00
e435b058  00 00 00 00 00 00 00 00 00 00 00 00 00 00 00 00
e435b068  00 00 00 00 00 00 00 00 00 00 00 00 00 00 00 00
e435b078  00 00 00 72

-------------------------------------------------------------------------------
     Signo   Sender     Addr    Owner Pool Req. Size Real Size
---------- -------- -------- -------- ---- --------- ---------
         0 0000001b 00000009 ffffffff    5        78       128

Hex Addr  00 01 02 03 04 05 06 07 08 09 0a 0b 0c 0d 0e 0f
--------  -- -- -- -- -- -- -- -- -- -- -- -- -- -- -- --
e435be70  00 00 00 00 e4 35 be 90 00 80 7e 40 00 00 00 00
e435be80  05 f1 06 5c 00 00 04 00 e4 35 be 70 00 10 7a ec
e435be90  00 00 50 9a 69 a3 42 03 04 01 00 60 81 00 0f a0
e435bea0  89 11 46 30 80 08 f0 1c 80 8e 72 00 7f ff 00 00
e435beb0  00 02 00 00 00 06 00 0c 00 06 00 00 00 60 72

-------------------------------------------------------------------------------
     Signo   Sender     Addr    Owner Pool Req. Size Real Size
---------- -------- -------- -------- ---- --------- ---------
         1 00000001 00000001 ffffffff    5        16        16

Hex Addr  00 01 02 03 04 05 06 07 08 09 0a 0b 0c 0d 0e 0f
--------  -- -- -- -- -- -- -- -- -- -- -- -- -- -- -- --
e435bfc0  00 00 00 01 00 00 00 05 56 41 32 50 52 42 00 00
e435bfd0  72

-------------------------------------------------------------------------------
     Signo   Sender     Addr    Owner Pool Req. Size Real Size
---------- -------- -------- -------- ---- --------- ---------
1702127664 00000001 00000001 ffffffff    5        25        32

Hex Addr  00 01 02 03 04 05 06 07 08 09 0a 0b 0c 0d 0e 0f
--------  -- -- -- -- -- -- -- -- -- -- -- -- -- -- -- --
e435c040  65 74 68 30 5f 76 6c 61 6e 5f 6c 69 6e 6b 30 2f
e435c050  64 73 70 70 72 6f 78 79 00 72

-------------------------------------------------------------------------------

Summary
-------

Number of signals in the free lists: 23

===============================================================================
Process: Pid = 00000000, p_idle
Owned Signals
-------------

     Signo   Sender     Addr    Owner Pool Req. Size Real Size
---------- -------- -------- -------- ---- --------- ---------
         0 00000000 00000000 00000000    0        28        48

Hex Addr  00 01 02 03 04 05 06 07 08 09 0a 0b 0c 0d 0e 0f
--------  -- -- -- -- -- -- -- -- -- -- -- -- -- -- -- --
  8018f8  00 00 00 00 00 00 00 00 00 00 00 00 00 00 00 00
  801908  00 00 00 00 00 00 00 00 00 00 00 00 72

-------------------------------------------------------------------------------
     Signo   Sender     Addr    Owner Pool Req. Size Real Size
---------- -------- -------- -------- ---- --------- ---------
  40108032 00000000 00000000 00000000    0        48        48

Hex Addr  00 01 02 03 04 05 06 07 08 09 0a 0b 0c 0d 0e 0f
--------  -- -- -- -- -- -- -- -- -- -- -- -- -- -- -- --
  802bc0  02 64 00 00 00 00 00 01 01 00 00 00 00 00 00 00
  802bd0  1e db 05 7a 00 00 00 0c af e5 0e b3 01 28 a1 80
  802be0  c1 ff bc 85 00 00 25 f7 00 84 68 bc 00 80 2e a8
  802bf0  72

-------------------------------------------------------------------------------

Signals in Signal Queues
------------------------

The process does not have any signals in its queue.

Summary
-------

Number of signal buffers: Owned = 2, Queue = 0, Total = 2

===============================================================================
Process: Pid = 00000001, ose_rlnh
Owned Signals
-------------

     Signo   Sender     Addr    Owner Pool Req. Size Real Size
---------- -------- -------- -------- ---- --------- ---------
         0 00000001 00000001 00000001    5      1152      1600

Hex Addr  00 01 02 03 04 05 06 07 08 09 0a 0b 0c 0d 0e 0f
--------  -- -- -- -- -- -- -- -- -- -- -- -- -- -- -- --
e4357038  00 00 00 00 00 84 5d f0 00 80 5f a0 00 00 00 00
e4357048  00 00 00 00 00 00 00 00 e4 35 70 8c e4 35 72 90
e4357058  e4 35 74 94 e4 35 74 a8 00 00 00 0f 00 00 00 80
e4357068  00 00 00 81 00 00 00 02 00 00 00 00 00 00 00 00
e4357078  00 00 00 00 00 00 00 00 00 00 00 00 00 00 00 40
e4357088  00 00 00 01 ff ff ff ff 00 00 00 04 00 00 00 0f
e4357098  00 00 00 13 00 00 00 17 00 00 00 19 00 00 00 1b
e43570a8  00 00 00 1d ff ff ff ff ff ff ff ff ff ff ff ff
e43570b8  ff ff ff ff ff ff ff ff ff ff ff ff ff ff ff ff
e43570c8  ff ff ff ff ff ff ff ff ff ff ff ff ff ff ff ff
e43570d8  ff ff ff ff ff ff ff ff ff ff ff ff ff ff ff ff
e43570e8  ff ff ff ff ff ff ff ff ff ff ff ff ff ff ff ff
e43570f8  ff ff ff ff ff ff ff ff ff ff ff ff ff ff ff ff
e4357108  ff ff ff ff ff ff ff ff ff ff ff ff ff ff ff ff
e4357118  ff ff ff ff ff ff ff ff ff ff ff ff ff ff ff ff
e4357128  ff ff ff ff ff ff ff ff ff ff ff ff ff ff ff ff
e4357138  ff ff ff ff ff ff ff ff ff ff ff ff ff ff ff ff
e4357148  ff ff ff ff ff ff ff ff ff ff ff ff ff ff ff ff
e4357158  ff ff ff ff ff ff ff ff ff ff ff ff ff ff ff ff
e4357168  ff ff ff ff ff ff ff ff ff ff ff ff ff ff ff ff
e4357178  ff ff ff ff ff ff ff ff ff ff ff ff ff ff ff ff
e4357188  ff ff ff ff ff ff ff ff ff ff ff ff ff ff ff ff
e4357198  ff ff ff ff ff ff ff ff ff ff ff ff ff ff ff ff
e43571a8  ff ff ff ff ff ff ff ff ff ff ff ff ff ff ff ff
e43571b8  ff ff ff ff ff ff ff ff ff ff ff ff ff ff ff ff
e43571c8  ff ff ff ff ff ff ff ff ff ff ff ff ff ff ff ff
e43571d8  ff ff ff ff ff ff ff ff ff ff ff ff ff ff ff ff
e43571e8  ff ff ff ff ff ff ff ff ff ff ff ff ff ff ff ff
e43571f8  ff ff ff ff ff ff ff ff ff ff ff ff ff ff ff ff
e4357208  ff ff ff ff ff ff ff ff ff ff ff ff ff ff ff ff
e4357218  ff ff ff ff ff ff ff ff ff ff ff ff ff ff ff ff
e4357228  ff ff ff ff ff ff ff ff ff ff ff ff ff ff ff ff
e4357238  ff ff ff ff ff ff ff ff ff ff ff ff ff ff ff ff
e4357248  ff ff ff ff ff ff ff ff ff ff ff ff ff ff ff ff
e4357258  ff ff ff ff ff ff ff ff ff ff ff ff ff ff ff ff
e4357268  ff ff ff ff ff ff ff ff ff ff ff ff ff ff ff ff
e4357278  ff ff ff ff ff ff ff ff ff ff ff ff ff ff ff ff
e4357288  ff ff ff ff ff ff ff ff ff ff ff ff 00 00 00 41
e4357298  00 00 00 42 00 00 00 43 00 00 00 44 00 00 00 45
e43572a8  00 00 00 46 00 00 00 47 00 00 00 48 ff ff ff ff
e43572b8  ff ff ff ff ff ff ff ff ff ff ff ff ff ff ff ff
e43572c8  ff ff ff ff ff ff ff ff ff ff ff ff ff ff ff ff
e43572d8  ff ff ff ff ff ff ff ff ff ff ff ff ff ff ff ff
e43572e8  ff ff ff ff ff ff ff ff ff ff ff ff ff ff ff ff
e43572f8  ff ff ff ff ff ff ff ff ff ff ff ff ff ff ff ff
e4357308  ff ff ff ff ff ff ff ff ff ff ff ff ff ff ff ff
e4357318  ff ff ff ff ff ff ff ff ff ff ff ff ff ff ff ff
e4357328  ff ff ff ff ff ff ff ff ff ff ff ff ff ff ff ff
e4357338  ff ff ff ff ff ff ff ff ff ff ff ff ff ff ff ff
e4357348  ff ff ff ff ff ff ff ff ff ff ff ff ff ff ff ff
e4357358  ff ff ff ff ff ff ff ff ff ff ff ff ff ff ff ff
e4357368  ff ff ff ff ff ff ff ff ff ff ff ff ff ff ff ff
e4357378  ff ff ff ff ff ff ff ff ff ff ff ff ff ff ff ff
e4357388  ff ff ff ff ff ff ff ff ff ff ff ff ff ff ff ff
e4357398  ff ff ff ff ff ff ff ff ff ff ff ff ff ff ff ff
e43573a8  ff ff ff ff ff ff ff ff ff ff ff ff ff ff ff ff
e43573b8  ff ff ff ff ff ff ff ff ff ff ff ff ff ff ff ff
e43573c8  ff ff ff ff ff ff ff ff ff ff ff ff ff ff ff ff
e43573d8  ff ff ff ff ff ff ff ff ff ff ff ff ff ff ff ff
e43573e8  ff ff ff ff ff ff ff ff ff ff ff ff ff ff ff ff
e43573f8  ff ff ff ff ff ff ff ff ff ff ff ff ff ff ff ff
e4357408  ff ff ff ff ff ff ff ff ff ff ff ff ff ff ff ff
e4357418  ff ff ff ff ff ff ff ff ff ff ff ff ff ff ff ff
e4357428  ff ff ff ff ff ff ff ff ff ff ff ff ff ff ff ff
e4357438  ff ff ff ff ff ff ff ff ff ff ff ff ff ff ff ff
e4357448  ff ff ff ff ff ff ff ff ff ff ff ff ff ff ff ff
e4357458  ff ff ff ff ff ff ff ff ff ff ff ff ff ff ff ff
e4357468  ff ff ff ff ff ff ff ff ff ff ff ff ff ff ff ff
e4357478  ff ff ff ff ff ff ff ff ff ff ff ff ff ff ff ff
e4357488  ff ff ff ff ff ff ff ff ff ff ff ff ff ff ff 00
e4357498  ff ff ff ff ff ff ff ff ff ff ff ff 00 00 00 01
e43574a8  65 74 68 30 5f 76 6c 61 6e 5f 6c 69 6e 6b 30 00
e43574b8  72

-------------------------------------------------------------------------------
     Signo   Sender     Addr    Owner Pool Req. Size Real Size
---------- -------- -------- -------- ---- --------- ---------
         0 00000001 00000001 00000001    5        32        32

Hex Addr  00 01 02 03 04 05 06 07 08 09 0a 0b 0c 0d 0e 0f
--------  -- -- -- -- -- -- -- -- -- -- -- -- -- -- -- --
e4359f28  00 00 00 00 00 00 00 00 e4 35 9f 34 00 01 00 00
e4359f38  00 00 00 00 00 00 00 00 00 00 00 00 00 00 00 00
e4359f48  72

-------------------------------------------------------------------------------
     Signo   Sender     Addr    Owner Pool Req. Size Real Size
---------- -------- -------- -------- ---- --------- ---------
         1 00000001 00000001 00000001    5        24        32

Hex Addr  00 01 02 03 04 05 06 07 08 09 0a 0b 0c 0d 0e 0f
--------  -- -- -- -- -- -- -- -- -- -- -- -- -- -- -- --
e4359f70  00 00 00 01 00 00 00 00 00 00 00 00 e4 35 70 38
e4359f80  00 00 00 00 00 00 00 00 72

-------------------------------------------------------------------------------
     Signo   Sender     Addr    Owner Pool Req. Size Real Size
---------- -------- -------- -------- ---- --------- ---------
         0 00000001 00000001 00000001    5        32        32

Hex Addr  00 01 02 03 04 05 06 07 08 09 0a 0b 0c 0d 0e 0f
--------  -- -- -- -- -- -- -- -- -- -- -- -- -- -- -- --
e4359fb8  00 00 00 00 00 00 00 00 e4 35 9f c4 00 05 00 00
e4359fc8  00 00 00 00 00 00 00 00 00 00 00 00 00 00 00 00
e4359fd8  72

-------------------------------------------------------------------------------
     Signo   Sender     Addr    Owner Pool Req. Size Real Size
---------- -------- -------- -------- ---- --------- ---------
         0 00000001 00000001 00000001    5        32        32

Hex Addr  00 01 02 03 04 05 06 07 08 09 0a 0b 0c 0d 0e 0f
--------  -- -- -- -- -- -- -- -- -- -- -- -- -- -- -- --
e435a0a8  00 00 00 00 00 00 00 00 e4 35 a0 b4 00 06 00 00
e435a0b8  00 00 00 00 00 00 00 00 00 00 00 00 00 00 00 00
e435a0c8  72

-------------------------------------------------------------------------------
     Signo   Sender     Addr    Owner Pool Req. Size Real Size
---------- -------- -------- -------- ---- --------- ---------
         0 00000001 00000001 00000001    5        32        32

Hex Addr  00 01 02 03 04 05 06 07 08 09 0a 0b 0c 0d 0e 0f
--------  -- -- -- -- -- -- -- -- -- -- -- -- -- -- -- --
e435a0f0  00 00 00 00 00 00 00 00 e4 35 a0 fc 00 07 00 00
e435a100  00 00 00 00 00 00 00 00 00 00 00 00 00 00 00 00
e435a110  72

-------------------------------------------------------------------------------
     Signo   Sender     Addr    Owner Pool Req. Size Real Size
---------- -------- -------- -------- ---- --------- ---------
         1 00000001 00000001 00000001    5        24        32

Hex Addr  00 01 02 03 04 05 06 07 08 09 0a 0b 0c 0d 0e 0f
--------  -- -- -- -- -- -- -- -- -- -- -- -- -- -- -- --
e435a138  00 00 00 01 00 00 00 00 00 00 00 00 e4 35 70 38
e435a148  00 00 00 01 00 00 00 00 72

-------------------------------------------------------------------------------
     Signo   Sender     Addr    Owner Pool Req. Size Real Size
---------- -------- -------- -------- ---- --------- ---------
         1 00000001 00000001 00000001    5        24        32

Hex Addr  00 01 02 03 04 05 06 07 08 09 0a 0b 0c 0d 0e 0f
--------  -- -- -- -- -- -- -- -- -- -- -- -- -- -- -- --
e435a1c8  00 00 00 01 00 00 00 00 00 00 00 00 e4 35 70 38
e435a1d8  00 00 00 02 00 00 00 00 72

-------------------------------------------------------------------------------
     Signo   Sender     Addr    Owner Pool Req. Size Real Size
---------- -------- -------- -------- ---- --------- ---------
         0 00000001 00000001 00000001    5        32        32

Hex Addr  00 01 02 03 04 05 06 07 08 09 0a 0b 0c 0d 0e 0f
--------  -- -- -- -- -- -- -- -- -- -- -- -- -- -- -- --
e435a210  00 00 00 00 00 00 00 00 e4 35 a2 1c 00 03 00 00
e435a220  00 00 00 00 00 00 00 00 00 00 00 00 00 00 00 00
e435a230  72

-------------------------------------------------------------------------------
     Signo   Sender     Addr    Owner Pool Req. Size Real Size
---------- -------- -------- -------- ---- --------- ---------
         0 00000001 00000001 00000001    5        32        32

Hex Addr  00 01 02 03 04 05 06 07 08 09 0a 0b 0c 0d 0e 0f
--------  -- -- -- -- -- -- -- -- -- -- -- -- -- -- -- --
e435a258  00 00 00 00 00 00 00 00 e4 35 a2 64 00 04 00 00
e435a268  00 00 00 00 00 00 00 00 00 00 00 00 00 00 00 00
e435a278  72

-------------------------------------------------------------------------------
     Signo   Sender     Addr    Owner Pool Req. Size Real Size
---------- -------- -------- -------- ---- --------- ---------
         1 00000001 00000001 00000001    5        24        32

Hex Addr  00 01 02 03 04 05 06 07 08 09 0a 0b 0c 0d 0e 0f
--------  -- -- -- -- -- -- -- -- -- -- -- -- -- -- -- --
e435a2e8  00 00 00 01 00 00 00 00 00 00 00 00 e4 35 70 38
e435a2f8  00 00 00 03 00 00 00 00 72

-------------------------------------------------------------------------------
     Signo   Sender     Addr    Owner Pool Req. Size Real Size
---------- -------- -------- -------- ---- --------- ---------
         0 00000001 00000001 00000001    5        32        32

Hex Addr  00 01 02 03 04 05 06 07 08 09 0a 0b 0c 0d 0e 0f
--------  -- -- -- -- -- -- -- -- -- -- -- -- -- -- -- --
e435a330  00 00 00 00 00 00 00 00 e4 35 a3 3c 00 02 00 00
e435a340  00 00 00 00 00 00 00 00 00 00 00 00 00 00 00 00
e435a350  72

-------------------------------------------------------------------------------
     Signo   Sender     Addr    Owner Pool Req. Size Real Size
---------- -------- -------- -------- ---- --------- ---------
         1 00000001 00000001 00000001    5        24        32

Hex Addr  00 01 02 03 04 05 06 07 08 09 0a 0b 0c 0d 0e 0f
--------  -- -- -- -- -- -- -- -- -- -- -- -- -- -- -- --
e435a378  00 00 00 01 00 00 00 00 00 00 00 00 e4 35 70 38
e435a388  00 00 00 04 00 00 00 00 72

-------------------------------------------------------------------------------
     Signo   Sender     Addr    Owner Pool Req. Size Real Size
---------- -------- -------- -------- ---- --------- ---------
         1 00000001 00000001 00000001    5        24        32

Hex Addr  00 01 02 03 04 05 06 07 08 09 0a 0b 0c 0d 0e 0f
--------  -- -- -- -- -- -- -- -- -- -- -- -- -- -- -- --
e435a408  00 00 00 01 00 00 00 00 00 00 00 00 e4 35 70 38
e435a418  00 00 00 05 00 00 00 00 72

-------------------------------------------------------------------------------
     Signo   Sender     Addr    Owner Pool Req. Size Real Size
---------- -------- -------- -------- ---- --------- ---------
         1 00000001 00000001 00000001    5        24        32

Hex Addr  00 01 02 03 04 05 06 07 08 09 0a 0b 0c 0d 0e 0f
--------  -- -- -- -- -- -- -- -- -- -- -- -- -- -- -- --
e435a450  00 00 00 01 00 00 00 00 00 00 00 00 e4 35 70 38
e435a460  00 00 00 06 00 00 00 00 72

-------------------------------------------------------------------------------
     Signo   Sender     Addr    Owner Pool Req. Size Real Size
---------- -------- -------- -------- ---- --------- ---------
         1 00000001 00000001 00000001    5        24        32

Hex Addr  00 01 02 03 04 05 06 07 08 09 0a 0b 0c 0d 0e 0f
--------  -- -- -- -- -- -- -- -- -- -- -- -- -- -- -- --
e435bff8  00 00 00 01 00 00 00 00 00 00 00 00 e4 35 70 38
e435c008  00 00 00 07 00 00 00 00 72

-------------------------------------------------------------------------------
     Signo   Sender     Addr    Owner Pool Req. Size Real Size
---------- -------- -------- -------- ---- --------- ---------
         1 00000001 00000001 00000001    5        24        32

Hex Addr  00 01 02 03 04 05 06 07 08 09 0a 0b 0c 0d 0e 0f
--------  -- -- -- -- -- -- -- -- -- -- -- -- -- -- -- --
e435c088  00 00 00 01 00 00 00 00 00 00 00 00 e4 35 70 38
e435c098  00 00 00 08 00 00 00 00 72

-------------------------------------------------------------------------------

Signals in Signal Queues
------------------------

The process does not have any signals in its queue.

Summary
-------

Number of signal buffers: Owned = 17, Queue = 0, Total = 17

===============================================================================
Process: Pid = 00000002, ticker
Owned Signals
-------------

     Signo   Sender     Addr    Owner Pool Req. Size Real Size
---------- -------- -------- -------- ---- --------- ---------
   8391736 00000002 00000002 00000002    0        44        48

Hex Addr  00 01 02 03 04 05 06 07 08 09 0a 0b 0c 0d 0e 0f
--------  -- -- -- -- -- -- -- -- -- -- -- -- -- -- -- --
  807bf0  00 80 0c 38 00 00 00 00 00 80 82 00 e4 35 c3 d0
  807c00  c8 bf 0a 33 c0 00 00 00 00 00 00 3e 00 00 00 00
  807c10  00 00 00 00 00 00 00 3e 00 00 00 01 72

-------------------------------------------------------------------------------

Signals in Signal Queues
------------------------

The process does not have any signals in its queue.

Summary
-------

Number of signal buffers: Owned = 1, Queue = 0, Total = 1

===============================================================================
Process: Pid = 00000003, bsptstimer
Owned Signals
-------------

The process does not own any signals.

Signals in Signal Queues
------------------------

The process does not have any signals in its queue.

Summary
-------

Number of signal buffers: Owned = 0, Queue = 0, Total = 0

===============================================================================
Process: Pid = 00000004, dp_main
Owned Signals
-------------

     Signo   Sender     Addr    Owner Pool Req. Size Real Size
---------- -------- -------- -------- ---- --------- ---------
   8660304 00000004 00000004 00000004    0        24        24

Hex Addr  00 01 02 03 04 05 06 07 08 09 0a 0b 0c 0d 0e 0f
--------  -- -- -- -- -- -- -- -- -- -- -- -- -- -- -- --
  802b80  00 84 25 50 00 84 25 57 00 84 25 5e 00 84 25 65
  802b90  00 84 25 6c 00 84 25 73 72

-------------------------------------------------------------------------------
     Signo   Sender     Addr    Owner Pool Req. Size Real Size
---------- -------- -------- -------- ---- --------- ---------
   8660346 00000004 00000004 00000004    0        24        24

Hex Addr  00 01 02 03 04 05 06 07 08 09 0a 0b 0c 0d 0e 0f
--------  -- -- -- -- -- -- -- -- -- -- -- -- -- -- -- --
  802cb8  00 84 25 7a 00 84 25 81 00 84 25 88 00 84 25 8f
  802cc8  00 84 25 96 00 84 25 9d 72

-------------------------------------------------------------------------------
     Signo   Sender     Addr    Owner Pool Req. Size Real Size
---------- -------- -------- -------- ---- --------- ---------
   8419616 00000004 00000004 00000004    0        68        72

Hex Addr  00 01 02 03 04 05 06 07 08 09 0a 0b 0c 0d 0e 0f
--------  -- -- -- -- -- -- -- -- -- -- -- -- -- -- -- --
  802e38  00 80 79 20 00 80 79 20 00 00 03 e7 fc 69 e1 b4
  802e48  4b 5e 29 e5 15 a5 0d a9 ee 84 2d cc 00 20 cf 80
  802e58  00 20 cf c0 00 84 66 58 dd ef ba 7c 00 00 00 02
  802e68  00 00 00 01 00 00 00 00 00 00 03 e8 00 00 05 38
  802e78  00 01 07 5e 72

-------------------------------------------------------------------------------
     Signo   Sender     Addr    Owner Pool Req. Size Real Size
---------- -------- -------- -------- ---- --------- ---------
   8467464 00000004 00000004 00000004    0        68        72

Hex Addr  00 01 02 03 04 05 06 07 08 09 0a 0b 0c 0d 0e 0f
--------  -- -- -- -- -- -- -- -- -- -- -- -- -- -- -- --
  802ea8  00 81 34 08 00 80 be e0 00 00 0a 6d e6 34 36 9d
  802eb8  c5 0a d0 28 27 16 05 3e 00 00 00 05 00 20 d3 a0
  802ec8  00 20 d3 e0 00 80 2b c0 ae 73 bb d9 00 00 00 0a
  802ed8  00 00 00 06 00 00 00 00 00 00 0a 6e 00 00 0a 6e
  802ee8  00 01 48 49 72

-------------------------------------------------------------------------------
     Signo   Sender     Addr    Owner Pool Req. Size Real Size
---------- -------- -------- -------- ---- --------- ---------
    131073 00000004 00000004 00000004    0       620      1024

Hex Addr  00 01 02 03 04 05 06 07 08 09 0a 0b 0c 0d 0e 0f
--------  -- -- -- -- -- -- -- -- -- -- -- -- -- -- -- --
  802f18  00 02 00 01 00 00 00 00 00 00 00 04 00 00 00 02
  802f28  00 20 cf 00 00 00 00 1e 00 00 00 00 00 00 00 05
  802f38  00 20 ce c0 00 00 00 1e 00 00 00 00 00 00 00 06
  802f48  00 00 00 00 00 00 00 00 00 00 00 00 00 00 00 00
  802f58  00 00 00 00 00 00 00 00 00 00 00 00 00 00 00 00
  802f68  00 84 31 14 00 80 33 40 00 80 45 80 00 00 03 00
  802f78  00 00 00 02 00 00 00 30 00 00 00 30 e4 35 c3 d0
  802f88  00 80 44 50 e4 35 c3 d0 00 80 44 50 e4 35 be 90
  802f98  00 80 44 50 e4 35 c3 d0 00 80 44 50 e4 35 be 90
  802fa8  00 80 44 50 e4 35 c3 d0 00 80 44 50 e4 35 c3 d0
  802fb8  00 80 44 50 e4 35 c3 d0 00 80 44 50 e4 35 be 90
  802fc8  00 80 44 50 e4 35 c3 d0 00 80 44 50 e4 35 be 90
  802fd8  00 80 44 50 e4 35 c3 d0 00 80 44 50 e4 35 c3 d0
  802fe8  00 80 44 50 e4 35 c3 d0 00 80 44 50 e4 35 be 90
  802ff8  00 80 44 50 e4 35 be 90 00 80 44 50 e4 35 be 90
  803008  00 80 44 50 e4 35 c3 d0 00 80 44 50 e4 35 c3 d0
  803018  00 80 44 50 e4 35 c3 d0 00 80 44 50 e4 35 c3 d0
  803028  00 80 44 50 e4 35 c3 d0 00 80 44 50 e4 35 be 90
  803038  00 80 44 50 e4 35 be 90 00 80 44 50 e4 35 be 90
  803048  00 80 44 50 e4 35 be 90 00 80 44 50 e4 35 c3 d0
  803058  00 80 44 50 e4 35 c3 d0 00 80 44 50 e4 35 c3 d0
  803068  00 80 44 50 e4 35 c3 d0 00 80 44 50 e4 35 d5 10
  803078  00 80 44 50 e4 35 c3 d0 00 80 44 50 e4 35 c3 d0
  803088  00 80 44 50 e4 35 be 90 00 80 44 50 e4 35 be 90
  803098  00 80 44 50 e4 35 be 90 00 80 44 50 e4 35 be 90
  8030a8  00 80 44 50 e4 35 c0 f0 00 80 44 50 e4 35 d5 10
  8030b8  00 80 44 50 e4 35 c0 f0 00 80 44 50 e4 35 c3 d0
  8030c8  00 80 44 50 e4 35 c0 f0 00 80 44 50 e4 35 d5 10
  8030d8  00 80 44 50 e4 35 c0 f0 00 80 44 50 e4 35 d5 10
  8030e8  00 80 44 50 e4 35 d5 10 00 80 44 50 e4 35 c3 d0
  8030f8  00 80 44 50 e4 35 c3 d0 00 80 44 50 e4 35 c3 d0
  803108  00 80 44 50 e4 35 be 90 00 80 44 50 e4 35 be 90
  803118  00 80 44 50 e4 35 be 90 00 80 44 50 e4 35 be 90
  803128  00 80 44 50 e4 35 c3 d0 00 80 44 50 e4 35 be 90
  803138  00 80 44 50 e4 35 c3 d0 00 80 44 50 e4 35 c3 d0
  803148  00 80 44 50 e4 35 c3 d0 00 80 44 50 e4 35 be 90
  803158  00 80 44 50 e4 35 be 90 00 80 44 50 e4 35 be 90
  803168  00 80 44 50 e4 35 be 90 00 80 44 50 e4 35 c3 d0
  803178  00 80 44 50 e4 35 c3 d0 00 80 44 50 72

-------------------------------------------------------------------------------
     Signo   Sender     Addr    Owner Pool Req. Size Real Size
---------- -------- -------- -------- ---- --------- ---------
   8406160 00000004 00000004 00000004    0       172       200

Hex Addr  00 01 02 03 04 05 06 07 08 09 0a 0b 0c 0d 0e 0f
--------  -- -- -- -- -- -- -- -- -- -- -- -- -- -- -- --
  803340  00 80 44 90 00 80 2f 18 00 00 00 00 00 00 00 07
  803350  00 00 00 00 00 00 00 00 00 00 00 00 00 00 00 00
  803360  00 00 00 00 00 00 00 00 00 00 00 00 00 00 00 00
  803370  00 00 00 00 00 00 00 00 00 00 00 00 00 00 00 00
  803380  00 00 00 00 00 00 00 00 00 00 00 00 00 00 00 00
  803390  00 00 00 00 00 00 00 00 00 00 00 00 00 00 00 00
  8033a0  00 00 00 00 00 00 00 00 00 00 00 00 00 00 00 00
  8033b0  00 80 c8 60 00 00 00 00 00 00 00 00 00 00 00 00
  8033c0  00 00 00 00 00 00 00 00 00 00 00 00 00 00 00 00
  8033d0  00 00 00 00 00 00 00 00 00 00 00 00 00 00 00 00
  8033e0  00 00 00 00 00 00 00 00 00 00 00 00 72

-------------------------------------------------------------------------------
     Signo   Sender     Addr    Owner Pool Req. Size Real Size
---------- -------- -------- -------- ---- --------- ---------
    327680 00000004 00000004 00000004    0        52        72

Hex Addr  00 01 02 03 04 05 06 07 08 09 0a 0b 0c 0d 0e 0f
--------  -- -- -- -- -- -- -- -- -- -- -- -- -- -- -- --
  803430  00 05 00 00 00 00 00 01 00 00 00 80 00 00 02 fc
  803440  00 00 02 fc 00 00 00 80 91 a7 6b 0d 05 5a e3 22
  803450  19 fa bf 55 bf 52 f1 48 f5 1b a3 95 00 00 00 00
  803460  00 20 28 c0 72

-------------------------------------------------------------------------------
     Signo   Sender     Addr    Owner Pool Req. Size Real Size
---------- -------- -------- -------- ---- --------- ---------
         0 00000004 00000004 00000004    0        44        48

Hex Addr  00 01 02 03 04 05 06 07 08 09 0a 0b 0c 0d 0e 0f
--------  -- -- -- -- -- -- -- -- -- -- -- -- -- -- -- --
  8034a0  00 00 00 00 00 00 00 00 00 80 34 f8 10 83 75 80
  8034b0  d8 bf fd c2 c0 00 00 00 00 00 03 00 00 00 00 00
  8034c0  00 00 00 00 00 00 03 00 00 00 00 01 72

-------------------------------------------------------------------------------
     Signo   Sender     Addr    Owner Pool Req. Size Real Size
---------- -------- -------- -------- ---- --------- ---------
         0 00000004 00000004 00000004    0        44        48

Hex Addr  00 01 02 03 04 05 06 07 08 09 0a 0b 0c 0d 0e 0f
--------  -- -- -- -- -- -- -- -- -- -- -- -- -- -- -- --
  8034f8  00 00 00 00 00 00 00 00 00 80 35 50 10 83 79 00
  803508  99 15 1b 34 c0 00 00 00 00 00 03 00 00 00 00 00
  803518  00 00 00 00 00 00 03 00 00 00 00 01 72

-------------------------------------------------------------------------------
     Signo   Sender     Addr    Owner Pool Req. Size Real Size
---------- -------- -------- -------- ---- --------- ---------
         0 00000004 00000004 00000004    0        44        48

Hex Addr  00 01 02 03 04 05 06 07 08 09 0a 0b 0c 0d 0e 0f
--------  -- -- -- -- -- -- -- -- -- -- -- -- -- -- -- --
  803550  00 00 00 00 00 00 00 00 00 80 35 a8 10 83 7c 80
  803560  3c df ff b0 c0 00 00 00 00 00 03 00 00 00 00 00
  803570  00 00 00 00 00 00 03 00 00 00 00 01 72

-------------------------------------------------------------------------------
     Signo   Sender     Addr    Owner Pool Req. Size Real Size
---------- -------- -------- -------- ---- --------- ---------
         0 00000004 00000004 00000004    0        44        48

Hex Addr  00 01 02 03 04 05 06 07 08 09 0a 0b 0c 0d 0e 0f
--------  -- -- -- -- -- -- -- -- -- -- -- -- -- -- -- --
  8035a8  00 00 00 00 00 00 00 00 00 80 36 00 10 83 80 00
  8035b8  a1 a2 82 9d c0 00 00 00 00 00 03 00 00 00 00 00
  8035c8  00 00 00 00 00 00 03 00 00 00 00 01 72

-------------------------------------------------------------------------------
     Signo   Sender     Addr    Owner Pool Req. Size Real Size
---------- -------- -------- -------- ---- --------- ---------
         0 00000004 00000004 00000004    0        44        48

Hex Addr  00 01 02 03 04 05 06 07 08 09 0a 0b 0c 0d 0e 0f
--------  -- -- -- -- -- -- -- -- -- -- -- -- -- -- -- --
  803600  00 00 00 00 00 00 00 00 00 80 36 58 10 83 83 80
  803610  df 0f 58 ad c0 00 00 00 00 00 03 00 00 00 00 00
  803620  00 00 00 00 00 00 03 00 00 00 00 01 72

-------------------------------------------------------------------------------
     Signo   Sender     Addr    Owner Pool Req. Size Real Size
---------- -------- -------- -------- ---- --------- ---------
         0 00000004 00000004 00000004    0        44        48

Hex Addr  00 01 02 03 04 05 06 07 08 09 0a 0b 0c 0d 0e 0f
--------  -- -- -- -- -- -- -- -- -- -- -- -- -- -- -- --
  803658  00 00 00 00 00 00 00 00 00 80 36 b0 10 83 87 00
  803668  f0 36 d2 aa c0 00 00 00 00 00 03 00 00 00 00 00
  803678  00 00 00 00 00 00 03 00 00 00 00 01 72

-------------------------------------------------------------------------------
     Signo   Sender     Addr    Owner Pool Req. Size Real Size
---------- -------- -------- -------- ---- --------- ---------
         0 00000004 00000004 00000004    0        44        48

Hex Addr  00 01 02 03 04 05 06 07 08 09 0a 0b 0c 0d 0e 0f
--------  -- -- -- -- -- -- -- -- -- -- -- -- -- -- -- --
  8036b0  00 00 00 00 00 00 00 00 00 80 37 08 10 83 8a 80
  8036c0  38 be c4 f9 c0 00 00 00 00 00 03 00 00 00 00 00
  8036d0  00 00 00 00 00 00 03 00 00 00 00 01 72

-------------------------------------------------------------------------------
     Signo   Sender     Addr    Owner Pool Req. Size Real Size
---------- -------- -------- -------- ---- --------- ---------
         0 00000004 00000004 00000004    0        44        48

Hex Addr  00 01 02 03 04 05 06 07 08 09 0a 0b 0c 0d 0e 0f
--------  -- -- -- -- -- -- -- -- -- -- -- -- -- -- -- --
  803708  00 00 00 00 00 00 00 00 00 80 37 60 10 83 8e 00
  803718  fc b6 38 ad c0 00 00 00 00 00 03 00 00 00 00 00
  803728  00 00 00 00 00 00 03 00 00 00 00 01 72

-------------------------------------------------------------------------------
     Signo   Sender     Addr    Owner Pool Req. Size Real Size
---------- -------- -------- -------- ---- --------- ---------
         0 00000004 00000004 00000004    0        44        48

Hex Addr  00 01 02 03 04 05 06 07 08 09 0a 0b 0c 0d 0e 0f
--------  -- -- -- -- -- -- -- -- -- -- -- -- -- -- -- --
  803760  00 00 00 00 00 00 00 00 00 80 37 b8 10 83 91 80
  803770  88 29 6f d8 c0 00 00 00 00 00 03 00 00 00 00 00
  803780  00 00 00 00 00 00 03 00 00 00 00 01 72

-------------------------------------------------------------------------------
     Signo   Sender     Addr    Owner Pool Req. Size Real Size
---------- -------- -------- -------- ---- --------- ---------
         0 00000004 00000004 00000004    0        44        48

Hex Addr  00 01 02 03 04 05 06 07 08 09 0a 0b 0c 0d 0e 0f
--------  -- -- -- -- -- -- -- -- -- -- -- -- -- -- -- --
  8037b8  00 00 00 00 00 00 00 00 00 80 38 10 10 83 95 00
  8037c8  0a 93 a8 c0 c0 00 00 00 00 00 03 00 00 00 00 00
  8037d8  00 00 00 00 00 00 03 00 00 00 00 01 72

-------------------------------------------------------------------------------
     Signo   Sender     Addr    Owner Pool Req. Size Real Size
---------- -------- -------- -------- ---- --------- ---------
         0 00000004 00000004 00000004    0        44        48

Hex Addr  00 01 02 03 04 05 06 07 08 09 0a 0b 0c 0d 0e 0f
--------  -- -- -- -- -- -- -- -- -- -- -- -- -- -- -- --
  803810  00 00 00 00 00 00 00 00 00 80 38 68 10 83 98 80
  803820  f4 ce e2 8a c0 00 00 00 00 00 03 00 00 00 00 00
  803830  00 00 00 00 00 00 03 00 00 00 00 01 72

-------------------------------------------------------------------------------
     Signo   Sender     Addr    Owner Pool Req. Size Real Size
---------- -------- -------- -------- ---- --------- ---------
         0 00000004 00000004 00000004    0        44        48

Hex Addr  00 01 02 03 04 05 06 07 08 09 0a 0b 0c 0d 0e 0f
--------  -- -- -- -- -- -- -- -- -- -- -- -- -- -- -- --
  803868  00 00 00 00 00 00 00 00 00 80 38 c0 10 83 9c 00
  803878  7f 2d 52 0c c0 00 00 00 00 00 03 00 00 00 00 00
  803888  00 00 00 00 00 00 03 00 00 00 00 01 72

-------------------------------------------------------------------------------
     Signo   Sender     Addr    Owner Pool Req. Size Real Size
---------- -------- -------- -------- ---- --------- ---------
         0 00000004 00000004 00000004    0        44        48

Hex Addr  00 01 02 03 04 05 06 07 08 09 0a 0b 0c 0d 0e 0f
--------  -- -- -- -- -- -- -- -- -- -- -- -- -- -- -- --
  8038c0  00 00 00 00 00 00 00 00 00 80 39 18 10 83 9f 80
  8038d0  b8 01 76 70 c0 00 00 00 00 00 03 00 00 00 00 00
  8038e0  00 00 00 00 00 00 03 00 00 00 00 01 72

-------------------------------------------------------------------------------
     Signo   Sender     Addr    Owner Pool Req. Size Real Size
---------- -------- -------- -------- ---- --------- ---------
         0 00000004 00000004 00000004    0        44        48

Hex Addr  00 01 02 03 04 05 06 07 08 09 0a 0b 0c 0d 0e 0f
--------  -- -- -- -- -- -- -- -- -- -- -- -- -- -- -- --
  803918  00 00 00 00 00 00 00 00 00 80 39 70 10 83 a3 00
  803928  aa c7 52 7a c0 00 00 00 00 00 03 00 00 00 00 00
  803938  00 00 00 00 00 00 03 00 00 00 00 01 72

-------------------------------------------------------------------------------
     Signo   Sender     Addr    Owner Pool Req. Size Real Size
---------- -------- -------- -------- ---- --------- ---------
         0 00000004 00000004 00000004    0        44        48

Hex Addr  00 01 02 03 04 05 06 07 08 09 0a 0b 0c 0d 0e 0f
--------  -- -- -- -- -- -- -- -- -- -- -- -- -- -- -- --
  803970  00 00 00 00 00 00 00 00 00 80 39 c8 10 83 a6 80
  803980  c7 5d 98 23 c0 00 00 00 00 00 03 00 00 00 00 00
  803990  00 00 00 00 00 00 03 00 00 00 00 01 72

-------------------------------------------------------------------------------
     Signo   Sender     Addr    Owner Pool Req. Size Real Size
---------- -------- -------- -------- ---- --------- ---------
         0 00000004 00000004 00000004    0        44        48

Hex Addr  00 01 02 03 04 05 06 07 08 09 0a 0b 0c 0d 0e 0f
--------  -- -- -- -- -- -- -- -- -- -- -- -- -- -- -- --
  8039c8  00 00 00 00 00 00 00 00 00 80 3a 20 10 83 aa 00
  8039d8  fa d7 bc a3 c0 00 00 00 00 00 03 00 00 00 00 00
  8039e8  00 00 00 00 00 00 03 00 00 00 00 01 72

-------------------------------------------------------------------------------
     Signo   Sender     Addr    Owner Pool Req. Size Real Size
---------- -------- -------- -------- ---- --------- ---------
         0 00000004 00000004 00000004    0        44        48

Hex Addr  00 01 02 03 04 05 06 07 08 09 0a 0b 0c 0d 0e 0f
--------  -- -- -- -- -- -- -- -- -- -- -- -- -- -- -- --
  803a20  00 00 00 00 00 00 00 00 00 80 3a 78 10 83 ad 80
  803a30  99 25 6b 65 c0 00 00 00 00 00 03 00 00 00 00 00
  803a40  00 00 00 00 00 00 03 00 00 00 00 01 72

-------------------------------------------------------------------------------
     Signo   Sender     Addr    Owner Pool Req. Size Real Size
---------- -------- -------- -------- ---- --------- ---------
         0 00000004 00000004 00000004    0        44        48

Hex Addr  00 01 02 03 04 05 06 07 08 09 0a 0b 0c 0d 0e 0f
--------  -- -- -- -- -- -- -- -- -- -- -- -- -- -- -- --
  803a78  00 00 00 00 00 00 00 00 00 80 3a d0 10 83 b1 00
  803a88  ce 4f 1f bd c0 00 00 00 00 00 03 00 00 00 00 00
  803a98  00 00 00 00 00 00 03 00 00 00 00 01 72

-------------------------------------------------------------------------------
     Signo   Sender     Addr    Owner Pool Req. Size Real Size
---------- -------- -------- -------- ---- --------- ---------
         0 00000004 00000004 00000004    0        44        48

Hex Addr  00 01 02 03 04 05 06 07 08 09 0a 0b 0c 0d 0e 0f
--------  -- -- -- -- -- -- -- -- -- -- -- -- -- -- -- --
  803ad0  00 00 00 00 00 00 00 00 00 80 3b 28 10 83 b4 80
  803ae0  63 81 c4 8d c0 00 00 00 00 00 03 00 00 00 00 00
  803af0  00 00 00 00 00 00 03 00 00 00 00 01 72

-------------------------------------------------------------------------------
     Signo   Sender     Addr    Owner Pool Req. Size Real Size
---------- -------- -------- -------- ---- --------- ---------
         0 00000004 00000004 00000004    0        44        48

Hex Addr  00 01 02 03 04 05 06 07 08 09 0a 0b 0c 0d 0e 0f
--------  -- -- -- -- -- -- -- -- -- -- -- -- -- -- -- --
  803b28  00 00 00 00 00 00 00 00 00 80 3b 80 10 83 b8 00
  803b38  1c 56 c8 0e c0 00 00 00 00 00 03 00 00 00 00 00
  803b48  00 00 00 00 00 00 03 00 00 00 00 01 72

-------------------------------------------------------------------------------
     Signo   Sender     Addr    Owner Pool Req. Size Real Size
---------- -------- -------- -------- ---- --------- ---------
         0 00000004 00000004 00000004    0        44        48

Hex Addr  00 01 02 03 04 05 06 07 08 09 0a 0b 0c 0d 0e 0f
--------  -- -- -- -- -- -- -- -- -- -- -- -- -- -- -- --
  803b80  00 00 00 00 00 00 00 00 00 80 3b d8 10 83 bb 80
  803b90  02 ff d8 26 c0 00 00 00 00 00 03 00 00 00 00 00
  803ba0  00 00 00 00 00 00 03 00 00 00 00 01 72

-------------------------------------------------------------------------------
     Signo   Sender     Addr    Owner Pool Req. Size Real Size
---------- -------- -------- -------- ---- --------- ---------
         0 00000004 00000004 00000004    0        44        48

Hex Addr  00 01 02 03 04 05 06 07 08 09 0a 0b 0c 0d 0e 0f
--------  -- -- -- -- -- -- -- -- -- -- -- -- -- -- -- --
  803bd8  00 00 00 00 00 00 00 00 00 80 3c 30 10 83 bf 00
  803be8  b6 41 e9 a0 c0 00 00 00 00 00 03 00 00 00 00 00
  803bf8  00 00 00 00 00 00 03 00 00 00 00 01 72

-------------------------------------------------------------------------------
     Signo   Sender     Addr    Owner Pool Req. Size Real Size
---------- -------- -------- -------- ---- --------- ---------
         0 00000004 00000004 00000004    0        44        48

Hex Addr  00 01 02 03 04 05 06 07 08 09 0a 0b 0c 0d 0e 0f
--------  -- -- -- -- -- -- -- -- -- -- -- -- -- -- -- --
  803c30  00 00 00 00 00 00 00 00 00 80 3c 88 10 83 c2 80
  803c40  f8 75 a3 59 c0 00 00 00 00 00 03 00 00 00 00 00
  803c50  00 00 00 00 00 00 03 00 00 00 00 01 72

-------------------------------------------------------------------------------
     Signo   Sender     Addr    Owner Pool Req. Size Real Size
---------- -------- -------- -------- ---- --------- ---------
         0 00000004 00000004 00000004    0        44        48

Hex Addr  00 01 02 03 04 05 06 07 08 09 0a 0b 0c 0d 0e 0f
--------  -- -- -- -- -- -- -- -- -- -- -- -- -- -- -- --
  803c88  00 00 00 00 00 00 00 00 00 80 3c e0 10 83 c6 00
  803c98  03 e5 ae 78 c0 00 00 00 00 00 03 00 00 00 00 00
  803ca8  00 00 00 00 00 00 03 00 00 00 00 01 72

-------------------------------------------------------------------------------
     Signo   Sender     Addr    Owner Pool Req. Size Real Size
---------- -------- -------- -------- ---- --------- ---------
         0 00000004 00000004 00000004    0        44        48

Hex Addr  00 01 02 03 04 05 06 07 08 09 0a 0b 0c 0d 0e 0f
--------  -- -- -- -- -- -- -- -- -- -- -- -- -- -- -- --
  803ce0  00 00 00 00 00 00 00 00 00 80 3d 38 10 83 c9 80
  803cf0  ae c4 61 a0 c0 00 00 00 00 00 03 00 00 00 00 00
  803d00  00 00 00 00 00 00 03 00 00 00 00 01 72

-------------------------------------------------------------------------------
     Signo   Sender     Addr    Owner Pool Req. Size Real Size
---------- -------- -------- -------- ---- --------- ---------
         0 00000004 00000004 00000004    0        44        48

Hex Addr  00 01 02 03 04 05 06 07 08 09 0a 0b 0c 0d 0e 0f
--------  -- -- -- -- -- -- -- -- -- -- -- -- -- -- -- --
  803d38  00 00 00 00 00 00 00 00 00 80 3d 90 10 83 cd 00
  803d48  34 e3 c2 9b c0 00 00 00 00 00 03 00 00 00 00 00
  803d58  00 00 00 00 00 00 03 00 00 00 00 01 72

-------------------------------------------------------------------------------
     Signo   Sender     Addr    Owner Pool Req. Size Real Size
---------- -------- -------- -------- ---- --------- ---------
         0 00000004 00000004 00000004    0        44        48

Hex Addr  00 01 02 03 04 05 06 07 08 09 0a 0b 0c 0d 0e 0f
--------  -- -- -- -- -- -- -- -- -- -- -- -- -- -- -- --
  803d90  00 00 00 00 00 00 00 00 00 00 00 00 10 83 d0 80
  803da0  68 37 dd 8c c0 00 00 00 00 00 03 00 00 00 00 00
  803db0  00 00 00 00 00 00 03 00 00 00 00 01 72

-------------------------------------------------------------------------------
     Signo   Sender     Addr    Owner Pool Req. Size Real Size
---------- -------- -------- -------- ---- --------- ---------
         0 00000004 00000004 00000004    0        44        48

Hex Addr  00 01 02 03 04 05 06 07 08 09 0a 0b 0c 0d 0e 0f
--------  -- -- -- -- -- -- -- -- -- -- -- -- -- -- -- --
  803de8  00 00 00 00 00 00 00 00 00 80 3e 40 10 83 ec 80
  803df8  2f c0 1f 70 c0 00 00 00 00 00 03 00 00 00 00 00
  803e08  00 00 00 00 00 00 03 00 00 00 00 01 72

-------------------------------------------------------------------------------
     Signo   Sender     Addr    Owner Pool Req. Size Real Size
---------- -------- -------- -------- ---- --------- ---------
         0 00000004 00000004 00000004    0        44        48

Hex Addr  00 01 02 03 04 05 06 07 08 09 0a 0b 0c 0d 0e 0f
--------  -- -- -- -- -- -- -- -- -- -- -- -- -- -- -- --
  803e40  00 00 00 00 00 00 00 00 00 80 3e 98 10 83 f0 00
  803e50  1f a5 5f 9b c0 00 00 00 00 00 03 00 00 00 00 00
  803e60  00 00 00 00 00 00 03 00 00 00 00 01 72

-------------------------------------------------------------------------------
     Signo   Sender     Addr    Owner Pool Req. Size Real Size
---------- -------- -------- -------- ---- --------- ---------
         0 00000004 00000004 00000004    0        44        48

Hex Addr  00 01 02 03 04 05 06 07 08 09 0a 0b 0c 0d 0e 0f
--------  -- -- -- -- -- -- -- -- -- -- -- -- -- -- -- --
  803e98  00 00 00 00 00 00 00 00 00 80 3e f0 10 83 f3 80
  803ea8  35 de 13 f3 c0 00 00 00 00 00 03 00 00 00 00 00
  803eb8  00 00 00 00 00 00 03 00 00 00 00 01 72

-------------------------------------------------------------------------------
     Signo   Sender     Addr    Owner Pool Req. Size Real Size
---------- -------- -------- -------- ---- --------- ---------
         0 00000004 00000004 00000004    0        44        48

Hex Addr  00 01 02 03 04 05 06 07 08 09 0a 0b 0c 0d 0e 0f
--------  -- -- -- -- -- -- -- -- -- -- -- -- -- -- -- --
  803ef0  00 00 00 00 00 00 00 00 00 80 3f 48 10 83 f7 00
  803f00  64 e2 b9 64 c0 00 00 00 00 00 03 00 00 00 00 00
  803f10  00 00 00 00 00 00 03 00 00 00 00 01 72

-------------------------------------------------------------------------------
     Signo   Sender     Addr    Owner Pool Req. Size Real Size
---------- -------- -------- -------- ---- --------- ---------
         0 00000004 00000004 00000004    0        44        48

Hex Addr  00 01 02 03 04 05 06 07 08 09 0a 0b 0c 0d 0e 0f
--------  -- -- -- -- -- -- -- -- -- -- -- -- -- -- -- --
  803f48  00 00 00 00 00 00 00 00 00 80 3f a0 10 83 fa 80
  803f58  f9 5d fe 45 c0 00 00 00 00 00 03 00 00 00 00 00
  803f68  00 00 00 00 00 00 03 00 00 00 00 01 72

-------------------------------------------------------------------------------
     Signo   Sender     Addr    Owner Pool Req. Size Real Size
---------- -------- -------- -------- ---- --------- ---------
         0 00000004 00000004 00000004    0        44        48

Hex Addr  00 01 02 03 04 05 06 07 08 09 0a 0b 0c 0d 0e 0f
--------  -- -- -- -- -- -- -- -- -- -- -- -- -- -- -- --
  803fa0  00 00 00 00 00 00 00 00 00 80 3f f8 10 84 01 80
  803fb0  33 e6 7d 4a c0 00 00 00 00 00 03 00 00 00 00 00
  803fc0  00 00 00 00 00 00 03 00 00 00 00 01 72

-------------------------------------------------------------------------------
     Signo   Sender     Addr    Owner Pool Req. Size Real Size
---------- -------- -------- -------- ---- --------- ---------
         0 00000004 00000004 00000004    0        44        48

Hex Addr  00 01 02 03 04 05 06 07 08 09 0a 0b 0c 0d 0e 0f
--------  -- -- -- -- -- -- -- -- -- -- -- -- -- -- -- --
  803ff8  00 00 00 00 00 00 00 00 00 80 40 50 10 84 05 00
  804008  c3 49 95 97 c0 00 00 00 00 00 03 00 00 00 00 00
  804018  00 00 00 00 00 00 03 00 00 00 00 01 72

-------------------------------------------------------------------------------
     Signo   Sender     Addr    Owner Pool Req. Size Real Size
---------- -------- -------- -------- ---- --------- ---------
         0 00000004 00000004 00000004    0        44        48

Hex Addr  00 01 02 03 04 05 06 07 08 09 0a 0b 0c 0d 0e 0f
--------  -- -- -- -- -- -- -- -- -- -- -- -- -- -- -- --
  804050  00 00 00 00 00 00 00 00 00 80 40 a8 10 84 08 80
  804060  ed 37 9f 1d c0 00 00 00 00 00 03 00 00 00 00 00
  804070  00 00 00 00 00 00 03 00 00 00 00 01 72

-------------------------------------------------------------------------------
     Signo   Sender     Addr    Owner Pool Req. Size Real Size
---------- -------- -------- -------- ---- --------- ---------
         0 00000004 00000004 00000004    0        44        48

Hex Addr  00 01 02 03 04 05 06 07 08 09 0a 0b 0c 0d 0e 0f
--------  -- -- -- -- -- -- -- -- -- -- -- -- -- -- -- --
  8040a8  00 00 00 00 00 00 00 00 00 80 41 00 10 84 0c 00
  8040b8  bd 97 39 80 c0 00 00 00 00 00 03 00 00 00 00 00
  8040c8  00 00 00 00 00 00 03 00 00 00 00 01 72

-------------------------------------------------------------------------------
     Signo   Sender     Addr    Owner Pool Req. Size Real Size
---------- -------- -------- -------- ---- --------- ---------
         0 00000004 00000004 00000004    0        44        48

Hex Addr  00 01 02 03 04 05 06 07 08 09 0a 0b 0c 0d 0e 0f
--------  -- -- -- -- -- -- -- -- -- -- -- -- -- -- -- --
  804100  00 00 00 00 00 00 00 00 00 80 41 58 10 84 0f 80
  804110  ce 44 1a 3e c0 00 00 00 00 00 03 00 00 00 00 00
  804120  00 00 00 00 00 00 03 00 00 00 00 01 72

-------------------------------------------------------------------------------
     Signo   Sender     Addr    Owner Pool Req. Size Real Size
---------- -------- -------- -------- ---- --------- ---------
         0 00000004 00000004 00000004    0        44        48

Hex Addr  00 01 02 03 04 05 06 07 08 09 0a 0b 0c 0d 0e 0f
--------  -- -- -- -- -- -- -- -- -- -- -- -- -- -- -- --
  804158  00 00 00 00 00 00 00 00 00 80 41 b0 10 84 13 00
  804168  45 10 b7 c4 c0 00 00 00 00 00 03 00 00 00 00 00
  804178  00 00 00 00 00 00 03 00 00 00 00 01 72

-------------------------------------------------------------------------------
     Signo   Sender     Addr    Owner Pool Req. Size Real Size
---------- -------- -------- -------- ---- --------- ---------
         0 00000004 00000004 00000004    0        44        48

Hex Addr  00 01 02 03 04 05 06 07 08 09 0a 0b 0c 0d 0e 0f
--------  -- -- -- -- -- -- -- -- -- -- -- -- -- -- -- --
  8041b0  00 00 00 00 00 00 00 00 00 80 42 08 10 83 67 80
  8041c0  23 53 7d 07 c0 00 00 00 00 00 03 00 00 00 00 00
  8041d0  00 00 00 00 00 00 03 00 00 00 00 01 72

-------------------------------------------------------------------------------
     Signo   Sender     Addr    Owner Pool Req. Size Real Size
---------- -------- -------- -------- ---- --------- ---------
         0 00000004 00000004 00000004    0        44        48

Hex Addr  00 01 02 03 04 05 06 07 08 09 0a 0b 0c 0d 0e 0f
--------  -- -- -- -- -- -- -- -- -- -- -- -- -- -- -- --
  804208  00 00 00 00 00 00 00 00 00 80 42 60 10 83 6b 00
  804218  e5 85 eb 0c c0 00 00 00 00 00 03 00 00 00 00 00
  804228  00 00 00 00 00 00 03 00 00 00 00 01 72

-------------------------------------------------------------------------------
     Signo   Sender     Addr    Owner Pool Req. Size Real Size
---------- -------- -------- -------- ---- --------- ---------
         0 00000004 00000004 00000004    0        44        48

Hex Addr  00 01 02 03 04 05 06 07 08 09 0a 0b 0c 0d 0e 0f
--------  -- -- -- -- -- -- -- -- -- -- -- -- -- -- -- --
  804260  00 00 00 00 00 00 00 00 00 80 42 b8 10 83 6e 80
  804270  11 1e 68 e5 c0 00 00 00 00 00 03 00 00 00 00 00
  804280  00 00 00 00 00 00 03 00 00 00 00 01 72

-------------------------------------------------------------------------------
     Signo   Sender     Addr    Owner Pool Req. Size Real Size
---------- -------- -------- -------- ---- --------- ---------
         0 00000004 00000004 00000004    0        44        48

Hex Addr  00 01 02 03 04 05 06 07 08 09 0a 0b 0c 0d 0e 0f
--------  -- -- -- -- -- -- -- -- -- -- -- -- -- -- -- --
  8042b8  00 00 00 00 00 00 00 00 00 80 34 a0 10 83 72 00
  8042c8  f8 bc a7 28 c0 00 00 00 00 00 03 00 00 00 00 00
  8042d8  00 00 00 00 00 00 03 00 00 00 00 01 72

-------------------------------------------------------------------------------
     Signo   Sender     Addr    Owner Pool Req. Size Real Size
---------- -------- -------- -------- ---- --------- ---------
   8674824 00000004 00000004 00000004    0        12        24

Hex Addr  00 01 02 03 04 05 06 07 08 09 0a 0b 0c 0d 0e 0f
--------  -- -- -- -- -- -- -- -- -- -- -- -- -- -- -- --
  804450  00 84 5e 08 00 80 46 70 01 d4 ac 52 72

-------------------------------------------------------------------------------
     Signo   Sender     Addr    Owner Pool Req. Size Real Size
---------- -------- -------- -------- ---- --------- ---------
   8406400 00000004 00000004 00000004    0       172       200

Hex Addr  00 01 02 03 04 05 06 07 08 09 0a 0b 0c 0d 0e 0f
--------  -- -- -- -- -- -- -- -- -- -- -- -- -- -- -- --
  804490  00 80 45 80 00 80 2f 18 00 01 00 01 00 00 00 07
  8044a0  0f a0 00 00 0f a0 0f a0 0f a1 ff ff ff ff 00 00
  8044b0  00 00 89 11 00 80 44 50 00 00 00 00 00 00 00 00
  8044c0  00 00 00 00 00 00 00 00 00 00 00 00 00 00 00 00
  8044d0  00 00 00 00 00 00 00 00 00 00 00 00 00 00 00 00
  8044e0  00 00 00 00 00 00 00 00 00 00 00 00 00 00 00 00
  8044f0  00 00 00 00 00 00 00 00 00 00 00 00 00 00 00 00
  804500  00 80 44 50 00 00 00 00 00 00 00 00 00 00 00 00
  804510  00 00 00 00 00 00 00 00 00 00 00 00 00 00 00 00
  804520  00 00 00 00 00 00 00 00 00 00 01 ea 00 00 00 00
  804530  00 00 01 f1 00 00 00 00 00 00 00 00 72

-------------------------------------------------------------------------------
     Signo   Sender     Addr    Owner Pool Req. Size Real Size
---------- -------- -------- -------- ---- --------- ---------
         0 00000004 00000004 00000004    0       172       200

Hex Addr  00 01 02 03 04 05 06 07 08 09 0a 0b 0c 0d 0e 0f
--------  -- -- -- -- -- -- -- -- -- -- -- -- -- -- -- --
  804580  00 00 00 00 00 80 2f 18 00 02 00 01 00 00 00 00
  804590  0f a1 00 00 0f a1 0f a1 ff ff ff ff ff ff 00 00
  8045a0  00 00 00 00 00 00 00 00 00 00 00 00 00 00 00 00
  8045b0  00 00 00 00 00 00 00 00 00 00 00 00 00 00 00 00
  8045c0  00 00 00 00 00 00 00 00 00 00 00 00 00 00 00 00
  8045d0  00 00 00 00 00 00 00 00 00 00 00 00 00 00 00 00
  8045e0  00 00 00 00 00 00 00 00 00 00 00 00 00 00 00 00
  8045f0  00 00 00 00 00 00 00 00 00 00 00 00 00 00 00 00
  804600  00 00 00 00 00 00 00 00 00 00 00 00 00 00 00 00
  804610  00 00 00 00 00 00 00 00 00 00 00 00 00 00 00 00
  804620  00 00 00 00 00 00 00 00 00 00 00 00 72

-------------------------------------------------------------------------------
     Signo   Sender     Addr    Owner Pool Req. Size Real Size
---------- -------- -------- -------- ---- --------- ---------
         1 00000004 00000004 00000004    0      1072      2048

Hex Addr  00 01 02 03 04 05 06 07 08 09 0a 0b 0c 0d 0e 0f
--------  -- -- -- -- -- -- -- -- -- -- -- -- -- -- -- --
  804670  00 00 00 01 00 00 00 01 00 00 00 01 00 00 10 00
  804680  09 00 00 00 00 00 00 12 00 84 5d 48 00 80 34 30
  804690  00 00 03 00 00 00 03 00 00 00 00 01 42 03 04 01
  8046a0  00 60 00 00 00 80 5f a0 00 81 36 68 00 00 00 00
  8046b0  00 00 00 00 00 00 00 00 00 00 00 00 00 00 00 00
  8046c0  00 00 00 00 00 00 00 00 00 00 00 00 00 00 00 00
  8046d0  00 00 00 00 00 00 00 00 00 00 00 00 00 00 00 00
  8046e0  00 00 00 00 00 00 00 00 00 00 00 00 00 00 00 00
  8046f0  00 00 00 00 00 00 00 00 00 00 00 00 00 00 00 00
  804700  00 00 00 00 00 00 00 00 00 00 00 00 00 00 00 00
  804710  00 00 00 00 00 00 00 00 00 00 00 00 00 00 00 00
  804720  00 00 00 00 00 00 00 00 00 00 00 00 00 00 00 00
  804730  00 00 00 00 00 00 00 00 00 00 00 00 00 00 00 00
  804740  00 00 00 00 00 00 00 00 00 00 00 00 00 00 00 00
  804750  00 00 00 00 00 00 00 00 00 00 00 00 00 00 00 00
  804760  00 00 00 00 00 00 00 00 00 00 00 00 00 00 00 00
  804770  00 00 00 00 00 00 00 00 00 00 00 00 00 00 00 00
  804780  00 00 00 00 00 00 00 00 00 00 00 00 00 00 00 00
  804790  00 00 00 00 00 00 00 00 00 00 00 00 00 00 00 00
  8047a0  00 00 00 00 00 00 00 00 00 00 00 00 00 00 00 00
  8047b0  00 00 00 00 00 00 00 00 00 00 00 00 00 00 00 00
  8047c0  00 00 00 00 00 00 00 00 00 00 00 00 00 00 00 00
  8047d0  00 00 00 00 00 00 00 00 00 00 00 00 00 00 00 00
  8047e0  00 00 00 00 00 00 00 00 00 00 00 00 00 00 00 00
  8047f0  00 00 00 00 00 00 00 00 00 00 00 00 00 00 00 00
  804800  00 00 00 00 00 00 00 00 00 00 00 00 00 00 00 00
  804810  00 00 00 00 00 00 00 00 00 00 00 00 00 00 00 00
  804820  00 00 00 00 00 00 00 00 00 00 00 00 00 00 00 00
  804830  00 00 00 00 00 00 00 00 00 00 00 00 00 00 00 00
  804840  00 00 00 00 00 00 00 00 00 00 00 00 00 00 00 00
  804850  00 00 00 00 00 00 00 00 00 00 00 00 00 00 00 00
  804860  00 00 00 00 00 00 00 00 00 00 00 00 00 00 00 00
  804870  00 00 00 00 00 00 00 00 00 00 00 00 00 00 00 00
  804880  00 00 00 00 00 00 00 00 00 00 00 00 00 00 00 00
  804890  00 00 00 00 00 00 00 00 00 00 00 00 00 00 00 00
  8048a0  00 00 00 00 00 00 00 00 00 00 00 00 00 00 00 00
  8048b0  00 00 00 00 00 00 00 00 00 00 00 00 00 00 00 00
  8048c0  00 00 00 00 00 00 00 00 00 00 00 00 00 00 00 00
  8048d0  00 00 00 00 00 00 00 00 00 00 00 00 00 00 00 00
  8048e0  00 00 00 00 00 00 00 00 00 00 00 00 00 00 00 00
  8048f0  00 00 00 00 00 00 00 00 00 00 00 00 00 00 00 00
  804900  00 00 00 00 00 00 00 00 00 00 00 00 00 00 00 00
  804910  00 00 00 00 00 00 00 00 00 00 00 00 00 00 00 00
  804920  00 00 00 00 00 00 00 00 00 00 00 00 00 00 00 00
  804930  00 00 00 00 00 00 00 00 00 00 00 00 00 00 00 00
  804940  00 00 00 00 00 00 00 00 00 00 00 00 00 00 00 00
  804950  00 00 00 00 00 00 00 00 00 00 00 00 00 00 00 00
  804960  00 00 00 00 00 00 00 00 00 00 00 00 00 00 00 00
  804970  00 00 00 00 00 00 00 00 00 00 00 00 00 00 00 00
  804980  00 00 00 00 00 00 00 00 00 00 00 00 00 00 00 00
  804990  00 00 00 00 00 00 00 00 00 00 00 00 00 00 00 00
  8049a0  00 00 00 00 00 00 00 00 00 00 00 00 00 00 00 00
  8049b0  00 00 00 00 00 00 00 00 00 00 00 00 00 00 00 00
  8049c0  00 00 00 00 00 00 00 00 00 00 00 00 00 00 00 00
  8049d0  00 00 00 00 00 00 00 00 00 00 00 00 00 00 00 00
  8049e0  00 00 00 00 00 00 00 00 00 00 00 00 00 00 00 00
  8049f0  00 00 00 00 00 00 00 00 00 00 00 00 00 00 00 00
  804a00  00 00 00 00 00 00 00 00 00 00 00 00 00 00 00 00
  804a10  00 00 00 00 00 00 00 00 00 00 00 00 00 00 00 00
  804a20  00 00 00 00 00 00 00 00 00 00 00 00 00 00 00 00
  804a30  00 00 00 00 00 00 00 00 00 00 00 00 00 00 00 00
  804a40  00 00 00 00 00 00 00 00 00 00 00 00 00 00 00 00
  804a50  00 00 00 00 00 00 00 00 00 00 00 00 00 00 00 00
  804a60  00 00 00 00 00 00 00 00 00 00 00 00 00 00 00 00
  804a70  00 00 00 00 00 00 00 00 00 00 00 00 00 00 00 00
  804a80  00 00 00 00 00 00 00 00 00 00 00 00 00 00 00 00
  804a90  00 00 00 00 00 00 00 00 00 00 00 00 00 00 00 00
  804aa0  72

-------------------------------------------------------------------------------
     Signo   Sender     Addr    Owner Pool Req. Size Real Size
---------- -------- -------- -------- ---- --------- ---------
   8391080 00000004 00000004 00000004    0       287       512

Hex Addr  00 01 02 03 04 05 06 07 08 09 0a 0b 0c 0d 0e 0f
--------  -- -- -- -- -- -- -- -- -- -- -- -- -- -- -- --
  805fa0  00 80 09 a8 e4 35 70 38 10 00 02 03 00 00 00 05
  805fb0  00 00 06 1d 00 00 00 03 00 00 00 00 00 80 46 78
  805fc0  00 00 50 9a 69 a3 42 03 04 01 00 60 00 00 00 09
  805fd0  00 00 00 01 00 00 00 03 70 4f dc e9 00 00 02 ea
  805fe0  00 00 00 00 00 00 00 00 10 00 02 03 00 00 00 00
  805ff0  00 00 00 08 00 00 00 08 10 00 02 03 00 80 5f fc
  806000  00 80 5f fc 00 00 00 95 00 00 00 95 00 00 00 00
  806010  00 00 00 00 00 80 60 14 00 80 60 14 00 00 00 00
  806020  00 00 00 80 00 00 00 00 00 80 60 28 00 80 60 28
  806030  00 00 01 cb 00 80 60 34 00 80 60 34 00 00 01 cb
  806040  00 05 00 00 00 00 00 01 00 80 60 ac 00 00 00 61
  806050  00 00 00 00 00 80 46 70 00 00 00 00 00 00 00 88
  806060  00 00 00 8e 00 00 00 01 00 80 5f a0 e1 0f 03 00
  806070  00 00 00 00 00 00 00 00 00 00 00 00 00 00 00 00
  806080  00 00 00 00 00 00 00 00 00 81 37 20 00 00 00 83
  806090  00 00 00 e7 00 00 00 01 00 80 5f a0 e1 0f 08 80
  8060a0  12 00 00 00 00 00 03 e8 00 80 61 c8 65 74 68 30
  8060b0  5f 76 6c 61 6e 5f 6c 69 6e 6b 30 00 bf 0a de 72

-------------------------------------------------------------------------------
     Signo   Sender     Addr    Owner Pool Req. Size Real Size
---------- -------- -------- -------- ---- --------- ---------
1836348730 00000004 00000004 00000004    0         8        24

Hex Addr  00 01 02 03 04 05 06 07 08 09 0a 0b 0c 0d 0e 0f
--------  -- -- -- -- -- -- -- -- -- -- -- -- -- -- -- --
  8061c8  6d 74 75 3a 37 34 36 00 72

-------------------------------------------------------------------------------
     Signo   Sender     Addr    Owner Pool Req. Size Real Size
---------- -------- -------- -------- ---- --------- ---------
     65537 00000004 00000004 00000004    0       620      1024

Hex Addr  00 01 02 03 04 05 06 07 08 09 0a 0b 0c 0d 0e 0f
--------  -- -- -- -- -- -- -- -- -- -- -- -- -- -- -- --
  806208  00 01 00 01 00 00 00 00 00 00 00 04 00 00 00 02
  806218  00 20 ce 80 00 00 00 1e 00 00 00 00 00 00 00 0d
  806228  00 20 ce 40 00 00 00 1e 00 00 00 00 00 00 00 0e
  806238  00 00 00 00 00 00 00 00 00 00 00 00 00 00 00 00
  806248  00 00 00 00 00 00 00 00 00 00 00 00 00 00 00 00
  806258  00 84 31 14 00 80 66 30 00 80 78 30 00 00 03 00
  806268  00 00 00 02 00 00 00 02 00 00 00 02 e1 31 c5 80
  806278  00 80 c8 a0 e1 31 c6 28 00 80 c8 a0 00 00 00 00
  806288  00 00 00 00 00 00 00 00 00 00 00 00 00 00 00 00
  806298  00 00 00 00 00 00 00 00 00 00 00 00 00 00 00 00
  8062a8  00 00 00 00 00 00 00 00 00 00 00 00 00 00 00 00
  8062b8  00 00 00 00 00 00 00 00 00 00 00 00 00 00 00 00
  8062c8  00 00 00 00 00 00 00 00 00 00 00 00 00 00 00 00
  8062d8  00 00 00 00 00 00 00 00 00 00 00 00 00 00 00 00
  8062e8  00 00 00 00 00 00 00 00 00 00 00 00 00 00 00 00
  8062f8  00 00 00 00 00 00 00 00 00 00 00 00 00 00 00 00
  806308  00 00 00 00 00 00 00 00 00 00 00 00 00 00 00 00
  806318  00 00 00 00 00 00 00 00 00 00 00 00 00 00 00 00
  806328  00 00 00 00 00 00 00 00 00 00 00 00 00 00 00 00
  806338  00 00 00 00 00 00 00 00 00 00 00 00 00 00 00 00
  806348  00 00 00 00 00 00 00 00 00 00 00 00 00 00 00 00
  806358  00 00 00 00 00 00 00 00 00 00 00 00 00 00 00 00
  806368  00 00 00 00 00 00 00 00 00 00 00 00 00 00 00 00
  806378  00 00 00 00 00 00 00 00 00 00 00 00 00 00 00 00
  806388  00 00 00 00 00 00 00 00 00 00 00 00 00 00 00 00
  806398  00 00 00 00 00 00 00 00 00 00 00 00 00 00 00 00
  8063a8  00 00 00 00 00 00 00 00 00 00 00 00 00 00 00 00
  8063b8  00 00 00 00 00 00 00 00 00 00 00 00 00 00 00 00
  8063c8  00 00 00 00 00 00 00 00 00 00 00 00 00 00 00 00
  8063d8  00 00 00 00 00 00 00 00 00 00 00 00 00 00 00 00
  8063e8  00 00 00 00 00 00 00 00 00 00 00 00 00 00 00 00
  8063f8  00 00 00 00 00 00 00 00 00 00 00 00 00 00 00 00
  806408  00 00 00 00 00 00 00 00 00 00 00 00 00 00 00 00
  806418  00 00 00 00 00 00 00 00 00 00 00 00 00 00 00 00
  806428  00 00 00 00 00 00 00 00 00 00 00 00 00 00 00 00
  806438  00 00 00 00 00 00 00 00 00 00 00 00 00 00 00 00
  806448  00 00 00 00 00 00 00 00 00 00 00 00 00 00 00 00
  806458  00 00 00 00 00 00 00 00 00 00 00 00 00 00 00 00
  806468  00 00 00 00 00 00 00 00 00 00 00 00 72

-------------------------------------------------------------------------------
     Signo   Sender     Addr    Owner Pool Req. Size Real Size
---------- -------- -------- -------- ---- --------- ---------
   8419136 00000004 00000004 00000004    0       172       200

Hex Addr  00 01 02 03 04 05 06 07 08 09 0a 0b 0c 0d 0e 0f
--------  -- -- -- -- -- -- -- -- -- -- -- -- -- -- -- --
  806630  00 80 77 40 00 80 62 08 00 03 00 00 00 00 00 07
  806640  00 00 00 00 00 00 00 00 00 00 00 00 00 00 00 00
  806650  00 00 00 00 00 00 00 00 00 00 00 00 00 00 00 00
  806660  00 00 00 00 00 00 00 00 00 00 00 00 00 00 00 00
  806670  00 00 00 00 00 00 00 00 00 00 00 00 00 00 00 00
  806680  00 00 00 00 00 00 00 00 00 00 00 00 00 00 00 00
  806690  00 00 00 00 00 00 00 00 00 00 00 00 00 00 00 00
  8066a0  00 80 c8 a0 00 00 00 00 00 00 00 00 00 00 00 00
  8066b0  00 00 00 00 00 00 00 00 00 00 00 00 00 00 00 00
  8066c0  00 00 00 00 00 00 00 00 00 00 00 00 00 00 00 00
  8066d0  00 00 00 02 00 00 00 00 00 00 00 00 72

-------------------------------------------------------------------------------
     Signo   Sender     Addr    Owner Pool Req. Size Real Size
---------- -------- -------- -------- ---- --------- ---------
    327680 00000004 00000004 00000004    0        52        72

Hex Addr  00 01 02 03 04 05 06 07 08 09 0a 0b 0c 0d 0e 0f
--------  -- -- -- -- -- -- -- -- -- -- -- -- -- -- -- --
  806720  00 05 00 00 00 00 00 01 00 00 00 80 00 00 02 fc
  806730  00 00 02 fc 00 00 00 80 b7 20 b0 a1 ff 4f 59 5f
  806740  a8 77 da fb 67 f4 50 e8 6c ad e1 0b 00 00 00 00
  806750  00 20 28 c0 72

-------------------------------------------------------------------------------
     Signo   Sender     Addr    Owner Pool Req. Size Real Size
---------- -------- -------- -------- ---- --------- ---------
         0 00000004 00000004 00000004    0        44        48

Hex Addr  00 01 02 03 04 05 06 07 08 09 0a 0b 0c 0d 0e 0f
--------  -- -- -- -- -- -- -- -- -- -- -- -- -- -- -- --
  806790  00 00 00 00 00 00 00 00 00 80 67 e8 10 82 c6 80
  8067a0  07 37 a7 e5 c0 00 00 00 00 00 03 00 00 00 00 00
  8067b0  00 00 00 00 00 00 03 00 00 00 00 01 72

-------------------------------------------------------------------------------
     Signo   Sender     Addr    Owner Pool Req. Size Real Size
---------- -------- -------- -------- ---- --------- ---------
         0 00000004 00000004 00000004    0        44        48

Hex Addr  00 01 02 03 04 05 06 07 08 09 0a 0b 0c 0d 0e 0f
--------  -- -- -- -- -- -- -- -- -- -- -- -- -- -- -- --
  8067e8  00 00 00 00 00 00 00 00 00 80 68 40 10 82 ca 00
  8067f8  5b 98 0d 72 c0 00 00 00 00 00 03 00 00 00 00 00
  806808  00 00 00 00 00 00 03 00 00 00 00 01 72

-------------------------------------------------------------------------------
     Signo   Sender     Addr    Owner Pool Req. Size Real Size
---------- -------- -------- -------- ---- --------- ---------
         0 00000004 00000004 00000004    0        44        48

Hex Addr  00 01 02 03 04 05 06 07 08 09 0a 0b 0c 0d 0e 0f
--------  -- -- -- -- -- -- -- -- -- -- -- -- -- -- -- --
  806840  00 00 00 00 00 00 00 00 00 80 68 98 10 82 cd 80
  806850  c4 2b 34 ef c0 00 00 00 00 00 03 00 00 00 00 00
  806860  00 00 00 00 00 00 03 00 00 00 00 01 72

-------------------------------------------------------------------------------
     Signo   Sender     Addr    Owner Pool Req. Size Real Size
---------- -------- -------- -------- ---- --------- ---------
         0 00000004 00000004 00000004    0        44        48

Hex Addr  00 01 02 03 04 05 06 07 08 09 0a 0b 0c 0d 0e 0f
--------  -- -- -- -- -- -- -- -- -- -- -- -- -- -- -- --
  806898  00 00 00 00 00 00 00 00 00 80 68 f0 10 82 d1 00
  8068a8  1a 63 07 bd c0 00 00 00 00 00 03 00 00 00 00 00
  8068b8  00 00 00 00 00 00 03 00 00 00 00 01 72

-------------------------------------------------------------------------------
     Signo   Sender     Addr    Owner Pool Req. Size Real Size
---------- -------- -------- -------- ---- --------- ---------
         0 00000004 00000004 00000004    0        44        48

Hex Addr  00 01 02 03 04 05 06 07 08 09 0a 0b 0c 0d 0e 0f
--------  -- -- -- -- -- -- -- -- -- -- -- -- -- -- -- --
  8068f0  00 00 00 00 00 00 00 00 00 80 69 48 10 82 d4 80
  806900  ba b8 d5 4f c0 00 00 00 00 00 03 00 00 00 00 00
  806910  00 00 00 00 00 00 03 00 00 00 00 01 72

-------------------------------------------------------------------------------
     Signo   Sender     Addr    Owner Pool Req. Size Real Size
---------- -------- -------- -------- ---- --------- ---------
         0 00000004 00000004 00000004    0        44        48

Hex Addr  00 01 02 03 04 05 06 07 08 09 0a 0b 0c 0d 0e 0f
--------  -- -- -- -- -- -- -- -- -- -- -- -- -- -- -- --
  806948  00 00 00 00 00 00 00 00 00 80 69 a0 10 82 d8 00
  806958  29 3b 38 86 c0 00 00 00 00 00 03 00 00 00 00 00
  806968  00 00 00 00 00 00 03 00 00 00 00 01 72

-------------------------------------------------------------------------------
     Signo   Sender     Addr    Owner Pool Req. Size Real Size
---------- -------- -------- -------- ---- --------- ---------
         0 00000004 00000004 00000004    0        44        48

Hex Addr  00 01 02 03 04 05 06 07 08 09 0a 0b 0c 0d 0e 0f
--------  -- -- -- -- -- -- -- -- -- -- -- -- -- -- -- --
  8069a0  00 00 00 00 00 00 00 00 00 80 69 f8 10 82 db 80
  8069b0  b2 e7 bd 69 c0 00 00 00 00 00 03 00 00 00 00 00
  8069c0  00 00 00 00 00 00 03 00 00 00 00 01 72

-------------------------------------------------------------------------------
     Signo   Sender     Addr    Owner Pool Req. Size Real Size
---------- -------- -------- -------- ---- --------- ---------
         0 00000004 00000004 00000004    0        44        48

Hex Addr  00 01 02 03 04 05 06 07 08 09 0a 0b 0c 0d 0e 0f
--------  -- -- -- -- -- -- -- -- -- -- -- -- -- -- -- --
  8069f8  00 00 00 00 00 00 00 00 00 80 6a 50 10 82 df 00
  806a08  9c 70 b7 ff c0 00 00 00 00 00 03 00 00 00 00 00
  806a18  00 00 00 00 00 00 03 00 00 00 00 01 72

-------------------------------------------------------------------------------
     Signo   Sender     Addr    Owner Pool Req. Size Real Size
---------- -------- -------- -------- ---- --------- ---------
         0 00000004 00000004 00000004    0        44        48

Hex Addr  00 01 02 03 04 05 06 07 08 09 0a 0b 0c 0d 0e 0f
--------  -- -- -- -- -- -- -- -- -- -- -- -- -- -- -- --
  806a50  00 00 00 00 00 00 00 00 00 80 6a a8 10 82 e2 80
  806a60  ba d9 e0 5a c0 00 00 00 00 00 03 00 00 00 00 00
  806a70  00 00 00 00 00 00 03 00 00 00 00 01 72

-------------------------------------------------------------------------------
     Signo   Sender     Addr    Owner Pool Req. Size Real Size
---------- -------- -------- -------- ---- --------- ---------
         0 00000004 00000004 00000004    0        44        48

Hex Addr  00 01 02 03 04 05 06 07 08 09 0a 0b 0c 0d 0e 0f
--------  -- -- -- -- -- -- -- -- -- -- -- -- -- -- -- --
  806aa8  00 00 00 00 00 00 00 00 00 80 6b 00 10 82 e6 00
  806ab8  ac 75 58 da c0 00 00 00 00 00 03 00 00 00 00 00
  806ac8  00 00 00 00 00 00 03 00 00 00 00 01 72

-------------------------------------------------------------------------------
     Signo   Sender     Addr    Owner Pool Req. Size Real Size
---------- -------- -------- -------- ---- --------- ---------
         0 00000004 00000004 00000004    0        44        48

Hex Addr  00 01 02 03 04 05 06 07 08 09 0a 0b 0c 0d 0e 0f
--------  -- -- -- -- -- -- -- -- -- -- -- -- -- -- -- --
  806b00  00 00 00 00 00 00 00 00 00 80 6b 58 10 82 e9 80
  806b10  f3 26 3d 31 c0 00 00 00 00 00 03 00 00 00 00 00
  806b20  00 00 00 00 00 00 03 00 00 00 00 01 72

-------------------------------------------------------------------------------
     Signo   Sender     Addr    Owner Pool Req. Size Real Size
---------- -------- -------- -------- ---- --------- ---------
         0 00000004 00000004 00000004    0        44        48

Hex Addr  00 01 02 03 04 05 06 07 08 09 0a 0b 0c 0d 0e 0f
--------  -- -- -- -- -- -- -- -- -- -- -- -- -- -- -- --
  806b58  00 00 00 00 00 00 00 00 00 80 6b b0 10 82 ed 00
  806b68  3e 7d 02 a4 c0 00 00 00 00 00 03 00 00 00 00 00
  806b78  00 00 00 00 00 00 03 00 00 00 00 01 72

-------------------------------------------------------------------------------
     Signo   Sender     Addr    Owner Pool Req. Size Real Size
---------- -------- -------- -------- ---- --------- ---------
         0 00000004 00000004 00000004    0        44        48

Hex Addr  00 01 02 03 04 05 06 07 08 09 0a 0b 0c 0d 0e 0f
--------  -- -- -- -- -- -- -- -- -- -- -- -- -- -- -- --
  806bb0  00 00 00 00 00 00 00 00 00 80 6c 08 10 82 f0 80
  806bc0  6c 7f 2b d3 c0 00 00 00 00 00 03 00 00 00 00 00
  806bd0  00 00 00 00 00 00 03 00 00 00 00 01 72

-------------------------------------------------------------------------------
     Signo   Sender     Addr    Owner Pool Req. Size Real Size
---------- -------- -------- -------- ---- --------- ---------
         0 00000004 00000004 00000004    0        44        48

Hex Addr  00 01 02 03 04 05 06 07 08 09 0a 0b 0c 0d 0e 0f
--------  -- -- -- -- -- -- -- -- -- -- -- -- -- -- -- --
  806c08  00 00 00 00 00 00 00 00 00 80 6c 60 10 82 f4 00
  806c18  ce f9 92 9f c0 00 00 00 00 00 03 00 00 00 00 00
  806c28  00 00 00 00 00 00 03 00 00 00 00 01 72

-------------------------------------------------------------------------------
     Signo   Sender     Addr    Owner Pool Req. Size Real Size
---------- -------- -------- -------- ---- --------- ---------
         0 00000004 00000004 00000004    0        44        48

Hex Addr  00 01 02 03 04 05 06 07 08 09 0a 0b 0c 0d 0e 0f
--------  -- -- -- -- -- -- -- -- -- -- -- -- -- -- -- --
  806c60  00 00 00 00 00 00 00 00 00 80 6c b8 10 82 f7 80
  806c70  32 db dc 61 c0 00 00 00 00 00 03 00 00 00 00 00
  806c80  00 00 00 00 00 00 03 00 00 00 00 01 72

-------------------------------------------------------------------------------
     Signo   Sender     Addr    Owner Pool Req. Size Real Size
---------- -------- -------- -------- ---- --------- ---------
         0 00000004 00000004 00000004    0        44        48

Hex Addr  00 01 02 03 04 05 06 07 08 09 0a 0b 0c 0d 0e 0f
--------  -- -- -- -- -- -- -- -- -- -- -- -- -- -- -- --
  806cb8  00 00 00 00 00 00 00 00 00 80 6d 10 10 82 fb 00
  806cc8  75 b2 69 eb c0 00 00 00 00 00 03 00 00 00 00 00
  806cd8  00 00 00 00 00 00 03 00 00 00 00 01 72

-------------------------------------------------------------------------------
     Signo   Sender     Addr    Owner Pool Req. Size Real Size
---------- -------- -------- -------- ---- --------- ---------
         0 00000004 00000004 00000004    0        44        48

Hex Addr  00 01 02 03 04 05 06 07 08 09 0a 0b 0c 0d 0e 0f
--------  -- -- -- -- -- -- -- -- -- -- -- -- -- -- -- --
  806d10  00 00 00 00 00 00 00 00 00 80 6d 68 10 82 fe 80
  806d20  ee c9 5e 49 c0 00 00 00 00 00 03 00 00 00 00 00
  806d30  00 00 00 00 00 00 03 00 00 00 00 01 72

-------------------------------------------------------------------------------
     Signo   Sender     Addr    Owner Pool Req. Size Real Size
---------- -------- -------- -------- ---- --------- ---------
         0 00000004 00000004 00000004    0        44        48

Hex Addr  00 01 02 03 04 05 06 07 08 09 0a 0b 0c 0d 0e 0f
--------  -- -- -- -- -- -- -- -- -- -- -- -- -- -- -- --
  806d68  00 00 00 00 00 00 00 00 00 80 6d c0 10 83 02 00
  806d78  4d 95 2a 58 c0 00 00 00 00 00 03 00 00 00 00 00
  806d88  00 00 00 00 00 00 03 00 00 00 00 01 72

-------------------------------------------------------------------------------
     Signo   Sender     Addr    Owner Pool Req. Size Real Size
---------- -------- -------- -------- ---- --------- ---------
         0 00000004 00000004 00000004    0        44        48

Hex Addr  00 01 02 03 04 05 06 07 08 09 0a 0b 0c 0d 0e 0f
--------  -- -- -- -- -- -- -- -- -- -- -- -- -- -- -- --
  806dc0  00 00 00 00 00 00 00 00 00 80 6e 18 10 83 05 80
  806dd0  04 f0 24 52 c0 00 00 00 00 00 03 00 00 00 00 00
  806de0  00 00 00 00 00 00 03 00 00 00 00 01 72

-------------------------------------------------------------------------------
     Signo   Sender     Addr    Owner Pool Req. Size Real Size
---------- -------- -------- -------- ---- --------- ---------
         0 00000004 00000004 00000004    0        44        48

Hex Addr  00 01 02 03 04 05 06 07 08 09 0a 0b 0c 0d 0e 0f
--------  -- -- -- -- -- -- -- -- -- -- -- -- -- -- -- --
  806e18  00 00 00 00 00 00 00 00 00 80 6e 70 10 83 09 00
  806e28  b8 2c 16 50 c0 00 00 00 00 00 03 00 00 00 00 00
  806e38  00 00 00 00 00 00 03 00 00 00 00 01 72

-------------------------------------------------------------------------------
     Signo   Sender     Addr    Owner Pool Req. Size Real Size
---------- -------- -------- -------- ---- --------- ---------
         0 00000004 00000004 00000004    0        44        48

Hex Addr  00 01 02 03 04 05 06 07 08 09 0a 0b 0c 0d 0e 0f
--------  -- -- -- -- -- -- -- -- -- -- -- -- -- -- -- --
  806e70  00 00 00 00 00 00 00 00 00 80 6e c8 10 83 0c 80
  806e80  87 c9 dc e5 c0 00 00 00 00 00 03 00 00 00 00 00
  806e90  00 00 00 00 00 00 03 00 00 00 00 01 72

-------------------------------------------------------------------------------
     Signo   Sender     Addr    Owner Pool Req. Size Real Size
---------- -------- -------- -------- ---- --------- ---------
         0 00000004 00000004 00000004    0        44        48

Hex Addr  00 01 02 03 04 05 06 07 08 09 0a 0b 0c 0d 0e 0f
--------  -- -- -- -- -- -- -- -- -- -- -- -- -- -- -- --
  806ec8  00 00 00 00 00 00 00 00 00 80 6f 20 10 83 10 00
  806ed8  f8 9d 59 74 c0 00 00 00 00 00 03 00 00 00 00 00
  806ee8  00 00 00 00 00 00 03 00 00 00 00 01 72

-------------------------------------------------------------------------------
     Signo   Sender     Addr    Owner Pool Req. Size Real Size
---------- -------- -------- -------- ---- --------- ---------
         0 00000004 00000004 00000004    0        44        48

Hex Addr  00 01 02 03 04 05 06 07 08 09 0a 0b 0c 0d 0e 0f
--------  -- -- -- -- -- -- -- -- -- -- -- -- -- -- -- --
  806f20  00 00 00 00 00 00 00 00 00 80 6f 78 10 83 13 80
  806f30  be 07 cb 38 c0 00 00 00 00 00 03 00 00 00 00 00
  806f40  00 00 00 00 00 00 03 00 00 00 00 01 72

-------------------------------------------------------------------------------
     Signo   Sender     Addr    Owner Pool Req. Size Real Size
---------- -------- -------- -------- ---- --------- ---------
         0 00000004 00000004 00000004    0        44        48

Hex Addr  00 01 02 03 04 05 06 07 08 09 0a 0b 0c 0d 0e 0f
--------  -- -- -- -- -- -- -- -- -- -- -- -- -- -- -- --
  806f78  00 00 00 00 00 00 00 00 00 80 6f d0 10 83 17 00
  806f88  3b 29 2c b6 c0 00 00 00 00 00 03 00 00 00 00 00
  806f98  00 00 00 00 00 00 03 00 00 00 00 01 72

-------------------------------------------------------------------------------
     Signo   Sender     Addr    Owner Pool Req. Size Real Size
---------- -------- -------- -------- ---- --------- ---------
         0 00000004 00000004 00000004    0        44        48

Hex Addr  00 01 02 03 04 05 06 07 08 09 0a 0b 0c 0d 0e 0f
--------  -- -- -- -- -- -- -- -- -- -- -- -- -- -- -- --
  806fd0  00 00 00 00 00 00 00 00 00 80 70 28 10 83 1a 80
  806fe0  ef 7e 3b 2f c0 00 00 00 00 00 03 00 00 00 00 00
  806ff0  00 00 00 00 00 00 03 00 00 00 00 01 72

-------------------------------------------------------------------------------
     Signo   Sender     Addr    Owner Pool Req. Size Real Size
---------- -------- -------- -------- ---- --------- ---------
         0 00000004 00000004 00000004    0        44        48

Hex Addr  00 01 02 03 04 05 06 07 08 09 0a 0b 0c 0d 0e 0f
--------  -- -- -- -- -- -- -- -- -- -- -- -- -- -- -- --
  807028  00 00 00 00 00 00 00 00 00 80 70 80 10 83 1e 00
  807038  f3 58 66 e8 c0 00 00 00 00 00 03 00 00 00 00 00
  807048  00 00 00 00 00 00 03 00 00 00 00 01 72

-------------------------------------------------------------------------------
     Signo   Sender     Addr    Owner Pool Req. Size Real Size
---------- -------- -------- -------- ---- --------- ---------
         0 00000004 00000004 00000004    0        44        48

Hex Addr  00 01 02 03 04 05 06 07 08 09 0a 0b 0c 0d 0e 0f
--------  -- -- -- -- -- -- -- -- -- -- -- -- -- -- -- --
  807080  00 00 00 00 00 00 00 00 00 80 70 d8 10 83 21 80
  807090  06 70 a3 8e c0 00 00 00 00 00 03 00 00 00 00 00
  8070a0  00 00 00 00 00 00 03 00 00 00 00 01 72

-------------------------------------------------------------------------------
     Signo   Sender     Addr    Owner Pool Req. Size Real Size
---------- -------- -------- -------- ---- --------- ---------
         0 00000004 00000004 00000004    0        44        48

Hex Addr  00 01 02 03 04 05 06 07 08 09 0a 0b 0c 0d 0e 0f
--------  -- -- -- -- -- -- -- -- -- -- -- -- -- -- -- --
  8070d8  00 00 00 00 00 00 00 00 00 80 71 30 10 83 25 00
  8070e8  0d 48 1a ab c0 00 00 00 00 00 03 00 00 00 00 00
  8070f8  00 00 00 00 00 00 03 00 00 00 00 01 72

-------------------------------------------------------------------------------
     Signo   Sender     Addr    Owner Pool Req. Size Real Size
---------- -------- -------- -------- ---- --------- ---------
         0 00000004 00000004 00000004    0        44        48

Hex Addr  00 01 02 03 04 05 06 07 08 09 0a 0b 0c 0d 0e 0f
--------  -- -- -- -- -- -- -- -- -- -- -- -- -- -- -- --
  807130  00 00 00 00 00 00 00 00 00 80 71 88 10 83 28 80
  807140  35 3d 03 0f c0 00 00 00 00 00 03 00 00 00 00 00
  807150  00 00 00 00 00 00 03 00 00 00 00 01 72

-------------------------------------------------------------------------------
     Signo   Sender     Addr    Owner Pool Req. Size Real Size
---------- -------- -------- -------- ---- --------- ---------
         0 00000004 00000004 00000004    0        44        48

Hex Addr  00 01 02 03 04 05 06 07 08 09 0a 0b 0c 0d 0e 0f
--------  -- -- -- -- -- -- -- -- -- -- -- -- -- -- -- --
  807188  00 00 00 00 00 00 00 00 00 80 71 e0 10 83 2c 00
  807198  d8 c1 72 dd c0 00 00 00 00 00 03 00 00 00 00 00
  8071a8  00 00 00 00 00 00 03 00 00 00 00 01 72

-------------------------------------------------------------------------------
     Signo   Sender     Addr    Owner Pool Req. Size Real Size
---------- -------- -------- -------- ---- --------- ---------
         0 00000004 00000004 00000004    0        44        48

Hex Addr  00 01 02 03 04 05 06 07 08 09 0a 0b 0c 0d 0e 0f
--------  -- -- -- -- -- -- -- -- -- -- -- -- -- -- -- --
  8071e0  00 00 00 00 00 00 00 00 00 80 72 38 10 83 2f 80
  8071f0  9f 84 7f f7 c0 00 00 00 00 00 03 00 00 00 00 00
  807200  00 00 00 00 00 00 03 00 00 00 00 01 72

-------------------------------------------------------------------------------
     Signo   Sender     Addr    Owner Pool Req. Size Real Size
---------- -------- -------- -------- ---- --------- ---------
         0 00000004 00000004 00000004    0        44        48

Hex Addr  00 01 02 03 04 05 06 07 08 09 0a 0b 0c 0d 0e 0f
--------  -- -- -- -- -- -- -- -- -- -- -- -- -- -- -- --
  807238  00 00 00 00 00 00 00 00 00 80 72 90 10 83 33 00
  807248  72 19 cc 8c c0 00 00 00 00 00 03 00 00 00 00 00
  807258  00 00 00 00 00 00 03 00 00 00 00 01 72

-------------------------------------------------------------------------------
     Signo   Sender     Addr    Owner Pool Req. Size Real Size
---------- -------- -------- -------- ---- --------- ---------
         0 00000004 00000004 00000004    0        44        48

Hex Addr  00 01 02 03 04 05 06 07 08 09 0a 0b 0c 0d 0e 0f
--------  -- -- -- -- -- -- -- -- -- -- -- -- -- -- -- --
  807290  00 00 00 00 00 00 00 00 00 80 72 e8 10 83 36 80
  8072a0  4d 94 20 31 c0 00 00 00 00 00 03 00 00 00 00 00
  8072b0  00 00 00 00 00 00 03 00 00 00 00 01 72

-------------------------------------------------------------------------------
     Signo   Sender     Addr    Owner Pool Req. Size Real Size
---------- -------- -------- -------- ---- --------- ---------
         0 00000004 00000004 00000004    0        44        48

Hex Addr  00 01 02 03 04 05 06 07 08 09 0a 0b 0c 0d 0e 0f
--------  -- -- -- -- -- -- -- -- -- -- -- -- -- -- -- --
  8072e8  00 00 00 00 00 00 00 00 00 80 73 40 10 83 3a 00
  8072f8  7b 18 19 81 c0 00 00 00 00 00 03 00 00 00 00 00
  807308  00 00 00 00 00 00 03 00 00 00 00 01 72

-------------------------------------------------------------------------------
     Signo   Sender     Addr    Owner Pool Req. Size Real Size
---------- -------- -------- -------- ---- --------- ---------
         0 00000004 00000004 00000004    0        44        48

Hex Addr  00 01 02 03 04 05 06 07 08 09 0a 0b 0c 0d 0e 0f
--------  -- -- -- -- -- -- -- -- -- -- -- -- -- -- -- --
  807340  00 00 00 00 00 00 00 00 00 80 73 98 10 83 3d 80
  807350  3b 72 f8 21 c0 00 00 00 00 00 03 00 00 00 00 00
  807360  00 00 00 00 00 00 03 00 00 00 00 01 72

-------------------------------------------------------------------------------
     Signo   Sender     Addr    Owner Pool Req. Size Real Size
---------- -------- -------- -------- ---- --------- ---------
         0 00000004 00000004 00000004    0        44        48

Hex Addr  00 01 02 03 04 05 06 07 08 09 0a 0b 0c 0d 0e 0f
--------  -- -- -- -- -- -- -- -- -- -- -- -- -- -- -- --
  807398  00 00 00 00 00 00 00 00 00 80 73 f0 10 83 41 00
  8073a8  ef 10 cc 17 c0 00 00 00 00 00 03 00 00 00 00 00
  8073b8  00 00 00 00 00 00 03 00 00 00 00 01 72

-------------------------------------------------------------------------------
     Signo   Sender     Addr    Owner Pool Req. Size Real Size
---------- -------- -------- -------- ---- --------- ---------
         0 00000004 00000004 00000004    0        44        48

Hex Addr  00 01 02 03 04 05 06 07 08 09 0a 0b 0c 0d 0e 0f
--------  -- -- -- -- -- -- -- -- -- -- -- -- -- -- -- --
  8073f0  00 00 00 00 00 00 00 00 00 80 74 48 10 83 44 80
  807400  11 4c 2f c1 c0 00 00 00 00 00 03 00 00 00 00 00
  807410  00 00 00 00 00 00 03 00 00 00 00 01 72

-------------------------------------------------------------------------------
     Signo   Sender     Addr    Owner Pool Req. Size Real Size
---------- -------- -------- -------- ---- --------- ---------
         0 00000004 00000004 00000004    0        44        48

Hex Addr  00 01 02 03 04 05 06 07 08 09 0a 0b 0c 0d 0e 0f
--------  -- -- -- -- -- -- -- -- -- -- -- -- -- -- -- --
  807448  00 00 00 00 00 00 00 00 00 80 74 a0 10 83 48 00
  807458  ae 25 9b 9e c0 00 00 00 00 00 03 00 00 00 00 00
  807468  00 00 00 00 00 00 03 00 00 00 00 01 72

-------------------------------------------------------------------------------
     Signo   Sender     Addr    Owner Pool Req. Size Real Size
---------- -------- -------- -------- ---- --------- ---------
         0 00000004 00000004 00000004    0        44        48

Hex Addr  00 01 02 03 04 05 06 07 08 09 0a 0b 0c 0d 0e 0f
--------  -- -- -- -- -- -- -- -- -- -- -- -- -- -- -- --
  8074a0  00 00 00 00 00 00 00 00 00 80 74 f8 10 83 4b 80
  8074b0  a1 5f bd fc c0 00 00 00 00 00 03 00 00 00 00 00
  8074c0  00 00 00 00 00 00 03 00 00 00 00 01 72

-------------------------------------------------------------------------------
     Signo   Sender     Addr    Owner Pool Req. Size Real Size
---------- -------- -------- -------- ---- --------- ---------
         0 00000004 00000004 00000004    0        44        48

Hex Addr  00 01 02 03 04 05 06 07 08 09 0a 0b 0c 0d 0e 0f
--------  -- -- -- -- -- -- -- -- -- -- -- -- -- -- -- --
  8074f8  00 00 00 00 00 00 00 00 00 80 75 50 10 83 4f 00
  807508  21 d7 fa 9f c0 00 00 00 00 00 03 00 00 00 00 00
  807518  00 00 00 00 00 00 03 00 00 00 00 01 72

-------------------------------------------------------------------------------
     Signo   Sender     Addr    Owner Pool Req. Size Real Size
---------- -------- -------- -------- ---- --------- ---------
         0 00000004 00000004 00000004    0        44        48

Hex Addr  00 01 02 03 04 05 06 07 08 09 0a 0b 0c 0d 0e 0f
--------  -- -- -- -- -- -- -- -- -- -- -- -- -- -- -- --
  807550  00 00 00 00 00 00 00 00 00 80 75 a8 10 83 52 80
  807560  f8 fb d6 fe c0 00 00 00 00 00 03 00 00 00 00 00
  807570  00 00 00 00 00 00 03 00 00 00 00 01 72

-------------------------------------------------------------------------------
     Signo   Sender     Addr    Owner Pool Req. Size Real Size
---------- -------- -------- -------- ---- --------- ---------
         0 00000004 00000004 00000004    0        44        48

Hex Addr  00 01 02 03 04 05 06 07 08 09 0a 0b 0c 0d 0e 0f
--------  -- -- -- -- -- -- -- -- -- -- -- -- -- -- -- --
  8075a8  00 00 00 00 00 00 00 00 00 80 67 90 10 83 56 00
  8075b8  0c 2d 5c 09 c0 00 00 00 00 00 03 00 00 00 00 00
  8075c8  00 00 00 00 00 00 03 00 00 00 00 01 72

-------------------------------------------------------------------------------
     Signo   Sender     Addr    Owner Pool Req. Size Real Size
---------- -------- -------- -------- ---- --------- ---------
   8419376 00000004 00000004 00000004    0       172       200

Hex Addr  00 01 02 03 04 05 06 07 08 09 0a 0b 0c 0d 0e 0f
--------  -- -- -- -- -- -- -- -- -- -- -- -- -- -- -- --
  807740  00 80 78 30 00 80 62 08 00 04 00 01 00 00 00 07
  807750  0f a2 00 00 0f a2 0f a2 0f a3 ff ff ff ff 00 00
  807760  00 00 89 01 00 80 a3 68 00 00 00 00 00 00 00 00
  807770  00 00 00 00 00 00 00 00 00 00 00 00 00 00 00 00
  807780  00 00 00 00 00 00 00 00 00 00 00 00 00 00 00 00
  807790  00 00 00 00 00 00 00 00 00 00 00 00 00 00 00 00
  8077a0  00 00 00 00 00 00 00 00 00 00 00 00 00 00 00 00
  8077b0  00 80 a3 68 00 00 00 00 00 00 00 00 00 00 00 00
  8077c0  00 00 00 00 00 00 00 00 00 00 00 00 00 00 00 00
  8077d0  00 00 00 00 00 00 00 00 00 00 0b 4f 00 00 00 00
  8077e0  00 00 00 00 00 00 00 00 00 00 00 00 72

-------------------------------------------------------------------------------
     Signo   Sender     Addr    Owner Pool Req. Size Real Size
---------- -------- -------- -------- ---- --------- ---------
         0 00000004 00000004 00000004    0       172       200

Hex Addr  00 01 02 03 04 05 06 07 08 09 0a 0b 0c 0d 0e 0f
--------  -- -- -- -- -- -- -- -- -- -- -- -- -- -- -- --
  807830  00 00 00 00 00 80 62 08 00 05 00 01 00 00 00 00
  807840  0f a3 00 00 0f a3 0f a3 ff ff ff ff ff ff 00 00
  807850  00 00 00 00 00 00 00 00 00 00 00 00 00 00 00 00
  807860  00 00 00 00 00 00 00 00 00 00 00 00 00 00 00 00
  807870  00 00 00 00 00 00 00 00 00 00 00 00 00 00 00 00
  807880  00 00 00 00 00 00 00 00 00 00 00 00 00 00 00 00
  807890  00 00 00 00 00 00 00 00 00 00 00 00 00 00 00 00
  8078a0  00 00 00 00 00 00 00 00 00 00 00 00 00 00 00 00
  8078b0  00 00 00 00 00 00 00 00 00 00 00 00 00 00 00 00
  8078c0  00 00 00 00 00 00 00 00 00 00 00 00 00 00 00 00
  8078d0  00 00 00 00 00 00 00 00 00 00 00 00 72

-------------------------------------------------------------------------------
     Signo   Sender     Addr    Owner Pool Req. Size Real Size
---------- -------- -------- -------- ---- --------- ---------
   8400440 00000004 00000004 00000004    0        28        48

Hex Addr  00 01 02 03 04 05 06 07 08 09 0a 0b 0c 0d 0e 0f
--------  -- -- -- -- -- -- -- -- -- -- -- -- -- -- -- --
  807920  00 80 2e 38 00 80 2e 38 00 00 07 d0 00 00 03 e8
  807930  e1 0b 24 e8 00 00 00 00 80 00 00 01 72

-------------------------------------------------------------------------------
     Signo   Sender     Addr    Owner Pool Req. Size Real Size
---------- -------- -------- -------- ---- --------- ---------
3828709024 00000004 00000004 00000004    5        24        32

Hex Addr  00 01 02 03 04 05 06 07 08 09 0a 0b 0c 0d 0e 0f
--------  -- -- -- -- -- -- -- -- -- -- -- -- -- -- -- --
e43550a8  e4 35 76 a0 e4 35 a2 a0 ff ff ff ff e7 f3 79 c0
e43550b8  bf af 77 fa d9 b9 e4 b6 72

-------------------------------------------------------------------------------
     Signo   Sender     Addr    Owner Pool Req. Size Real Size
---------- -------- -------- -------- ---- --------- ---------
3828720288 00000004 00000004 00000004    5        24        32

Hex Addr  00 01 02 03 04 05 06 07 08 09 0a 0b 0c 0d 0e 0f
--------  -- -- -- -- -- -- -- -- -- -- -- -- -- -- -- --
e43550f0  e4 35 a2 a0 e4 35 61 60 00 00 00 20 00 00 00 0d
e4355100  e1 0a 90 00 00 00 00 00 72

-------------------------------------------------------------------------------
     Signo   Sender     Addr    Owner Pool Req. Size Real Size
---------- -------- -------- -------- ---- --------- ---------
3828699376 00000004 00000004 00000004    5        24        32

Hex Addr  00 01 02 03 04 05 06 07 08 09 0a 0b 0c 0d 0e 0f
--------  -- -- -- -- -- -- -- -- -- -- -- -- -- -- -- --
e4356160  e4 35 50 f0 e4 35 76 a0 00 00 00 02 00 00 00 25
e4356170  e1 0b 64 7a 00 84 eb e0 72

-------------------------------------------------------------------------------
     Signo   Sender     Addr    Owner Pool Req. Size Real Size
---------- -------- -------- -------- ---- --------- ---------
   1048572 00000004 00000004 00000004    5         4        16

Hex Addr  00 01 02 03 04 05 06 07 08 09 0a 0b 0c 0d 0e 0f
--------  -- -- -- -- -- -- -- -- -- -- -- -- -- -- -- --
e4356810  00 0f ff fc 72

-------------------------------------------------------------------------------
     Signo   Sender     Addr    Owner Pool Req. Size Real Size
---------- -------- -------- -------- ---- --------- ---------
3828703584 00000004 00000004 00000004    5        24        32

Hex Addr  00 01 02 03 04 05 06 07 08 09 0a 0b 0c 0d 0e 0f
--------  -- -- -- -- -- -- -- -- -- -- -- -- -- -- -- --
e43576a0  e4 35 61 60 e4 35 50 a8 00 00 00 02 00 00 00 25
e43576b0  e1 0b 64 7a 00 84 ec 68 72

-------------------------------------------------------------------------------
     Signo   Sender     Addr    Owner Pool Req. Size Real Size
---------- -------- -------- -------- ---- --------- ---------
3828699304 00000004 00000004 00000004    5        24        32

Hex Addr  00 01 02 03 04 05 06 07 08 09 0a 0b 0c 0d 0e 0f
--------  -- -- -- -- -- -- -- -- -- -- -- -- -- -- -- --
e435a2a0  e4 35 50 a8 e4 35 50 f0 00 00 00 80 00 00 00 18
e435a2b0  e1 0d d9 2c 00 00 00 00 72

-------------------------------------------------------------------------------

Signals in Signal Queues
------------------------

The process does not have any signals in its queue.

Summary
-------

Number of signal buffers: Owned = 109, Queue = 0, Total = 109

===============================================================================
Process: Pid = 00000005, ose_sysd
Owned Signals
-------------

     Signo   Sender     Addr    Owner Pool Req. Size Real Size
---------- -------- -------- -------- ---- --------- ---------
     16134 00000001 00000005 00000005    0        32        48

Hex Addr  00 01 02 03 04 05 06 07 08 09 0a 0b 0c 0d 0e 0f
--------  -- -- -- -- -- -- -- -- -- -- -- -- -- -- -- --
  807d90  00 00 3f 06 00 00 fa ef 00 00 00 40 65 74 68 30
  807da0  5f 76 6c 61 6e 5f 6c 69 6e 6b 30 2f 00 00 01 e4
  807db0  72

-------------------------------------------------------------------------------
     Signo   Sender     Addr    Owner Pool Req. Size Real Size
---------- -------- -------- -------- ---- --------- ---------
     16134 00000001 00000005 00000005    0        31        48

Hex Addr  00 01 02 03 04 05 06 07 08 09 0a 0b 0c 0d 0e 0f
--------  -- -- -- -- -- -- -- -- -- -- -- -- -- -- -- --
  8134b8  00 00 3f 06 00 00 fa ef 00 00 00 49 64 6d 73 5f
  8134c8  64 6d 73 5f 6c 69 6e 6b 5f 30 2f 00 6e 6b 30 72

-------------------------------------------------------------------------------
     Signo   Sender     Addr    Owner Pool Req. Size Real Size
---------- -------- -------- -------- ---- --------- ---------
     28809 0000000f 00000042 00000005    4        12       128

Hex Addr  00 01 02 03 04 05 06 07 08 09 0a 0b 0c 0d 0e 0f
--------  -- -- -- -- -- -- -- -- -- -- -- -- -- -- -- --
e1301548  00 00 70 89 00 00 00 60 00 60 00 01 72

-------------------------------------------------------------------------------
     Signo   Sender     Addr    Owner Pool Req. Size Real Size
---------- -------- -------- -------- ---- --------- ---------
     28809 0000000f 00000019 00000005    4        12       128

Hex Addr  00 01 02 03 04 05 06 07 08 09 0a 0b 0c 0d 0e 0f
--------  -- -- -- -- -- -- -- -- -- -- -- -- -- -- -- --
e1319068  00 00 70 89 13 57 9a ce 01 00 53 00 72

-------------------------------------------------------------------------------
     Signo   Sender     Addr    Owner Pool Req. Size Real Size
---------- -------- -------- -------- ---- --------- ---------
     28809 0000000f 00000019 00000005    4        12       128

Hex Addr  00 01 02 03 04 05 06 07 08 09 0a 0b 0c 0d 0e 0f
--------  -- -- -- -- -- -- -- -- -- -- -- -- -- -- -- --
e1319110  00 00 70 89 87 65 43 21 01 00 64 00 72

-------------------------------------------------------------------------------
     Signo   Sender     Addr    Owner Pool Req. Size Real Size
---------- -------- -------- -------- ---- --------- ---------
     25155 00000019 00000047 00000005    4         4       128

Hex Addr  00 01 02 03 04 05 06 07 08 09 0a 0b 0c 0d 0e 0f
--------  -- -- -- -- -- -- -- -- -- -- -- -- -- -- -- --
e13191b8  00 00 62 43 72

-------------------------------------------------------------------------------
     Signo   Sender     Addr    Owner Pool Req. Size Real Size
---------- -------- -------- -------- ---- --------- ---------
     28809 0000000f 00000019 00000005    4        12       128

Hex Addr  00 01 02 03 04 05 06 07 08 09 0a 0b 0c 0d 0e 0f
--------  -- -- -- -- -- -- -- -- -- -- -- -- -- -- -- --
e131ab58  00 00 70 89 12 34 56 78 01 02 00 60 72

-------------------------------------------------------------------------------
     Signo   Sender     Addr    Owner Pool Req. Size Real Size
---------- -------- -------- -------- ---- --------- ---------
     25797 0000001b 00000042 00000005    4         4       128

Hex Addr  00 01 02 03 04 05 06 07 08 09 0a 0b 0c 0d 0e 0f
--------  -- -- -- -- -- -- -- -- -- -- -- -- -- -- -- --
e131ac00  00 00 64 c5 72

-------------------------------------------------------------------------------
     Signo   Sender     Addr    Owner Pool Req. Size Real Size
---------- -------- -------- -------- ---- --------- ---------
     25161 00000019 00000048 00000005    4         4       128

Hex Addr  00 01 02 03 04 05 06 07 08 09 0a 0b 0c 0d 0e 0f
--------  -- -- -- -- -- -- -- -- -- -- -- -- -- -- -- --
e131aca8  00 00 62 49 72

-------------------------------------------------------------------------------
     Signo   Sender     Addr    Owner Pool Req. Size Real Size
---------- -------- -------- -------- ---- --------- ---------
     25156 00000019 00000042 00000005    4         4       128

Hex Addr  00 01 02 03 04 05 06 07 08 09 0a 0b 0c 0d 0e 0f
--------  -- -- -- -- -- -- -- -- -- -- -- -- -- -- -- --
e131ad50  00 00 62 44 72

-------------------------------------------------------------------------------
     Signo   Sender     Addr    Owner Pool Req. Size Real Size
---------- -------- -------- -------- ---- --------- ---------
     25794 0000001b 00000047 00000005    4         4       128

Hex Addr  00 01 02 03 04 05 06 07 08 09 0a 0b 0c 0d 0e 0f
--------  -- -- -- -- -- -- -- -- -- -- -- -- -- -- -- --
e131b698  00 00 64 c2 72

-------------------------------------------------------------------------------
     Signo   Sender     Addr    Owner Pool Req. Size Real Size
---------- -------- -------- -------- ---- --------- ---------
     25729 0000001d 00000044 00000005    4         4       128

Hex Addr  00 01 02 03 04 05 06 07 08 09 0a 0b 0c 0d 0e 0f
--------  -- -- -- -- -- -- -- -- -- -- -- -- -- -- -- --
e131b740  00 00 64 81 72

-------------------------------------------------------------------------------
     Signo   Sender     Addr    Owner Pool Req. Size Real Size
---------- -------- -------- -------- ---- --------- ---------
     28680 00000013 00000043 00000005    4         4       128

Hex Addr  00 01 02 03 04 05 06 07 08 09 0a 0b 0c 0d 0e 0f
--------  -- -- -- -- -- -- -- -- -- -- -- -- -- -- -- --
e131c4d8  00 00 70 08 72

-------------------------------------------------------------------------------
     Signo   Sender     Addr    Owner Pool Req. Size Real Size
---------- -------- -------- -------- ---- --------- ---------
     81948 00000004 00000046 00000005    5        44       128

Hex Addr  00 01 02 03 04 05 06 07 08 09 0a 0b 0c 0d 0e 0f
--------  -- -- -- -- -- -- -- -- -- -- -- -- -- -- -- --
e43568f0  00 01 40 1c 00 00 00 00 65 74 68 30 5f 76 6c 61
e4356900  6e 5f 6c 69 6e 6b 30 2f 64 6d 70 5f 66 69 6c 65
e4356910  5f 61 63 63 65 73 73 00 b3 bf fd f7 72

-------------------------------------------------------------------------------
     Signo   Sender     Addr    Owner Pool Req. Size Real Size
---------- -------- -------- -------- ---- --------- ---------
     81932 00000004 00000045 00000005    5        36       128

Hex Addr  00 01 02 03 04 05 06 07 08 09 0a 0b 0c 0d 0e 0f
--------  -- -- -- -- -- -- -- -- -- -- -- -- -- -- -- --
e4359da0  00 01 40 0c 00 00 00 00 65 74 68 30 5f 76 6c 61
e4359db0  6e 5f 6c 69 6e 6b 30 2f 64 6d 70 5f 6d 61 69 6e
e4359dc0  00 00 50 9a 72

-------------------------------------------------------------------------------

Signals in Signal Queues
------------------------

The process does not have any signals in its queue.

Summary
-------

Number of signal buffers: Owned = 15, Queue = 0, Total = 15

===============================================================================
Process: Pid = 00000006, dp_text
Owned Signals
-------------

     Signo   Sender     Addr    Owner Pool Req. Size Real Size
---------- -------- -------- -------- ---- --------- ---------
3828705744 00000006 00000006 00000006    5       544      1600

Hex Addr  00 01 02 03 04 05 06 07 08 09 0a 0b 0c 0d 0e 0f
--------  -- -- -- -- -- -- -- -- -- -- -- -- -- -- -- --
e43561a8  e4 35 69 d0 45 52 52 4f 52 00 f7 19 ff ff ff ff
e43561b8  d5 7f 5b fe 00 cf ef fd 73 b9 ff f7 ea 9e 55 eb
e43561c8  2e de 54 8e 46 41 54 41 4c 00 76 7c f3 f7 7d ff
e43561d8  eb 8f 7c ef 4d 41 4a 4f 52 00 78 ea f5 5a 7f de
e43561e8  e1 95 ff fc 4d 49 4e 4f 52 00 f5 bf ee be e3 8e
e43561f8  fb fb e3 d7 57 41 52 4e 49 4e 47 00 f3 b7 bf fc
e4356208  e3 3f af 3f 00 77 df fb fd fe 96 9f f5 6d df eb
e4356218  7f a7 fb fa 00 df be f5 e8 fb b7 ef e6 9c 56 9b
e4356228  fb ef da fd 00 7b f6 bf 7a be f6 2e f3 ff d8 7d
e4356238  5f ff b4 a3 00 e0 ff ce dd 5f 76 3b d5 db 7d ce
e4356248  76 ef fe 1e 00 5f 82 b5 e1 cf ac 6a cf eb b2 fe
e4356258  dc f7 6b b9 00 af fc f7 2d bd 3d df bf f7 f5 be
e4356268  9c b9 f5 fe 00 ba 97 59 ae f8 fd 7d 9f a6 ab de
e4356278  ef 7e 97 7b 00 b7 fc eb 85 ff be ba fe 23 96 cf
e4356288  bc 1f 60 ff 00 ff b7 bf f6 ca 75 df ff 7c f7 be
e4356298  7f df 7f ff 00 ff be df 7d f2 bb db 9b 16 ce ea
e43562a8  7f fe 2c f2 00 fb fd ab fc f6 f5 5b 37 7f df 7b
e43562b8  be db 4d eb 00 e7 9f de 7e ef f8 d9 ef 5f 3e dc
e43562c8  bf ff 9d 86 00 b6 f6 ff f7 ba f3 3f 3f ff f6 b3
e43562d8  ff ba 7b fc 00 df ff bf a7 fc 31 7b ff 9b e2 f1
e43562e8  ef d9 fc 6f 00 ff 8d 3b ce 7f de ff 8f 29 ba f3
e43562f8  3f 39 1d df 00 b7 fc fc 3f 7f 81 cf f0 bd ff b1
e4356308  3b 7a fa df 00 df fd 7b ff be ff 97 fa 5e 7d b6
e4356318  69 9f ed 6f 00 ef ff ff ee fb bc bb 26 af eb df
e4356328  6a f3 56 d6 00 fb df 1d fd 5a ef 9a 25 ed e4 fd
e4356338  73 fd bf 7b 00 fe 73 fd fd 9f 5a fe e7 fb f6 9f
e4356348  f7 e7 df 3f 00 ff 6f 5f f7 ee 77 7b ff a5 8f c7
e4356358  7f 7d fb d3 00 de 57 3d b7 ff 6c fe 6c 5e d0 fb
e4356368  6f bf 75 f3 00 ec f1 da ee 9a f6 db 57 73 ff d8
e4356378  dd df f6 0f 00 fe 9e fd 7f ff fc 8b 67 5b eb bf
e4356388  f0 4f 7f fd 00 fe ff fa cb 97 57 9b fe ff f3 a4
e4356398  cf b3 a4 df 00 9b bb df 3f a5 5a f9 f6 9a fc ae
e43563a8  bc 7f f7 f9 00 ce 76 ec ec fb e7 bb eb fb de f2
e43563b8  ff fb 5d 6b 00 00 00 00 00 00 00 1e 00 00 00 04
e43563c8  72

-------------------------------------------------------------------------------
     Signo   Sender     Addr    Owner Pool Req. Size Real Size
---------- -------- -------- -------- ---- --------- ---------
3828720792 00000006 00000006 00000006    5       544      1600

Hex Addr  00 01 02 03 04 05 06 07 08 09 0a 0b 0c 0d 0e 0f
--------  -- -- -- -- -- -- -- -- -- -- -- -- -- -- -- --
e43569d0  e4 35 a4 98 64 53 50 45 45 44 00 f1 af fa 37 f6
e43569e0  e9 65 e2 d1 64 70 5f 6d 61 69 6e 00 ff cd d5 31
e43569f0  df 9b f4 dd 64 70 5f 73 75 70 00 b1 7b 47 1f ad
e4356a00  cf ff f6 be 64 70 5f 74 65 78 74 00 9b 7d 3b c5
e4356a10  e3 d3 61 3e 00 bb 7e df ce ff f4 ff f8 73 b7 bd
e4356a20  2b bf fb ff 64 70 5f 64 69 61 67 6e 6f 73 74 69
e4356a30  63 73 00 ff 00 f6 98 bf de fa db d7 fd ff 47 b9
e4356a40  ef fe ae ef 00 ad eb ff 77 bf 47 ff 3e ff bf bf
e4356a50  f6 ff f6 82 00 7d 61 f5 ff de ff 0f e5 bd fd fe
e4356a60  ff ff e9 df 00 fb fd df fe 93 fd da f7 f2 ff ff
e4356a70  f6 9a ff 9e 00 7d 2e 78 9f f9 f7 fe fa fe c7 bf
e4356a80  fc ff bf 2a 00 bb e7 5e ff 7f ef bd fd 26 f7 a9
e4356a90  c6 dc f1 fc 00 67 7e ff fd 2d 7b 9d 67 be bf ff
e4356aa0  fd fd e3 97 00 de df 5f fa d3 6d dd ce bf 76 db
e4356ab0  9c 9d ec 5e 00 df fb ef f7 ef ff 3e fd 9b c4 ab
e4356ac0  c7 e7 cf a6 00 93 e4 d3 de 7d bf b5 bd af b6 df
e4356ad0  eb ff 83 bd 00 fd f7 df 9f 1f 6e cf f5 5e 37 7c
e4356ae0  9f 93 f7 db 00 d7 f1 a5 fe ba db db b7 3b 47 6f
e4356af0  6f bf fb d7 00 f7 fc fb df 76 fe ff ee fe d9 74
e4356b00  ee 93 7d e7 00 fc ee 7b c5 ee ef fb bf f9 d9 df
e4356b10  df db ee de 00 df d3 7e ff f6 76 b8 ad bd fd ee
e4356b20  f8 3f 3d fb 00 fe f7 bc eb df fc 7f c6 9e 76 f8
e4356b30  df de 2e fd 00 ac 9d a7 fa ae ff cf 7e ee ad e7
e4356b40  fd fe 1f bb 00 9a 77 f7 da b9 ce 9c d7 6d ef ef
e4356b50  f7 9b fb 7e 00 fb 25 96 b7 eb bf cb e7 f7 7e 96
e4356b60  f7 72 77 70 00 ff ff ce 0c 3a cc b6 eb cc ff 7f
e4356b70  e6 3f fe 8d 00 f7 f9 f2 df bf ff cf f7 da 3f 7a
e4356b80  7f de 59 dc 00 bb 3a ab f1 7b f7 9e 39 a8 f8 7f
e4356b90  f5 bf f5 bb 00 dc f6 ee bf bf 9f fb b4 bf f7 8f
e4356ba0  ad f7 e9 fb 00 d8 7b de 77 6f e5 fd ea da ee cb
e4356bb0  f6 fa ff df 00 fb be d7 ff ef 62 c4 6e 1a f4 b2
e4356bc0  9f 9a 36 ef 00 fe d7 af ee 2f fd b3 8f 7f d9 6d
e4356bd0  dd df e7 f2 00 75 5d 3f d1 f7 a7 44 5f fe 7e eb
e4356be0  fd ed e7 6f 00 00 00 01 00 00 00 1f 00 00 00 02
e4356bf0  72

-------------------------------------------------------------------------------
     Signo   Sender     Addr    Owner Pool Req. Size Real Size
---------- -------- -------- -------- ---- --------- ---------
         0 00000006 00000006 00000006    5       544      1600

Hex Addr  00 01 02 03 04 05 06 07 08 09 0a 0b 0c 0d 0e 0f
--------  -- -- -- -- -- -- -- -- -- -- -- -- -- -- -- --
e435a498  00 00 00 00 55 53 45 52 00 80 7f 20 00 00 00 00
e435a4a8  00 00 00 00 44 45 46 41 55 4c 54 00 00 00 72 ff
e435a4b8  00 00 50 9a 00 a3 42 03 04 01 00 60 81 00 0f a0
e435a4c8  89 11 46 30 00 2c 20 00 e0 05 f0 00 7f ff 00 00
e435a4d8  00 05 00 00 00 01 00 01 00 65 00 10 00 00 00 00
e435a4e8  00 01 00 00 00 00 00 00 00 02 00 00 00 00 2f 62
e435a4f8  6f 6f 74 2f 00 64 61 30 2e 6f 75 74 00 00 00 00
e435a508  00 00 00 00 00 00 00 00 00 00 00 00 00 00 00 00
e435a518  00 00 00 00 00 00 00 00 00 00 00 00 00 00 00 00
e435a528  00 00 00 00 00 00 00 00 00 00 00 00 00 00 00 00
e435a538  00 00 00 00 00 00 00 00 00 00 00 00 00 00 00 00
e435a548  00 00 00 00 00 00 00 00 00 00 00 00 00 00 00 00
e435a558  00 00 00 00 00 00 00 00 00 00 00 00 00 00 00 00
e435a568  00 00 00 00 00 00 00 00 00 00 00 00 00 00 00 00
e435a578  00 00 00 00 00 00 00 00 00 00 00 00 00 00 00 00
e435a588  00 00 00 00 00 00 00 00 00 00 00 00 00 00 00 00
e435a598  00 00 00 00 00 00 00 00 00 00 00 00 00 00 00 00
e435a5a8  00 00 00 00 00 00 00 00 00 00 00 00 00 00 00 00
e435a5b8  00 00 00 00 00 00 00 00 00 00 00 00 00 00 00 00
e435a5c8  00 00 00 00 00 00 00 00 00 00 00 00 00 00 00 00
e435a5d8  00 00 00 00 00 00 00 00 00 00 00 00 00 00 00 00
e435a5e8  00 00 00 00 00 00 00 00 00 00 00 00 00 00 2f 74
e435a5f8  6d 70 2f 64 00 70 2f 64 73 70 31 36 2e 63 6f 6e
e435a608  66 00 00 00 00 00 00 00 00 00 00 00 00 00 00 00
e435a618  00 00 00 00 00 00 00 00 00 00 00 00 00 00 00 00
e435a628  00 00 00 00 00 00 00 00 00 00 00 00 00 00 00 00
e435a638  00 00 00 00 00 00 00 00 00 00 00 00 00 00 00 00
e435a648  00 00 00 00 00 00 00 00 00 00 00 00 00 00 00 00
e435a658  00 00 00 00 00 00 00 00 00 00 00 00 00 00 00 00
e435a668  00 00 00 00 00 00 00 00 00 00 00 00 00 00 00 00
e435a678  00 00 00 00 00 00 00 00 00 00 00 00 00 00 00 00
e435a688  00 00 00 00 00 00 00 00 00 00 00 00 00 00 00 00
e435a698  00 00 00 00 00 00 00 00 00 00 00 00 00 00 00 00
e435a6a8  00 00 00 00 00 00 00 02 00 00 00 01 00 00 00 02
e435a6b8  72

-------------------------------------------------------------------------------

Signals in Signal Queues
------------------------

The process does not have any signals in its queue.

Summary
-------

Number of signal buffers: Owned = 3, Queue = 0, Total = 3

===============================================================================
Process: Pid = 00000007, eth_isr
Owned Signals
-------------

     Signo   Sender     Addr    Owner Pool Req. Size Real Size
---------- -------- -------- -------- ---- --------- ---------
   8420224 00000008 00000007 00000007    0        72        72

Hex Addr  00 01 02 03 04 05 06 07 08 09 0a 0b 0c 0d 0e 0f
--------  -- -- -- -- -- -- -- -- -- -- -- -- -- -- -- --
  807e40  00 80 7b 80 00 80 7c 48 00 00 00 00 00 00 00 56
  807e50  00 80 46 70 00 00 00 1a e4 35 c3 d0 e4 35 c3 d0
  807e60  e4 35 c3 d0 00 00 00 00 00 80 5f fc 00 80 7c 70
  807e70  00 80 7e 40 00 00 01 c6 00 00 00 02 00 00 00 00
  807e80  5f 76 6c 61 6e 5f 6c 69 72

-------------------------------------------------------------------------------

Signals in Signal Queues
------------------------

The process does not have any signals in its queue.

Summary
-------

Number of signal buffers: Owned = 1, Queue = 0, Total = 1

===============================================================================
Process: Pid = 00000008, eth_isr
Owned Signals
-------------

The process does not own any signals.

Signals in Signal Queues
------------------------

The process does not have any signals in its queue.

Summary
-------

Number of signal buffers: Owned = 0, Queue = 0, Total = 0

===============================================================================
Process: Pid = 00000009, rlnh_cm_rx_proc
Owned Signals
-------------

     Signo   Sender     Addr    Owner Pool Req. Size Real Size
---------- -------- -------- -------- ---- --------- ---------
   8421040 00000009 00000009 00000009    0        72        72

Hex Addr  00 01 02 03 04 05 06 07 08 09 0a 0b 0c 0d 0e 0f
--------  -- -- -- -- -- -- -- -- -- -- -- -- -- -- -- --
  807b10  00 80 7e b0 00 80 7b 80 00 00 00 00 00 00 00 3c
  807b20  00 80 46 70 00 00 00 3c 00 83 e9 00 00 83 e9 00
  807b30  00 83 e9 12 00 00 00 00 00 80 5f fc 00 80 5f fc
  807b40  00 80 7b 10 00 00 00 8a 00 00 00 02 00 00 00 00
  807b50  00 06 20 72 80 00 80 2f 72

-------------------------------------------------------------------------------
     Signo   Sender     Addr    Owner Pool Req. Size Real Size
---------- -------- -------- -------- ---- --------- ---------
   8420112 00000008 00000009 00000009    0        72        72

Hex Addr  00 01 02 03 04 05 06 07 08 09 0a 0b 0c 0d 0e 0f
--------  -- -- -- -- -- -- -- -- -- -- -- -- -- -- -- --
  807b80  00 80 7b 10 00 80 7e 40 00 00 00 00 00 00 00 3c
  807b90  00 80 46 70 00 00 00 3c 00 83 fe 00 00 83 fe 00
  807ba0  00 83 fe 12 00 00 00 00 00 80 5f fc 00 80 5f fc
  807bb0  00 80 7b 80 00 00 01 c8 00 00 00 02 00 00 00 00
  807bc0  b5 78 30 72 ff ff ff ff 72

-------------------------------------------------------------------------------
     Signo   Sender     Addr    Owner Pool Req. Size Real Size
---------- -------- -------- -------- ---- --------- ---------
   8674776 00000009 00000009 00000009    0        72        72

Hex Addr  00 01 02 03 04 05 06 07 08 09 0a 0b 0c 0d 0e 0f
--------  -- -- -- -- -- -- -- -- -- -- -- -- -- -- -- --
  807c48  00 80 7e 40 00 80 7f 90 00 00 00 00 00 00 00 5a
  807c58  00 80 46 70 00 00 00 3e e4 35 c3 d0 e4 35 c3 d0
  807c68  e4 35 c3 d0 00 00 00 00 00 80 5f fc 00 80 5f fc
  807c78  00 80 7c 48 00 00 00 94 00 00 00 02 00 00 00 00
  807c88  ff ff ff ff ff ff ff ff 72

-------------------------------------------------------------------------------
     Signo   Sender     Addr    Owner Pool Req. Size Real Size
---------- -------- -------- -------- ---- --------- ---------
   8421376 00000009 00000009 00000009    0        72        72

Hex Addr  00 01 02 03 04 05 06 07 08 09 0a 0b 0c 0d 0e 0f
--------  -- -- -- -- -- -- -- -- -- -- -- -- -- -- -- --
  807cb8  00 80 80 00 00 80 7f 20 00 00 00 00 00 00 00 3c
  807cc8  00 80 46 70 00 00 00 3c 00 83 e2 00 00 83 e2 00
  807cd8  00 83 e2 12 00 00 00 00 00 80 5f fc 00 80 7f 48
  807ce8  00 80 7c b8 00 00 00 8f 00 00 00 02 00 00 00 00
  807cf8  8f 0a a0 1b 86 8f a4 3f 72

-------------------------------------------------------------------------------
     Signo   Sender     Addr    Owner Pool Req. Size Real Size
---------- -------- -------- -------- ---- --------- ---------
   8421152 00000008 00000009 00000009    0        72        72

Hex Addr  00 01 02 03 04 05 06 07 08 09 0a 0b 0c 0d 0e 0f
--------  -- -- -- -- -- -- -- -- -- -- -- -- -- -- -- --
  807eb0  00 80 7f 20 00 80 7b 10 00 00 00 00 00 00 00 3c
  807ec0  00 80 46 70 00 00 01 37 e4 35 d5 10 e4 35 d5 10
  807ed0  e4 35 d5 10 00 00 00 00 00 80 5f fc 00 80 5f fc
  807ee0  00 80 7e b0 00 00 00 93 00 00 00 02 00 00 00 00
  807ef0  6e 61 67 65 72 00 72 69 72

-------------------------------------------------------------------------------
     Signo   Sender     Addr    Owner Pool Req. Size Real Size
---------- -------- -------- -------- ---- --------- ---------
   8420536 00000008 00000009 00000009    0        72        72

Hex Addr  00 01 02 03 04 05 06 07 08 09 0a 0b 0c 0d 0e 0f
--------  -- -- -- -- -- -- -- -- -- -- -- -- -- -- -- --
  807f20  00 80 7c b8 00 80 7e b0 00 00 00 00 00 00 00 5a
  807f30  00 80 46 70 00 00 00 34 00 83 e5 80 00 83 e5 80
  807f40  00 83 e5 a6 00 00 00 00 00 80 5f fc 00 80 5f fc
  807f50  00 80 7f 20 00 00 00 90 00 00 00 02 00 00 00 00
  807f60  6e 61 67 65 00 00 00 1d 72

-------------------------------------------------------------------------------
     Signo   Sender     Addr    Owner Pool Req. Size Real Size
---------- -------- -------- -------- ---- --------- ---------
   8420424 00000008 00000009 00000009    0        72        72

Hex Addr  00 01 02 03 04 05 06 07 08 09 0a 0b 0c 0d 0e 0f
--------  -- -- -- -- -- -- -- -- -- -- -- -- -- -- -- --
  807f90  00 80 7c 48 00 84 5d d8 00 00 00 00 00 00 00 3c
  807fa0  00 80 46 70 00 00 00 3c 00 83 ec 80 00 83 ec 80
  807fb0  00 83 ec 92 00 00 00 00 00 80 5f fc 00 80 80 28
  807fc0  00 80 7f 90 00 00 00 91 00 00 00 02 00 00 00 00
  807fd0  00 93 1a 77 00 00 00 f0 72

-------------------------------------------------------------------------------
     Signo   Sender     Addr    Owner Pool Req. Size Real Size
---------- -------- -------- -------- ---- --------- ---------
   8421264 00000008 00000009 00000009    0        72        72

Hex Addr  00 01 02 03 04 05 06 07 08 09 0a 0b 0c 0d 0e 0f
--------  -- -- -- -- -- -- -- -- -- -- -- -- -- -- -- --
  808000  00 84 5d d8 00 80 7c b8 00 00 00 00 00 00 02 fc
  808010  00 80 46 70 00 00 01 37 e4 35 d5 10 e4 35 d5 10
  808020  e4 35 d5 10 00 00 00 00 00 80 5f fc 00 80 5f fc
  808030  00 80 80 00 00 00 00 92 00 00 00 02 00 00 00 00
  808040  00 00 00 00 00 00 03 00 72

-------------------------------------------------------------------------------
     Signo   Sender     Addr    Owner Pool Req. Size Real Size
---------- -------- -------- -------- ---- --------- ---------
   8391736 00000009 00000009 00000009    0        44        48

Hex Addr  00 01 02 03 04 05 06 07 08 09 0a 0b 0c 0d 0e 0f
--------  -- -- -- -- -- -- -- -- -- -- -- -- -- -- -- --
  808200  00 80 0c 38 00 00 00 00 00 00 00 00 e4 35 be 90
  808210  00 02 00 18 c0 00 00 00 00 00 00 3c 00 00 00 00
  808220  00 00 00 00 00 00 00 3c 00 00 00 01 72

-------------------------------------------------------------------------------

Signals in Signal Queues
------------------------

The process does not have any signals in its queue.

Summary
-------

Number of signal buffers: Owned = 9, Queue = 0, Total = 9

===============================================================================
Process: Pid = 0000000a, eth_isr
Owned Signals
-------------

The process does not own any signals.

Signals in Signal Queues
------------------------

The process does not have any signals in its queue.

Summary
-------

Number of signal buffers: Owned = 0, Queue = 0, Total = 0

===============================================================================
Process: Pid = 0000000b, eth_isr
Owned Signals
-------------

The process does not own any signals.

Signals in Signal Queues
------------------------

The process does not have any signals in its queue.

Summary
-------

Number of signal buffers: Owned = 0, Queue = 0, Total = 0

===============================================================================
Process: Pid = 0000000c, dp_sup
Owned Signals
-------------

The process does not own any signals.

Signals in Signal Queues
------------------------

The process does not have any signals in its queue.

Summary
-------

Number of signal buffers: Owned = 0, Queue = 0, Total = 0

===============================================================================
Process: Pid = 0000000d, dp_diagnostics
Owned Signals
-------------

The process does not own any signals.

Signals in Signal Queues
------------------------

The process does not have any signals in its queue.

Summary
-------

Number of signal buffers: Owned = 0, Queue = 0, Total = 0

===============================================================================
Process: Pid = 0000000e, p_fault
Owned Signals
-------------

The process does not own any signals.

Signals in Signal Queues
------------------------

The process does not have any signals in its queue.

Summary
-------

Number of signal buffers: Owned = 0, Queue = 0, Total = 0

===============================================================================
Process: Pid = 0000000f, p_load_probe
Owned Signals
-------------

     Signo   Sender     Addr    Owner Pool Req. Size Real Size
---------- -------- -------- -------- ---- --------- ---------
   8467464 0000000f 0000000f 0000000f    0        28        48

Hex Addr  00 01 02 03 04 05 06 07 08 09 0a 0b 0c 0d 0e 0f
--------  -- -- -- -- -- -- -- -- -- -- -- -- -- -- -- --
  808258  00 80 7a b8 00 81 34 08 00 00 0b 34 00 00 00 50
  808268  e1 0e 0d 00 00 00 00 00 80 00 00 01 72

-------------------------------------------------------------------------------

Signals in Signal Queues
------------------------

The process does not have any signals in its queue.

Summary
-------

Number of signal buffers: Owned = 1, Queue = 0, Total = 1

===============================================================================
Process: Pid = 00000010, p_trace
Owned Signals
-------------

     Signo   Sender     Addr    Owner Pool Req. Size Real Size
---------- -------- -------- -------- ---- --------- ---------
         0 00000010 00000010 00000010    4        64       128

Hex Addr  00 01 02 03 04 05 06 07 08 09 0a 0b 0c 0d 0e 0f
--------  -- -- -- -- -- -- -- -- -- -- -- -- -- -- -- --
e1300080  00 00 00 00 e1 30 0d 54 00 00 00 10 ff ff ff ff
e1300090  e1 30 0d 50 00 00 00 00 00 00 00 00 00 00 00 00
e13000a0  00 00 00 00 00 00 00 00 00 00 00 00 00 00 00 00
e13000b0  00 00 00 00 00 00 00 00 00 00 00 00 00 00 00 00
e13000c0  72

-------------------------------------------------------------------------------
     Signo   Sender     Addr    Owner Pool Req. Size Real Size
---------- -------- -------- -------- ---- --------- ---------
    262150 00000010 00000010 00000010    4      1284      2000

Hex Addr  00 01 02 03 04 05 06 07 08 09 0a 0b 0c 0d 0e 0f
--------  -- -- -- -- -- -- -- -- -- -- -- -- -- -- -- --
e1300d50  00 04 00 06 de eb be 7e 2f ef 5d df 75 aa e3 e3
e1300d60  ef b7 bd ce f5 fd ff df f6 ef e5 bf 8f fe ff bc
e1300d70  9f eb ec 7e 28 68 f3 b7 5e ff 37 1e f5 fe e4 ff
e1300d80  93 d3 6d fb ff 3d fe fe ff 7b ff a7 fe bb f9 9b
e1300d90  6a ff f7 ca ef fe d6 ff bf bf 17 d2 e6 cb e3 ab
e1300da0  fe 8e 6c ba ff d7 ef 1e f6 db fd 9b ff 5d c6 7b
e1300db0  d8 de e4 9e af fe f7 9f 2b fe 3f 7f ee dd f2 af
e1300dc0  67 9f cd f8 a1 fb e5 3b f7 df ce ab 3a 33 f5 76
e1300dd0  ed d7 e7 ef ee f9 ff be fe cb eb ff af 15 e5 dc
e1300de0  ee b7 f4 ff a6 9e 6d ff 6d 0f fd f2 9f c3 f2 9f
e1300df0  cd d5 c6 e6 ff a9 f5 be ff 93 eb be 7f fd 7f 46
e1300e00  ed bf 6f 97 ff df a7 dd e9 bf f7 ff bf 64 f3 55
e1300e10  cf fd 77 ff f7 be ee fb ff dd 66 9f ff fb 65 af
e1300e20  fd fd dc bd d5 fd a7 ba 5e ff 7e d3 fd ec a6 b5
e1300e30  76 de ed fb e3 77 ef f8 ff ae ee be 66 cd ff f5
e1300e40  fd 6b d1 ff ed bd ef bf f5 fb bd be 5b d1 b2 bb
e1300e50  ac ff ec dc df 74 ce be 5e f9 df 4b b3 5b 7f fa
e1300e60  ff b7 35 fb 66 cb f5 df 7f f7 f7 c9 36 cf 7c db
e1300e70  e2 5a 6c 9d 56 ff a7 fb ea 77 fd e9 f6 f7 f4 ba
e1300e80  3f da f6 bd d7 9f d5 bb cf ff bc 16 f9 7b fb d9
e1300e90  be df fc fc 5f f3 ef d9 be f7 7d ff fd 7f cd fb
e1300ea0  d5 bf fc 9e e9 97 77 fd df f3 7b 7f bd f7 fd d3
e1300eb0  ff ba ed bf 96 dd ff be fa dd f7 7d 7e ff d6 ef
e1300ec0  cd db e9 5d bf f6 7d fd ff e2 f4 bf 86 3b fd bb
e1300ed0  fd bb f7 b7 e4 6f fc cf f7 db bd fa c3 ee 95 fd
e1300ee0  b7 aa fc 67 af a7 f7 ba 8c bf ad 9c ff 77 fe d7
e1300ef0  6c be bd fb 9b 3b ed 9b bf 5f f5 0f cb 9f de f6
e1300f00  b5 4b e1 bf fe f2 df 9f 43 ff ed fe f7 bb ff ff
e1300f10  cc bc e5 cb a7 f7 fd fe 6f f3 f7 bf df ff 8e bb
e1300f20  eb da fb fb 35 cf c4 fc 8e 7f 7c dd e3 fb fe bf
e1300f30  fe 96 fc db c7 7f f1 ff fe 7f fc 4f e7 5b d1 b2
e1300f40  57 ff f3 ba fd 7d e2 7f f4 dc ef 9f ff 77 ee 9f
e1300f50  f3 ff d6 ff db 98 4f 9a 63 df 6f bc ff b7 97 fb
e1300f60  79 f2 d7 ea 7f 8f dd b9 bf df 6f 9e db db fd 33
e1300f70  ff f3 fe fd eb bf ff c1 f5 ff 75 5c fd 9b e9 f3
e1300f80  be 5b f6 db ff f3 ec d5 77 fe 7d de ff 7d e9 fa
e1300f90  5f be fd bb ef fb ce bf fc e9 a2 ed f3 5f df 94
e1300fa0  ff e7 e4 f7 f0 9f de de bf ea e7 aa fb bf 7c ff
e1300fb0  a7 de bf fb f7 ff e6 da 56 76 fc 14 af ff f6 bf
e1300fc0  dd b9 ef df a6 ce ff be fb 93 f3 eb 5f 77 ef 7b
e1300fd0  e7 9f f7 fc 6d fe f7 df dc ff 33 36 7e 7f fb 7e
e1300fe0  ba b6 ff bf 7f df 7a 97 e5 70 e7 be 3d bd 7f fd
e1300ff0  c5 ff f5 98 3f ef ab be d2 bb f5 9f 3f 6f bf 7f
e1301000  ba 7e 13 df 5d 6d 5f f6 fb 8b b8 9f 7b 77 df 67
e1301010  6f da 63 c5 be fb 14 a3 ff bf bb 75 f6 ff dd bb
e1301020  ff df 6d ff a7 ee f5 bb 8e 97 ea fe ef bf ff e7
e1301030  e7 ef f1 df fd df cf d3 d7 fd 7a d8 fe bd 25 5f
e1301040  e6 ff ef d7 fc f8 fd 5f 6f ec 7e 3e 5f fb f6 fe
e1301050  f6 dd fd 6e e7 bb b7 da e3 7f b8 fb 36 bf d7 fb
e1301060  ff ff d9 3b ce fe dc 8d ed fe d7 5f be bf f1 ea
e1301070  e7 ef f5 d9 fd 9f fa d6 fb df 4f af f8 9d f5 1f
e1301080  ef 99 a0 ff f7 ff cc df ef 9b f7 d7 bf f7 ac fb
e1301090  5e fb e6 ef d8 bf f7 7b f8 be 47 ea ac bd f5 9f
e13010a0  8d 9d d8 77 33 eb ec 96 3f bc 4f bb 7b 4b ff be
e13010b0  b8 b4 6a fc f5 df 7f df 3f 70 d6 df 61 be f5 9f
e13010c0  fe fb 2b d1 e7 fd fc fe 0a bd ff 87 dc df de fd
e13010d0  5b ee a4 fb bf 3f db ee 6d 7f d9 bb f6 9f fe d3
e13010e0  a7 3c cf df fc bf ec f1 7f ff f6 b2 6b ff e5 5b
e13010f0  63 d7 7d ef ef fe df ee e6 ad bd f7 fd b6 cf 28
e1301100  fd f7 a6 d6 df fa f7 b9 ed fe 77 be 5e ff 3d b7
e1301110  5e fb e7 fe bf bb 25 de 8b bf 6c df ef bb ed fa
e1301120  fd de f0 9e c5 d3 ee 9c bd f9 5a da df cd b9 a7
e1301130  ee fa a5 be 7d ef ff df f2 bf de 35 4d ee f7 f9
e1301140  7f be 4e 9b 6f fe f9 e3 fb cc fc 8a 83 df 9a 76
e1301150  ff ba ee fe f3 7f f7 b9 0f 5a 5f 9d dc ef 6e eb
e1301160  b5 d7 b6 80 df ff f3 ae 6e af ac fb dd f9 1f a8
e1301170  3d 7b eb ae ae bc af db fc fa 3f b7 b7 e5 d7 5d
e1301180  c6 ff 6f ba ff ff 7a cb cf ef ed fd f9 95 5b f0
e1301190  ff fe cb 9e f7 bc 75 b5 71 ff 3e df 6e e5 77 b6
e13011a0  ef 5e 2b df d7 f5 f3 b9 ca 9b 79 5d d6 eb 8f f6
e13011b0  cd f5 3f 9b f1 be dc fa f9 d9 fd 7d fe f7 84 9b
e13011c0  e8 ef 38 57 f7 bc e7 3b f3 d3 6f 97 ee 7d b7 9e
e13011d0  8b 3f d6 f7 fb 9e fe fb 9a da db 3a fd d5 eb f7
e13011e0  af fa d6 cb f5 d7 ff 3d b6 f3 cb fa 6e 88 6e bf
e13011f0  7c d4 df fa e5 bb f6 ba 78 47 71 f4 df fd 7f df
e1301200  ef fc ef ff c4 9f a6 98 78 d1 fc bf b9 7f f7 c5
e1301210  cf f7 d5 9f dd ff eb ee 65 8f 6f 5a d3 ba d6 1f
e1301220  e6 b6 ef 8e 5f db f9 bb f4 fe f5 9f 61 73 fb 9d
e1301230  b3 fb fd fb 4d ff f7 78 ae be ff ff 6e f1 ed 6a
e1301240  6f d3 c5 8a d3 7f bd e8 bf df 7d 7f fe fd bd b3
e1301250  ef 3c e0 b5 72

-------------------------------------------------------------------------------

Signals in Signal Queues
------------------------

The process does not have any signals in its queue.

Summary
-------

Number of signal buffers: Owned = 2, Queue = 0, Total = 2

===============================================================================
Process: Pid = 00000011, p_com
Owned Signals
-------------

     Signo   Sender     Addr    Owner Pool Req. Size Real Size
---------- -------- -------- -------- ---- --------- ---------
   2870160 00000011 00000011 00000011    0        12        24

Hex Addr  00 01 02 03 04 05 06 07 08 09 0a 0b 0c 0d 0e 0f
--------  -- -- -- -- -- -- -- -- -- -- -- -- -- -- -- --
  80a368  00 2b cb 90 00 84 a4 4c 01 42 42 42 72

-------------------------------------------------------------------------------

Signals in Signal Queues
------------------------

The process does not have any signals in its queue.

Summary
-------

Number of signal buffers: Owned = 1, Queue = 0, Total = 1

===============================================================================
Process: Pid = 00000012, p_blink
Owned Signals
-------------

     Signo   Sender     Addr    Owner Pool Req. Size Real Size
---------- -------- -------- -------- ---- --------- ---------
   8467856 00000012 00000012 00000012    0        28        48

Hex Addr  00 01 02 03 04 05 06 07 08 09 0a 0b 0c 0d 0e 0f
--------  -- -- -- -- -- -- -- -- -- -- -- -- -- -- -- --
  808358  00 81 35 90 00 80 7a b8 00 00 0e 2c 00 00 03 e8
  808368  e1 0e 62 fa 00 00 00 00 80 00 00 03 72

-------------------------------------------------------------------------------

Signals in Signal Queues
------------------------

The process does not have any signals in its queue.

Summary
-------

Number of signal buffers: Owned = 1, Queue = 0, Total = 1

===============================================================================
Process: Pid = 00000013, p_office
Owned Signals
-------------

     Signo   Sender     Addr    Owner Pool Req. Size Real Size
---------- -------- -------- -------- ---- --------- ---------
        10 00000013 00000013 00000013    4      2052      3072

Hex Addr  00 01 02 03 04 05 06 07 08 09 0a 0b 0c 0d 0e 0f
--------  -- -- -- -- -- -- -- -- -- -- -- -- -- -- -- --
e1302218  00 00 00 0a 00 00 00 00 00 00 00 00 00 00 00 00
e1302228  00 00 00 00 00 00 00 00 00 00 00 00 00 00 00 00
e1302238  00 00 00 00 00 00 00 00 00 00 00 00 00 00 00 00
e1302248  00 00 00 00 00 00 00 00 00 00 00 00 00 00 00 00
e1302258  00 00 00 00 00 00 00 00 00 00 00 00 00 00 00 00
e1302268  00 00 00 00 00 00 00 00 00 00 00 00 00 00 00 00
e1302278  00 00 00 00 00 00 00 00 00 00 00 00 00 00 00 00
e1302288  00 00 00 00 00 00 00 00 00 00 00 00 00 00 00 00
e1302298  00 00 00 00 00 00 00 00 00 00 00 00 00 00 00 00
e13022a8  00 00 00 00 00 00 00 00 00 00 00 00 00 00 00 00
e13022b8  00 00 00 00 00 00 00 00 00 00 00 00 00 00 00 00
e13022c8  00 00 00 00 00 00 00 00 00 00 00 00 00 00 00 00
e13022d8  00 00 00 00 00 00 00 00 00 00 00 00 00 00 00 00
e13022e8  00 00 00 00 00 00 00 00 00 00 00 00 00 00 00 00
e13022f8  00 00 00 00 00 00 00 00 00 00 00 00 00 00 00 00
e1302308  00 00 00 00 00 00 00 00 00 00 00 00 00 00 00 00
e1302318  00 00 00 00 00 00 00 00 00 00 00 00 00 00 00 00
e1302328  00 00 00 00 00 00 00 00 00 00 00 00 00 00 00 00
e1302338  00 00 00 00 00 00 00 00 00 00 00 00 00 00 00 00
e1302348  00 00 00 00 00 00 00 00 00 00 00 00 00 00 00 00
e1302358  00 00 00 00 00 00 00 00 00 00 00 00 00 00 00 00
e1302368  00 00 00 00 00 00 00 00 00 00 00 00 00 00 00 00
e1302378  00 00 00 00 00 00 00 00 00 00 00 00 00 00 00 00
e1302388  00 00 00 00 00 00 00 00 00 00 00 00 00 00 00 00
e1302398  00 00 00 00 00 00 00 00 00 00 00 00 00 00 00 00
e13023a8  00 00 00 00 00 00 00 00 00 00 00 00 00 00 00 00
e13023b8  00 00 00 00 00 00 00 00 00 00 00 00 00 00 00 00
e13023c8  00 00 00 00 00 00 00 00 00 00 00 00 00 00 00 00
e13023d8  00 00 00 00 00 00 00 00 00 00 00 00 00 00 00 00
e13023e8  00 00 00 00 00 00 00 00 00 00 00 00 00 00 00 00
e13023f8  00 00 00 00 00 00 00 00 00 00 00 00 00 00 00 00
e1302408  00 00 00 00 00 00 00 00 00 00 00 00 00 00 00 00
e1302418  00 00 00 00 00 00 00 00 00 00 00 00 00 00 00 00
e1302428  00 00 00 00 00 00 00 00 00 00 00 00 00 00 00 00
e1302438  00 00 00 00 00 00 00 00 00 00 00 00 00 00 00 00
e1302448  00 00 00 00 00 00 00 00 00 00 00 00 00 00 00 00
e1302458  00 00 00 00 00 00 00 00 00 00 00 00 00 00 00 00
e1302468  00 00 00 00 00 00 00 00 00 00 00 00 00 00 00 00
e1302478  00 00 00 00 00 00 00 00 00 00 00 00 00 00 00 00
e1302488  00 00 00 00 00 00 00 00 00 00 00 00 00 00 00 00
e1302498  00 00 00 00 00 00 00 00 00 00 00 00 00 00 00 00
e13024a8  00 00 00 00 00 00 00 00 00 00 00 00 00 00 00 00
e13024b8  00 00 00 00 00 00 00 00 00 00 00 00 00 00 00 00
e13024c8  00 00 00 00 00 00 00 00 00 00 00 00 00 00 00 00
e13024d8  00 00 00 00 00 00 00 00 00 00 00 00 00 00 00 00
e13024e8  00 00 00 00 00 00 00 00 00 00 00 00 00 00 00 00
e13024f8  00 00 00 00 00 00 00 00 00 00 00 00 00 00 00 00
e1302508  00 00 00 00 00 00 00 00 00 00 00 00 00 00 00 00
e1302518  00 00 00 00 00 00 00 00 00 00 00 00 00 00 00 00
e1302528  00 00 00 00 00 00 00 00 00 00 00 00 00 00 00 00
e1302538  00 00 00 00 00 00 00 00 00 00 00 00 00 00 00 00
e1302548  00 00 00 00 00 00 00 00 00 00 00 00 00 00 00 00
e1302558  00 00 00 00 00 00 00 00 00 00 00 00 00 00 00 00
e1302568  00 00 00 00 00 00 00 00 00 00 00 00 00 00 00 00
e1302578  00 00 00 00 00 00 00 00 00 00 00 00 00 00 00 00
e1302588  00 00 00 00 00 00 00 00 00 00 00 00 00 00 00 00
e1302598  00 00 00 00 00 00 00 00 00 00 00 00 00 00 00 00
e13025a8  00 00 00 00 00 00 00 00 00 00 00 00 00 00 00 00
e13025b8  00 00 00 00 00 00 00 00 00 00 00 00 00 00 00 00
e13025c8  00 00 00 00 00 00 00 00 00 00 00 00 00 00 00 00
e13025d8  00 00 00 00 00 00 00 00 00 00 00 00 00 00 00 00
e13025e8  00 00 00 00 00 00 00 00 00 00 00 00 00 00 00 00
e13025f8  00 00 00 00 00 00 00 00 00 00 00 00 00 00 00 00
e1302608  00 00 00 00 00 00 00 00 00 00 00 00 00 00 00 00
e1302618  00 00 00 00 00 00 00 00 00 00 00 00 00 00 00 00
e1302628  00 00 00 00 00 00 00 00 00 00 00 00 00 00 00 00
e1302638  00 00 00 00 00 00 00 00 00 00 00 00 00 00 00 00
e1302648  00 00 00 00 00 00 00 00 00 00 00 00 00 00 00 00
e1302658  00 00 00 00 00 00 00 00 00 00 00 00 00 00 00 00
e1302668  00 00 00 00 00 00 00 00 00 00 00 00 00 00 00 00
e1302678  00 00 00 00 00 00 00 00 00 00 00 00 00 00 00 00
e1302688  00 00 00 00 00 00 00 00 00 00 00 00 00 00 00 00
e1302698  00 00 00 00 00 00 00 00 00 00 00 00 00 00 00 00
e13026a8  00 00 00 00 00 00 00 00 00 00 00 00 00 00 00 00
e13026b8  00 00 00 00 00 00 00 00 00 00 00 00 00 00 00 00
e13026c8  00 00 00 00 00 00 00 00 00 00 00 00 00 00 00 00
e13026d8  00 00 00 00 00 00 00 00 00 00 00 00 00 00 00 00
e13026e8  00 00 00 00 00 00 00 00 00 00 00 00 00 00 00 00
e13026f8  00 00 00 00 00 00 00 00 00 00 00 00 00 00 00 00
e1302708  00 00 00 00 00 00 00 00 00 00 00 00 00 00 00 00
e1302718  00 00 00 00 00 00 00 00 00 00 00 00 00 00 00 00
e1302728  00 00 00 00 00 00 00 00 00 00 00 00 00 00 00 00
e1302738  00 00 00 00 00 00 00 00 00 00 00 00 00 00 00 00
e1302748  00 00 00 00 00 00 00 00 00 00 00 00 00 00 00 00
e1302758  00 00 00 00 00 00 00 00 00 00 00 00 00 00 00 00
e1302768  00 00 00 00 00 00 00 00 00 00 00 00 00 00 00 00
e1302778  00 00 00 00 00 00 00 00 00 00 00 00 00 00 00 00
e1302788  00 00 00 00 00 00 00 00 00 00 00 00 00 00 00 00
e1302798  00 00 00 00 00 00 00 00 00 00 00 00 00 00 00 00
e13027a8  00 00 00 00 00 00 00 00 00 00 00 00 00 00 00 00
e13027b8  00 00 00 00 00 00 00 00 00 00 00 00 00 00 00 00
e13027c8  00 00 00 00 00 00 00 00 00 00 00 00 00 00 00 00
e13027d8  00 00 00 00 00 00 00 00 00 00 00 00 00 00 00 00
e13027e8  00 00 00 00 00 00 00 00 00 00 00 00 00 00 00 00
e13027f8  00 00 00 00 00 00 00 00 00 00 00 00 00 00 00 00
e1302808  00 00 00 00 00 00 00 00 00 00 00 00 00 00 00 00
e1302818  00 00 00 00 00 00 00 00 00 00 00 00 00 00 00 00
e1302828  00 00 00 00 00 00 00 00 00 00 00 00 00 00 00 00
e1302838  00 00 00 00 00 00 00 00 00 00 00 00 00 00 00 00
e1302848  00 00 00 00 00 00 00 00 00 00 00 00 00 00 00 00
e1302858  00 00 00 00 00 00 00 00 00 00 00 00 00 00 00 00
e1302868  00 00 00 00 00 00 00 00 00 00 00 00 00 00 00 00
e1302878  00 00 00 00 00 00 00 00 00 00 00 00 00 00 00 00
e1302888  00 00 00 00 00 00 00 00 00 00 00 00 00 00 00 00
e1302898  00 00 00 00 00 00 00 00 00 00 00 00 00 00 00 00
e13028a8  00 00 00 00 00 00 00 00 00 00 00 00 00 00 00 00
e13028b8  00 00 00 00 00 00 00 00 00 00 00 00 00 00 00 00
e13028c8  00 00 00 00 00 00 00 00 00 00 00 00 00 00 00 00
e13028d8  00 00 00 00 00 00 00 00 00 00 00 00 00 00 00 00
e13028e8  00 00 00 00 00 00 00 00 00 00 00 00 00 00 00 00
e13028f8  00 00 00 00 00 00 00 00 00 00 00 00 00 00 00 00
e1302908  00 00 00 00 00 00 00 00 00 00 00 00 00 00 00 00
e1302918  00 00 00 00 00 00 00 00 00 00 00 00 00 00 00 00
e1302928  00 00 00 00 00 00 00 00 00 00 00 00 00 00 00 00
e1302938  00 00 00 00 00 00 00 00 00 00 00 00 00 00 00 00
e1302948  00 00 00 00 00 00 00 00 00 00 00 00 00 00 00 00
e1302958  00 00 00 00 00 00 00 00 00 00 00 00 00 00 00 00
e1302968  00 00 00 00 00 00 00 00 00 00 00 00 00 00 00 00
e1302978  00 00 00 00 00 00 00 00 00 00 00 00 00 00 00 00
e1302988  00 00 00 00 00 00 00 00 00 00 00 00 00 00 00 00
e1302998  00 00 00 00 00 00 00 00 00 00 00 00 00 00 00 00
e13029a8  00 00 00 00 00 00 00 00 00 00 00 00 00 00 00 00
e13029b8  00 00 00 00 00 00 00 00 00 00 00 00 00 00 00 00
e13029c8  00 00 00 00 00 00 00 00 00 00 00 00 00 00 00 00
e13029d8  00 00 00 00 00 00 00 00 00 00 00 00 00 00 00 00
e13029e8  00 00 00 00 00 00 00 00 00 00 00 00 00 00 00 00
e13029f8  00 00 00 00 00 00 00 00 00 00 00 00 00 00 00 00
e1302a08  00 00 00 00 00 00 00 00 00 00 00 00 00 00 00 00
e1302a18  00 00 00 00 72

-------------------------------------------------------------------------------

Signals in Signal Queues
------------------------

The process does not have any signals in its queue.

Summary
-------

Number of signal buffers: Owned = 1, Queue = 0, Total = 1

===============================================================================
Process: Pid = 00000014, p_dmx
Owned Signals
-------------

The process does not own any signals.

Signals in Signal Queues
------------------------

The process does not have any signals in its queue.

Summary
-------

Number of signal buffers: Owned = 0, Queue = 0, Total = 0

===============================================================================
Process: Pid = 00000015, p_memcheck
Owned Signals
-------------

     Signo   Sender     Addr    Owner Pool Req. Size Real Size
---------- -------- -------- -------- ---- --------- ---------
   8400552 00000015 00000015 00000015    0        28        48

Hex Addr  00 01 02 03 04 05 06 07 08 09 0a 0b 0c 0d 0e 0f
--------  -- -- -- -- -- -- -- -- -- -- -- -- -- -- -- --
  80bee0  00 80 2e a8 00 80 7d e8 00 12 51 f4 00 12 4f 80
  80bef0  e1 0e 27 20 00 00 00 00 80 00 00 04 72

-------------------------------------------------------------------------------

Signals in Signal Queues
------------------------

The process does not have any signals in its queue.

Summary
-------

Number of signal buffers: Owned = 1, Queue = 0, Total = 1

===============================================================================
Process: Pid = 00000016, p_debug
Owned Signals
-------------

The process does not own any signals.

Signals in Signal Queues
------------------------

The process does not have any signals in its queue.

Summary
-------

Number of signal buffers: Owned = 0, Queue = 0, Total = 0

===============================================================================
Process: Pid = 00000017, p_has
Owned Signals
-------------

     Signo   Sender     Addr    Owner Pool Req. Size Real Size
---------- -------- -------- -------- ---- --------- ---------
3775968648 00000017 00000017 00000017    0        12        24

Hex Addr  00 01 02 03 04 05 06 07 08 09 0a 0b 0c 0d 0e 0f
--------  -- -- -- -- -- -- -- -- -- -- -- -- -- -- -- --
  80c860  e1 10 b5 88 00 80 c7 cc 01 42 42 42 72

-------------------------------------------------------------------------------
     Signo   Sender     Addr    Owner Pool Req. Size Real Size
---------- -------- -------- -------- ---- --------- ---------
3775968648 00000017 00000017 00000017    0        12        24

Hex Addr  00 01 02 03 04 05 06 07 08 09 0a 0b 0c 0d 0e 0f
--------  -- -- -- -- -- -- -- -- -- -- -- -- -- -- -- --
  80c8a0  e1 10 b5 88 00 80 c7 cc 01 42 42 42 72

-------------------------------------------------------------------------------

Signals in Signal Queues
------------------------

The process does not have any signals in its queue.

Summary
-------

Number of signal buffers: Owned = 2, Queue = 0, Total = 2

===============================================================================
Process: Pid = 00000018, t_fr
Owned Signals
-------------

The process does not own any signals.

Signals in Signal Queues
------------------------

The process does not have any signals in its queue.

Summary
-------

Number of signal buffers: Owned = 0, Queue = 0, Total = 0

===============================================================================
Process: Pid = 00000019, drm
Owned Signals
-------------

     Signo   Sender     Addr    Owner Pool Req. Size Real Size
---------- -------- -------- -------- ---- --------- ---------
         0 00000019 00000019 00000019    4        24       128

Hex Addr  00 01 02 03 04 05 06 07 08 09 0a 0b 0c 0d 0e 0f
--------  -- -- -- -- -- -- -- -- -- -- -- -- -- -- -- --
e1302e40  00 00 00 00 00 00 00 00 00 00 00 00 00 00 00 00
e1302e50  00 00 00 78 01 40 00 00 72

-------------------------------------------------------------------------------
     Signo   Sender     Addr    Owner Pool Req. Size Real Size
---------- -------- -------- -------- ---- --------- ---------
3778039600 00000019 00000019 00000019    4      1968      2000

Hex Addr  00 01 02 03 04 05 06 07 08 09 0a 0b 0c 0d 0e 0f
--------  -- -- -- -- -- -- -- -- -- -- -- -- -- -- -- --
e1304738  e1 30 4f 30 e1 30 4f b8 e1 30 50 40 e1 30 50 c8
e1304748  e1 30 51 50 e1 30 51 d8 e1 30 52 60 e1 30 52 e8
e1304758  e1 30 53 70 e1 30 53 f8 e1 30 54 80 e1 30 55 08
e1304768  e1 30 55 90 e1 30 56 18 e1 30 56 a0 e1 30 57 28
e1304778  e1 30 57 b0 e1 30 58 38 e1 30 58 c0 e1 30 59 48
e1304788  e1 30 59 d0 e1 30 5a 58 e1 30 5a e0 e1 30 5b 68
e1304798  e1 30 5b f0 e1 30 5c 78 e1 30 5d 00 e1 30 5d 88
e13047a8  e1 30 5e 10 e1 30 5e 98 e1 30 5f 20 e1 30 5f a8
e13047b8  e1 30 60 30 e1 30 60 b8 e1 30 61 40 e1 30 61 c8
e13047c8  e1 30 62 50 e1 30 62 d8 e1 30 63 60 e1 30 63 e8
e13047d8  e1 30 64 70 e1 30 64 f8 e1 30 65 80 e1 30 66 08
e13047e8  e1 30 66 90 e1 30 67 18 e1 30 67 a0 e1 30 68 28
e13047f8  e1 30 68 b0 e1 30 69 38 e1 30 69 c0 e1 30 6a 48
e1304808  e1 30 6a d0 e1 30 6b 58 e1 30 6b e0 e1 30 6c 68
e1304818  e1 30 6c f0 e1 30 6d 78 e1 30 6e 00 e1 30 6e 88
e1304828  e1 30 6f 10 e1 30 6f 98 e1 30 70 20 e1 30 70 a8
e1304838  e1 30 71 30 e1 30 71 b8 e1 30 72 40 e1 30 72 c8
e1304848  e1 30 73 50 e1 30 73 d8 e1 30 74 60 e1 30 74 e8
e1304858  e1 30 75 70 e1 30 75 f8 e1 30 76 80 e1 30 77 08
e1304868  e1 30 77 90 e1 30 78 18 e1 30 78 a0 e1 30 79 28
e1304878  e1 30 79 b0 e1 30 7a 38 e1 30 7a c0 e1 30 7b 48
e1304888  e1 30 7b d0 e1 30 7c 58 e1 30 7c e0 e1 30 7d 68
e1304898  e1 30 7d f0 e1 30 7e 78 e1 30 7f 00 e1 30 7f 88
e13048a8  e1 30 80 10 e1 30 80 98 e1 30 81 20 e1 30 81 a8
e13048b8  e1 30 82 30 e1 30 82 b8 e1 30 83 40 e1 30 83 c8
e13048c8  e1 30 84 50 e1 30 84 d8 e1 30 85 60 e1 30 85 e8
e13048d8  e1 30 86 70 e1 30 86 f8 e1 30 87 80 e1 30 88 08
e13048e8  e1 30 88 90 e1 30 89 18 e1 30 89 a0 e1 30 8a 28
e13048f8  e1 30 8a b0 e1 30 8b 38 e1 30 8b c0 e1 30 8c 48
e1304908  e1 30 8c d0 e1 30 8d 58 e1 30 8d e0 e1 30 8e 68
e1304918  e1 30 8e f0 e1 30 8f 78 e1 30 90 00 e1 30 90 88
e1304928  e1 31 4d 40 e1 31 4d 60 e1 31 4d 80 e1 31 4d a0
e1304938  e1 31 4d c0 e1 31 4d e0 e1 31 4e 00 e1 31 4e 20
e1304948  e1 31 4e 40 e1 31 4e 60 e1 31 4e 80 e1 31 4e a0
e1304958  e1 31 4e c0 e1 31 4e e0 e1 31 4f 00 e1 31 4f 20
e1304968  e1 31 4f 40 e1 31 4f 60 e1 31 4f 80 e1 31 4f a0
e1304978  e1 31 4f c0 e1 31 4f e0 e1 31 50 00 e1 31 50 20
e1304988  e1 31 50 40 e1 31 50 60 e1 31 50 80 e1 31 50 a0
e1304998  e1 31 50 c0 e1 31 50 e0 e1 31 51 00 e1 31 51 20
e13049a8  e1 31 51 40 e1 31 51 60 e1 31 51 80 e1 31 51 a0
e13049b8  e1 31 51 c0 e1 31 51 e0 e1 31 52 00 e1 31 52 20
e13049c8  e1 31 52 40 e1 31 52 60 e1 31 52 80 e1 31 52 a0
e13049d8  e1 31 52 c0 e1 31 52 e0 e1 31 53 00 e1 31 53 20
e13049e8  e1 31 53 40 e1 31 53 60 e1 31 53 80 e1 31 53 a0
e13049f8  e1 31 53 c0 e1 31 53 e0 e1 31 54 00 e1 31 54 20
e1304a08  e1 31 54 40 e1 31 54 60 e1 31 54 80 e1 31 54 a0
e1304a18  e1 31 54 c0 e1 31 54 e0 e1 31 55 00 e1 31 55 20
e1304a28  e1 31 55 40 e1 31 55 60 e1 31 55 80 e1 31 55 a0
e1304a38  e1 31 55 c0 e1 31 55 e0 e1 31 56 00 e1 31 56 20
e1304a48  e1 31 56 40 e1 31 56 60 e1 31 56 80 e1 31 56 a0
e1304a58  e1 31 56 c0 e1 31 56 e0 e1 31 57 00 e1 31 57 20
e1304a68  e1 31 57 40 e1 31 57 60 e1 31 57 80 e1 31 57 a0
e1304a78  e1 31 57 c0 e1 31 57 e0 e1 31 58 00 e1 31 58 20
e1304a88  e1 31 58 40 e1 31 58 60 e1 31 58 80 e1 31 58 a0
e1304a98  e1 31 58 c0 e1 31 58 e0 e1 31 59 00 e1 31 59 20
e1304aa8  e1 31 59 40 e1 31 59 60 e1 31 59 80 e1 31 59 a0
e1304ab8  e1 31 59 c0 e1 31 59 e0 e1 31 5a 00 e1 31 5a 20
e1304ac8  e1 31 5a 40 e1 31 5a 60 e1 31 5a 80 e1 31 5a a0
e1304ad8  e1 31 5a c0 e1 31 5a e0 e1 31 5b 00 e1 31 5b 20
e1304ae8  e1 31 5b 40 e1 31 5b 60 e1 31 5b 80 e1 31 5b a0
e1304af8  e1 31 5b c0 e1 31 5b e0 e1 31 5c 00 e1 31 5c 20
e1304b08  e1 31 5c 40 e1 31 5c 60 e1 31 5c 80 e1 31 5c a0
e1304b18  e1 31 5c c0 e1 31 5c e0 e1 31 5d 00 e1 31 5d 20
e1304b28  e1 31 5d 40 e1 31 5d 60 e1 31 5d 80 e1 31 5d a0
e1304b38  e1 31 5d c0 e1 31 5d e0 e1 31 5e 00 e1 31 5e 20
e1304b48  e1 31 5e 40 e1 31 5e 60 e1 31 5e 80 e1 31 5e a0
e1304b58  e1 31 5e c0 e1 31 5e e0 e1 31 5f 00 e1 31 5f 20
e1304b68  e1 31 5f 40 e1 31 5f 60 e1 31 5f 80 e1 31 5f a0
e1304b78  e1 31 5f c0 e1 31 5f e0 e1 31 60 00 e1 31 60 20
e1304b88  e1 31 60 40 e1 31 60 60 e1 31 60 80 e1 31 60 a0
e1304b98  e1 31 60 c0 e1 31 60 e0 e1 31 61 00 e1 31 61 20
e1304ba8  e1 31 61 40 e1 31 61 60 e1 31 61 80 e1 31 61 a0
e1304bb8  e1 31 61 c0 e1 31 61 e0 e1 31 62 00 e1 31 62 20
e1304bc8  e1 31 62 40 e1 31 62 60 e1 31 62 80 e1 31 62 a0
e1304bd8  e1 31 62 c0 e1 31 62 e0 e1 31 63 00 e1 31 63 20
e1304be8  e1 31 63 40 e1 31 63 60 e1 31 63 80 e1 31 63 a0
e1304bf8  e1 31 63 c0 e1 31 63 e0 e1 31 64 00 e1 31 64 20
e1304c08  e1 31 64 40 e1 31 64 60 e1 31 64 80 e1 31 64 a0
e1304c18  e1 31 64 c0 e1 31 64 e0 e1 31 65 00 e1 31 65 20
e1304c28  e1 31 65 40 e1 31 65 60 e1 31 65 80 e1 31 65 a0
e1304c38  e1 31 65 c0 e1 31 65 e0 e1 31 66 00 e1 31 66 20
e1304c48  e1 31 66 40 e1 31 66 60 e1 31 66 80 e1 31 66 a0
e1304c58  e1 31 66 c0 e1 31 66 e0 e1 31 67 00 e1 31 67 20
e1304c68  e1 31 67 40 e1 31 67 60 e1 31 67 80 e1 31 67 a0
e1304c78  e1 31 67 c0 e1 31 67 e0 e1 31 68 00 e1 31 68 20
e1304c88  e1 31 68 40 e1 31 68 60 e1 31 68 80 e1 31 68 a0
e1304c98  e1 31 68 c0 e1 31 68 e0 e1 31 69 00 e1 31 69 20
e1304ca8  e1 31 69 40 e1 31 69 60 e1 31 69 80 e1 31 69 a0
e1304cb8  e1 31 69 c0 e1 31 69 e0 e1 31 6a 00 e1 31 6a 20
e1304cc8  e1 31 6a 40 e1 31 6a 60 e1 31 6a 80 e1 31 6a a0
e1304cd8  e1 31 6a c0 e1 31 6a e0 e1 31 6b 00 e1 31 6b 20
e1304ce8  e1 31 6b 40 e1 31 6b 60 e1 31 6b 80 e1 31 6b a0
e1304cf8  e1 31 6b c0 e1 31 6b e0 e1 31 6c 00 e1 31 6c 20
e1304d08  e1 31 6c 40 e1 31 6c 60 e1 31 6c 80 e1 31 6c a0
e1304d18  e1 31 6c c0 e1 31 6c e0 e1 31 6d 00 e1 31 6d 20
e1304d28  e1 31 6d 40 e1 31 6d 60 e1 31 6d 80 e1 31 6d a0
e1304d38  e1 31 6d c0 e1 31 6d e0 e1 31 6e 00 e1 31 6e 20
e1304d48  e1 31 6e 40 e1 31 6e 60 e1 31 6e 80 e1 31 6e a0
e1304d58  e1 31 6e c0 e1 31 6e e0 e1 31 6f 00 e1 31 6f 20
e1304d68  e1 31 6f 40 e1 31 6f 60 e1 31 6f 80 e1 31 6f a0
e1304d78  e1 31 6f c0 e1 31 6f e0 e1 31 70 00 e1 31 70 20
e1304d88  e1 31 70 40 e1 31 70 60 e1 31 70 80 e1 31 70 a0
e1304d98  e1 31 70 c0 e1 31 70 e0 e1 31 71 00 e1 31 71 20
e1304da8  e1 31 71 40 e1 31 71 60 e1 31 71 80 e1 31 71 a0
e1304db8  e1 31 71 c0 e1 31 71 e0 e1 31 72 00 e1 31 72 20
e1304dc8  e1 31 72 40 e1 31 72 60 e1 31 72 80 e1 31 72 a0
e1304dd8  e1 31 72 c0 e1 31 72 e0 e1 31 73 00 e1 31 73 20
e1304de8  e1 31 73 40 e1 31 73 60 e1 31 73 80 e1 31 73 a0
e1304df8  e1 31 73 c0 e1 31 73 e0 e1 31 74 00 e1 31 74 20
e1304e08  e1 31 74 40 e1 31 74 60 e1 31 74 80 e1 31 74 a0
e1304e18  e1 31 74 c0 e1 31 74 e0 e1 31 75 00 e1 31 75 20
e1304e28  00 00 00 00 00 00 00 00 00 00 00 00 00 00 00 00
e1304e38  00 00 00 00 00 00 00 00 00 00 00 00 00 00 00 00
e1304e48  00 00 00 00 00 00 00 00 00 00 00 00 00 00 00 00
e1304e58  00 00 00 00 00 00 00 00 00 00 00 00 00 00 00 00
e1304e68  00 00 00 48 00 00 00 02 00 00 00 00 00 00 00 42
e1304e78  00 00 00 00 00 00 00 60 00 00 00 00 00 00 00 00
e1304e88  00 00 00 00 00 00 00 1f 00 00 00 1d 00 00 00 1a
e1304e98  00 00 00 1e 00 00 00 1b 00 00 00 20 00 00 00 22
e1304ea8  00 00 00 23 00 00 00 1c 00 00 00 21 00 00 00 00
e1304eb8  00 00 00 00 00 00 00 00 00 00 00 00 00 00 00 00
e1304ec8  e1 30 2e 40 e1 31 aa b0 ff 00 00 00 00 00 00 00
e1304ed8  00 00 00 00 00 00 00 00 00 00 00 00 00 00 00 00
e1304ee8  72

-------------------------------------------------------------------------------
     Signo   Sender     Addr    Owner Pool Req. Size Real Size
---------- -------- -------- -------- ---- --------- ---------
         0 00000019 00000019 00000019    4     16864     65000

Hex Addr  00 01 02 03 04 05 06 07 08 09 0a 0b 0c 0d 0e 0f
--------  -- -- -- -- -- -- -- -- -- -- -- -- -- -- -- --
e1304f30  00 00 00 00 00 00 00 00 4f ff 08 60 00 01 00 00
e1304f40  00 00 00 00 08 60 ff ff 00 00 00 00 00 00 00 00
e1304f50  ff ff ff ff 00 00 00 00 00 00 00 ff 00 ff ff ff
e1304f60  00 1f 00 00 00 00 00 00 00 00 00 00 00 00 00 00
e1304f70  00 00 00 00 00 00 00 00 00 00 00 00 00 00 00 00
e1304f80  00 00 00 00 00 00 00 00 00 00 00 00 00 00 00 00
e1304f90  00 00 00 00 00 00 00 00 00 00 00 00 00 00 00 00
e1304fa0  00 00 00 00 00 00 00 00 00 00 00 00 00 00 00 00
e1304fb0  00 00 00 00 00 00 00 00 00 00 00 00 00 00 00 00
e1304fc0  4f ff 08 60 00 01 00 00 00 00 00 00 08 60 ff ff
e1304fd0  00 00 00 00 00 00 00 00 ff ff ff ff 00 00 00 00
e1304fe0  00 00 00 ff 00 ff ff ff 00 1f 00 00 00 00 00 00
e1304ff0  00 00 00 00 00 00 00 00 00 00 00 00 00 00 00 00
e1305000  00 00 00 00 00 00 00 00 00 00 00 00 00 00 00 00
e1305010  00 00 00 00 00 00 00 00 00 00 00 00 00 00 00 00
e1305020  00 00 00 00 00 00 00 00 00 00 00 00 00 00 00 00
e1305030  00 00 00 00 00 00 00 00 00 00 00 00 00 00 00 00
e1305040  00 00 00 00 00 00 00 00 4f ff 08 60 00 01 00 00
e1305050  00 00 00 00 08 60 ff ff 00 00 00 00 00 00 00 00
e1305060  ff ff ff ff 00 00 00 00 00 00 00 ff 00 ff ff ff
e1305070  00 1f 00 00 00 00 00 00 00 00 00 00 00 00 00 00
e1305080  00 00 00 00 00 00 00 00 00 00 00 00 00 00 00 00
e1305090  00 00 00 00 00 00 00 00 00 00 00 00 00 00 00 00
e13050a0  00 00 00 00 00 00 00 00 00 00 00 00 00 00 00 00
e13050b0  00 00 00 00 00 00 00 00 00 00 00 00 00 00 00 00
e13050c0  00 00 00 00 00 00 00 00 00 00 00 00 00 00 00 00
e13050d0  4f ff 08 60 00 01 00 00 00 00 00 00 08 60 ff ff
e13050e0  00 00 00 00 00 00 00 00 ff ff ff ff 00 00 00 00
e13050f0  00 00 00 ff 00 ff ff ff 00 1f 00 00 00 00 00 00
e1305100  00 00 00 00 00 00 00 00 00 00 00 00 00 00 00 00
e1305110  00 00 00 00 00 00 00 00 00 00 00 00 00 00 00 00
e1305120  00 00 00 00 00 00 00 00 00 00 00 00 00 00 00 00
e1305130  00 00 00 00 00 00 00 00 00 00 00 00 00 00 00 00
e1305140  00 00 00 00 00 00 00 00 00 00 00 00 00 00 00 00
e1305150  00 00 00 00 00 00 00 00 4f ff 08 60 00 01 00 00
e1305160  00 00 00 00 08 60 ff ff 00 00 00 00 00 00 00 00
e1305170  ff ff ff ff 00 00 00 00 00 00 00 ff 00 ff ff ff
e1305180  00 1f 00 00 00 00 00 00 00 00 00 00 00 00 00 00
e1305190  00 00 00 00 00 00 00 00 00 00 00 00 00 00 00 00
e13051a0  00 00 00 00 00 00 00 00 00 00 00 00 00 00 00 00
e13051b0  00 00 00 00 00 00 00 00 00 00 00 00 00 00 00 00
e13051c0  00 00 00 00 00 00 00 00 00 00 00 00 00 00 00 00
e13051d0  00 00 00 00 00 00 00 00 00 00 00 00 00 00 00 00
e13051e0  4f ff 08 60 00 01 00 00 00 00 00 00 08 60 ff ff
e13051f0  00 00 00 00 00 00 00 00 ff ff ff ff 00 00 00 00
e1305200  00 00 00 ff 00 ff ff ff 00 1f 00 00 00 00 00 00
e1305210  00 00 00 00 00 00 00 00 00 00 00 00 00 00 00 00
e1305220  00 00 00 00 00 00 00 00 00 00 00 00 00 00 00 00
e1305230  00 00 00 00 00 00 00 00 00 00 00 00 00 00 00 00
e1305240  00 00 00 00 00 00 00 00 00 00 00 00 00 00 00 00
e1305250  00 00 00 00 00 00 00 00 00 00 00 00 00 00 00 00
e1305260  00 00 00 00 00 00 00 00 4f ff 08 60 00 01 00 00
e1305270  00 00 00 00 08 60 ff ff 00 00 00 00 00 00 00 00
e1305280  ff ff ff ff 00 00 00 00 00 00 00 ff 00 ff ff ff
e1305290  00 1f 00 00 00 00 00 00 00 00 00 00 00 00 00 00
e13052a0  00 00 00 00 00 00 00 00 00 00 00 00 00 00 00 00
e13052b0  00 00 00 00 00 00 00 00 00 00 00 00 00 00 00 00
e13052c0  00 00 00 00 00 00 00 00 00 00 00 00 00 00 00 00
e13052d0  00 00 00 00 00 00 00 00 00 00 00 00 00 00 00 00
e13052e0  00 00 00 00 00 00 00 00 00 00 00 00 00 00 00 00
e13052f0  4f ff 08 60 00 01 00 00 00 00 00 00 08 60 ff ff
e1305300  00 00 00 00 00 00 00 00 ff ff ff ff 00 00 00 00
e1305310  00 00 00 ff 00 ff ff ff 00 1f 00 00 00 00 00 00
e1305320  00 00 00 00 00 00 00 00 00 00 00 00 00 00 00 00
e1305330  00 00 00 00 00 00 00 00 00 00 00 00 00 00 00 00
e1305340  00 00 00 00 00 00 00 00 00 00 00 00 00 00 00 00
e1305350  00 00 00 00 00 00 00 00 00 00 00 00 00 00 00 00
e1305360  00 00 00 00 00 00 00 00 00 00 00 00 00 00 00 00
e1305370  00 00 00 00 00 00 00 00 4f ff 08 60 00 01 00 00
e1305380  00 00 00 00 08 60 ff ff 00 00 00 00 00 00 00 00
e1305390  ff ff ff ff 00 00 00 00 00 00 00 ff 00 ff ff ff
e13053a0  00 1f 00 00 00 00 00 00 00 00 00 00 00 00 00 00
e13053b0  00 00 00 00 00 00 00 00 00 00 00 00 00 00 00 00
e13053c0  00 00 00 00 00 00 00 00 00 00 00 00 00 00 00 00
e13053d0  00 00 00 00 00 00 00 00 00 00 00 00 00 00 00 00
e13053e0  00 00 00 00 00 00 00 00 00 00 00 00 00 00 00 00
e13053f0  00 00 00 00 00 00 00 00 00 00 00 00 00 00 00 00
e1305400  4f ff 08 60 00 01 00 00 00 00 00 00 08 60 ff ff
e1305410  00 00 00 00 00 00 00 00 ff ff ff ff 00 00 00 00
e1305420  00 00 00 ff 00 ff ff ff 00 1f 00 00 00 00 00 00
e1305430  00 00 00 00 00 00 00 00 00 00 00 00 00 00 00 00
e1305440  00 00 00 00 00 00 00 00 00 00 00 00 00 00 00 00
e1305450  00 00 00 00 00 00 00 00 00 00 00 00 00 00 00 00
e1305460  00 00 00 00 00 00 00 00 00 00 00 00 00 00 00 00
e1305470  00 00 00 00 00 00 00 00 00 00 00 00 00 00 00 00
e1305480  00 00 00 00 00 00 00 00 4f ff 08 60 00 01 00 00
e1305490  00 00 00 00 08 60 ff ff 00 00 00 00 00 00 00 00
e13054a0  ff ff ff ff 00 00 00 00 00 00 00 ff 00 ff ff ff
e13054b0  00 1f 00 00 00 00 00 00 00 00 00 00 00 00 00 00
e13054c0  00 00 00 00 00 00 00 00 00 00 00 00 00 00 00 00
e13054d0  00 00 00 00 00 00 00 00 00 00 00 00 00 00 00 00
e13054e0  00 00 00 00 00 00 00 00 00 00 00 00 00 00 00 00
e13054f0  00 00 00 00 00 00 00 00 00 00 00 00 00 00 00 00
e1305500  00 00 00 00 00 00 00 00 00 00 00 00 00 00 00 00
e1305510  4f ff 08 60 00 01 00 00 00 00 00 00 08 60 ff ff
e1305520  00 00 00 00 00 00 00 00 ff ff ff ff 00 00 00 00
e1305530  00 00 00 ff 00 ff ff ff 00 1f 00 00 00 00 00 00
e1305540  00 00 00 00 00 00 00 00 00 00 00 00 00 00 00 00
e1305550  00 00 00 00 00 00 00 00 00 00 00 00 00 00 00 00
e1305560  00 00 00 00 00 00 00 00 00 00 00 00 00 00 00 00
e1305570  00 00 00 00 00 00 00 00 00 00 00 00 00 00 00 00
e1305580  00 00 00 00 00 00 00 00 00 00 00 00 00 00 00 00
e1305590  00 00 00 00 00 00 00 00 4f ff 08 60 00 01 00 00
e13055a0  00 00 00 00 08 60 ff ff 00 00 00 00 00 00 00 00
e13055b0  ff ff ff ff 00 00 00 00 00 00 00 ff 00 ff ff ff
e13055c0  00 1f 00 00 00 00 00 00 00 00 00 00 00 00 00 00
e13055d0  00 00 00 00 00 00 00 00 00 00 00 00 00 00 00 00
e13055e0  00 00 00 00 00 00 00 00 00 00 00 00 00 00 00 00
e13055f0  00 00 00 00 00 00 00 00 00 00 00 00 00 00 00 00
e1305600  00 00 00 00 00 00 00 00 00 00 00 00 00 00 00 00
e1305610  00 00 00 00 00 00 00 00 00 00 00 00 00 00 00 00
e1305620  4f ff 08 60 00 01 00 00 00 00 00 00 08 60 ff ff
e1305630  00 00 00 00 00 00 00 00 ff ff ff ff 00 00 00 00
e1305640  00 00 00 ff 00 ff ff ff 00 1f 00 00 00 00 00 00
e1305650  00 00 00 00 00 00 00 00 00 00 00 00 00 00 00 00
e1305660  00 00 00 00 00 00 00 00 00 00 00 00 00 00 00 00
e1305670  00 00 00 00 00 00 00 00 00 00 00 00 00 00 00 00
e1305680  00 00 00 00 00 00 00 00 00 00 00 00 00 00 00 00
e1305690  00 00 00 00 00 00 00 00 00 00 00 00 00 00 00 00
e13056a0  00 00 00 00 00 00 00 00 4f ff 08 60 00 01 00 00
e13056b0  00 00 00 00 08 60 ff ff 00 00 00 00 00 00 00 00
e13056c0  ff ff ff ff 00 00 00 00 00 00 00 ff 00 ff ff ff
e13056d0  00 1f 00 00 00 00 00 00 00 00 00 00 00 00 00 00
e13056e0  00 00 00 00 00 00 00 00 00 00 00 00 00 00 00 00
e13056f0  00 00 00 00 00 00 00 00 00 00 00 00 00 00 00 00
e1305700  00 00 00 00 00 00 00 00 00 00 00 00 00 00 00 00
e1305710  00 00 00 00 00 00 00 00 00 00 00 00 00 00 00 00
e1305720  00 00 00 00 00 00 00 00 00 00 00 00 00 00 00 00
e1305730  4f ff 08 60 00 01 00 00 00 00 00 00 08 60 ff ff
e1305740  00 00 00 00 00 00 00 00 ff ff ff ff 00 00 00 00
e1305750  00 00 00 ff 00 ff ff ff 00 1f 00 00 00 00 00 00
e1305760  00 00 00 00 00 00 00 00 00 00 00 00 00 00 00 00
e1305770  00 00 00 00 00 00 00 00 00 00 00 00 00 00 00 00
e1305780  00 00 00 00 00 00 00 00 00 00 00 00 00 00 00 00
e1305790  00 00 00 00 00 00 00 00 00 00 00 00 00 00 00 00
e13057a0  00 00 00 00 00 00 00 00 00 00 00 00 00 00 00 00
e13057b0  00 00 00 00 00 00 00 00 4f ff 08 60 00 01 00 00
e13057c0  00 00 00 00 08 60 ff ff 00 00 00 00 00 00 00 00
e13057d0  ff ff ff ff 00 00 00 00 00 00 00 ff 00 ff ff ff
e13057e0  00 1f 00 00 00 00 00 00 00 00 00 00 00 00 00 00
e13057f0  00 00 00 00 00 00 00 00 00 00 00 00 00 00 00 00
e1305800  00 00 00 00 00 00 00 00 00 00 00 00 00 00 00 00
e1305810  00 00 00 00 00 00 00 00 00 00 00 00 00 00 00 00
e1305820  00 00 00 00 00 00 00 00 00 00 00 00 00 00 00 00
e1305830  00 00 00 00 00 00 00 00 00 00 00 00 00 00 00 00
e1305840  4f ff 08 60 00 01 00 00 00 00 00 00 08 60 ff ff
e1305850  00 00 00 00 00 00 00 00 ff ff ff ff 00 00 00 00
e1305860  00 00 00 ff 00 ff ff ff 00 1f 00 00 00 00 00 00
e1305870  00 00 00 00 00 00 00 00 00 00 00 00 00 00 00 00
e1305880  00 00 00 00 00 00 00 00 00 00 00 00 00 00 00 00
e1305890  00 00 00 00 00 00 00 00 00 00 00 00 00 00 00 00
e13058a0  00 00 00 00 00 00 00 00 00 00 00 00 00 00 00 00
e13058b0  00 00 00 00 00 00 00 00 00 00 00 00 00 00 00 00
e13058c0  00 00 00 00 00 00 00 00 4f ff 08 60 00 01 00 00
e13058d0  00 00 00 00 08 60 ff ff 00 00 00 00 00 00 00 00
e13058e0  ff ff ff ff 00 00 00 00 00 00 00 ff 00 ff ff ff
e13058f0  00 1f 00 00 00 00 00 00 00 00 00 00 00 00 00 00
e1305900  00 00 00 00 00 00 00 00 00 00 00 00 00 00 00 00
e1305910  00 00 00 00 00 00 00 00 00 00 00 00 00 00 00 00
e1305920  00 00 00 00 00 00 00 00 00 00 00 00 00 00 00 00
e1305930  00 00 00 00 00 00 00 00 00 00 00 00 00 00 00 00
e1305940  00 00 00 00 00 00 00 00 00 00 00 00 00 00 00 00
e1305950  4f ff 08 60 00 01 00 00 00 00 00 00 08 60 ff ff
e1305960  00 00 00 00 00 00 00 00 ff ff ff ff 00 00 00 00
e1305970  00 00 00 ff 00 ff ff ff 00 1f 00 00 00 00 00 00
e1305980  00 00 00 00 00 00 00 00 00 00 00 00 00 00 00 00
e1305990  00 00 00 00 00 00 00 00 00 00 00 00 00 00 00 00
e13059a0  00 00 00 00 00 00 00 00 00 00 00 00 00 00 00 00
e13059b0  00 00 00 00 00 00 00 00 00 00 00 00 00 00 00 00
e13059c0  00 00 00 00 00 00 00 00 00 00 00 00 00 00 00 00
e13059d0  00 00 00 00 00 00 00 00 4f ff 08 60 00 01 00 00
e13059e0  00 00 00 00 08 60 ff ff 00 00 00 00 00 00 00 00
e13059f0  ff ff ff ff 00 00 00 00 00 00 00 ff 00 ff ff ff
e1305a00  00 1f 00 00 00 00 00 00 00 00 00 00 00 00 00 00
e1305a10  00 00 00 00 00 00 00 00 00 00 00 00 00 00 00 00
e1305a20  00 00 00 00 00 00 00 00 00 00 00 00 00 00 00 00
e1305a30  00 00 00 00 00 00 00 00 00 00 00 00 00 00 00 00
e1305a40  00 00 00 00 00 00 00 00 00 00 00 00 00 00 00 00
e1305a50  00 00 00 00 00 00 00 00 00 00 00 00 00 00 00 00
e1305a60  4f ff 08 60 00 01 00 00 00 00 00 00 08 60 ff ff
e1305a70  00 00 00 00 00 00 00 00 ff ff ff ff 00 00 00 00
e1305a80  00 00 00 ff 00 ff ff ff 00 1f 00 00 00 00 00 00
e1305a90  00 00 00 00 00 00 00 00 00 00 00 00 00 00 00 00
e1305aa0  00 00 00 00 00 00 00 00 00 00 00 00 00 00 00 00
e1305ab0  00 00 00 00 00 00 00 00 00 00 00 00 00 00 00 00
e1305ac0  00 00 00 00 00 00 00 00 00 00 00 00 00 00 00 00
e1305ad0  00 00 00 00 00 00 00 00 00 00 00 00 00 00 00 00
e1305ae0  00 00 00 00 00 00 00 00 4f ff 08 60 00 01 00 00
e1305af0  00 00 00 00 08 60 ff ff 00 00 00 00 00 00 00 00
e1305b00  ff ff ff ff 00 00 00 00 00 00 00 ff 00 ff ff ff
e1305b10  00 1f 00 00 00 00 00 00 00 00 00 00 00 00 00 00
e1305b20  00 00 00 00 00 00 00 00 00 00 00 00 00 00 00 00
e1305b30  00 00 00 00 00 00 00 00 00 00 00 00 00 00 00 00
e1305b40  00 00 00 00 00 00 00 00 00 00 00 00 00 00 00 00
e1305b50  00 00 00 00 00 00 00 00 00 00 00 00 00 00 00 00
e1305b60  00 00 00 00 00 00 00 00 00 00 00 00 00 00 00 00
e1305b70  4f ff 08 60 00 01 00 00 00 00 00 00 08 60 ff ff
e1305b80  00 00 00 00 00 00 00 00 ff ff ff ff 00 00 00 00
e1305b90  00 00 00 ff 00 ff ff ff 00 1f 00 00 00 00 00 00
e1305ba0  00 00 00 00 00 00 00 00 00 00 00 00 00 00 00 00
e1305bb0  00 00 00 00 00 00 00 00 00 00 00 00 00 00 00 00
e1305bc0  00 00 00 00 00 00 00 00 00 00 00 00 00 00 00 00
e1305bd0  00 00 00 00 00 00 00 00 00 00 00 00 00 00 00 00
e1305be0  00 00 00 00 00 00 00 00 00 00 00 00 00 00 00 00
e1305bf0  00 00 00 00 00 00 00 00 4f ff 08 60 00 01 00 00
e1305c00  00 00 00 00 08 60 ff ff 00 00 00 00 00 00 00 00
e1305c10  ff ff ff ff 00 00 00 00 00 00 00 ff 00 ff ff ff
e1305c20  00 1f 00 00 00 00 00 00 00 00 00 00 00 00 00 00
e1305c30  00 00 00 00 00 00 00 00 00 00 00 00 00 00 00 00
e1305c40  00 00 00 00 00 00 00 00 00 00 00 00 00 00 00 00
e1305c50  00 00 00 00 00 00 00 00 00 00 00 00 00 00 00 00
e1305c60  00 00 00 00 00 00 00 00 00 00 00 00 00 00 00 00
e1305c70  00 00 00 00 00 00 00 00 00 00 00 00 00 00 00 00
e1305c80  4f ff 08 60 00 01 00 00 00 00 00 00 08 60 ff ff
e1305c90  00 00 00 00 00 00 00 00 ff ff ff ff 00 00 00 00
e1305ca0  00 00 00 ff 00 ff ff ff 00 1f 00 00 00 00 00 00
e1305cb0  00 00 00 00 00 00 00 00 00 00 00 00 00 00 00 00
e1305cc0  00 00 00 00 00 00 00 00 00 00 00 00 00 00 00 00
e1305cd0  00 00 00 00 00 00 00 00 00 00 00 00 00 00 00 00
e1305ce0  00 00 00 00 00 00 00 00 00 00 00 00 00 00 00 00
e1305cf0  00 00 00 00 00 00 00 00 00 00 00 00 00 00 00 00
e1305d00  00 00 00 00 00 00 00 00 4f ff 08 60 00 01 00 00
e1305d10  00 00 00 00 08 60 ff ff 00 00 00 00 00 00 00 00
e1305d20  ff ff ff ff 00 00 00 00 00 00 00 ff 00 ff ff ff
e1305d30  00 1f 00 00 00 00 00 00 00 00 00 00 00 00 00 00
e1305d40  00 00 00 00 00 00 00 00 00 00 00 00 00 00 00 00
e1305d50  00 00 00 00 00 00 00 00 00 00 00 00 00 00 00 00
e1305d60  00 00 00 00 00 00 00 00 00 00 00 00 00 00 00 00
e1305d70  00 00 00 00 00 00 00 00 00 00 00 00 00 00 00 00
e1305d80  00 00 00 00 00 00 00 00 00 00 00 00 00 00 00 00
e1305d90  4f ff 08 60 00 01 00 00 00 00 00 00 08 60 ff ff
e1305da0  00 00 00 00 00 00 00 00 ff ff ff ff 00 00 00 00
e1305db0  00 00 00 ff 00 ff ff ff 00 1f 00 00 00 00 00 00
e1305dc0  00 00 00 00 00 00 00 00 00 00 00 00 00 00 00 00
e1305dd0  00 00 00 00 00 00 00 00 00 00 00 00 00 00 00 00
e1305de0  00 00 00 00 00 00 00 00 00 00 00 00 00 00 00 00
e1305df0  00 00 00 00 00 00 00 00 00 00 00 00 00 00 00 00
e1305e00  00 00 00 00 00 00 00 00 00 00 00 00 00 00 00 00
e1305e10  00 00 00 00 00 00 00 00 4f ff 08 60 00 01 00 00
e1305e20  00 00 00 00 08 60 ff ff 00 00 00 00 00 00 00 00
e1305e30  ff ff ff ff 00 00 00 00 00 00 00 ff 00 ff ff ff
e1305e40  00 1f 00 00 00 00 00 00 00 00 00 00 00 00 00 00
e1305e50  00 00 00 00 00 00 00 00 00 00 00 00 00 00 00 00
e1305e60  00 00 00 00 00 00 00 00 00 00 00 00 00 00 00 00
e1305e70  00 00 00 00 00 00 00 00 00 00 00 00 00 00 00 00
e1305e80  00 00 00 00 00 00 00 00 00 00 00 00 00 00 00 00
e1305e90  00 00 00 00 00 00 00 00 00 00 00 00 00 00 00 00
e1305ea0  4f ff 08 60 00 01 00 00 00 00 00 00 08 60 ff ff
e1305eb0  00 00 00 00 00 00 00 00 ff ff ff ff 00 00 00 00
e1305ec0  00 00 00 ff 00 ff ff ff 00 1f 00 00 00 00 00 00
e1305ed0  00 00 00 00 00 00 00 00 00 00 00 00 00 00 00 00
e1305ee0  00 00 00 00 00 00 00 00 00 00 00 00 00 00 00 00
e1305ef0  00 00 00 00 00 00 00 00 00 00 00 00 00 00 00 00
e1305f00  00 00 00 00 00 00 00 00 00 00 00 00 00 00 00 00
e1305f10  00 00 00 00 00 00 00 00 00 00 00 00 00 00 00 00
e1305f20  00 00 00 00 00 00 00 00 4f ff 08 60 00 01 00 00
e1305f30  00 00 00 00 08 60 ff ff 00 00 00 00 00 00 00 00
e1305f40  ff ff ff ff 00 00 00 00 00 00 00 ff 00 ff ff ff
e1305f50  00 1f 00 00 00 00 00 00 00 00 00 00 00 00 00 00
e1305f60  00 00 00 00 00 00 00 00 00 00 00 00 00 00 00 00
e1305f70  00 00 00 00 00 00 00 00 00 00 00 00 00 00 00 00
e1305f80  00 00 00 00 00 00 00 00 00 00 00 00 00 00 00 00
e1305f90  00 00 00 00 00 00 00 00 00 00 00 00 00 00 00 00
e1305fa0  00 00 00 00 00 00 00 00 00 00 00 00 00 00 00 00
e1305fb0  4f ff 08 60 00 01 00 00 00 00 00 00 08 60 ff ff
e1305fc0  00 00 00 00 00 00 00 00 ff ff ff ff 00 00 00 00
e1305fd0  00 00 00 ff 00 ff ff ff 00 1f 00 00 00 00 00 00
e1305fe0  00 00 00 00 00 00 00 00 00 00 00 00 00 00 00 00
e1305ff0  00 00 00 00 00 00 00 00 00 00 00 00 00 00 00 00
e1306000  00 00 00 00 00 00 00 00 00 00 00 00 00 00 00 00
e1306010  00 00 00 00 00 00 00 00 00 00 00 00 00 00 00 00
e1306020  00 00 00 00 00 00 00 00 00 00 00 00 00 00 00 00
e1306030  00 00 00 00 00 00 00 00 4f ff 08 60 00 01 00 00
e1306040  00 00 00 00 08 60 ff ff 00 00 00 00 00 00 00 00
e1306050  ff ff ff ff 00 00 00 00 00 00 00 ff 00 ff ff ff
e1306060  00 1f 00 00 00 00 00 00 00 00 00 00 00 00 00 00
e1306070  00 00 00 00 00 00 00 00 00 00 00 00 00 00 00 00
e1306080  00 00 00 00 00 00 00 00 00 00 00 00 00 00 00 00
e1306090  00 00 00 00 00 00 00 00 00 00 00 00 00 00 00 00
e13060a0  00 00 00 00 00 00 00 00 00 00 00 00 00 00 00 00
e13060b0  00 00 00 00 00 00 00 00 00 00 00 00 00 00 00 00
e13060c0  4f ff 08 60 00 01 00 00 00 00 00 00 08 60 ff ff
e13060d0  00 00 00 00 00 00 00 00 ff ff ff ff 00 00 00 00
e13060e0  00 00 00 ff 00 ff ff ff 00 1f 00 00 00 00 00 00
e13060f0  00 00 00 00 00 00 00 00 00 00 00 00 00 00 00 00
e1306100  00 00 00 00 00 00 00 00 00 00 00 00 00 00 00 00
e1306110  00 00 00 00 00 00 00 00 00 00 00 00 00 00 00 00
e1306120  00 00 00 00 00 00 00 00 00 00 00 00 00 00 00 00
e1306130  00 00 00 00 00 00 00 00 00 00 00 00 00 00 00 00
e1306140  00 00 00 00 00 00 00 00 4f ff 08 60 00 01 00 00
e1306150  00 00 00 00 08 60 ff ff 00 00 00 00 00 00 00 00
e1306160  ff ff ff ff 00 00 00 00 00 00 00 ff 00 ff ff ff
e1306170  00 1f 00 00 00 00 00 00 00 00 00 00 00 00 00 00
e1306180  00 00 00 00 00 00 00 00 00 00 00 00 00 00 00 00
e1306190  00 00 00 00 00 00 00 00 00 00 00 00 00 00 00 00
e13061a0  00 00 00 00 00 00 00 00 00 00 00 00 00 00 00 00
e13061b0  00 00 00 00 00 00 00 00 00 00 00 00 00 00 00 00
e13061c0  00 00 00 00 00 00 00 00 00 00 00 00 00 00 00 00
e13061d0  4f ff 08 60 00 01 00 00 00 00 00 00 08 60 ff ff
e13061e0  00 00 00 00 00 00 00 00 ff ff ff ff 00 00 00 00
e13061f0  00 00 00 ff 00 ff ff ff 00 1f 00 00 00 00 00 00
e1306200  00 00 00 00 00 00 00 00 00 00 00 00 00 00 00 00
e1306210  00 00 00 00 00 00 00 00 00 00 00 00 00 00 00 00
e1306220  00 00 00 00 00 00 00 00 00 00 00 00 00 00 00 00
e1306230  00 00 00 00 00 00 00 00 00 00 00 00 00 00 00 00
e1306240  00 00 00 00 00 00 00 00 00 00 00 00 00 00 00 00
e1306250  00 00 00 00 00 00 00 00 4f ff 08 60 00 01 00 00
e1306260  00 00 00 00 08 60 ff ff 00 00 00 00 00 00 00 00
e1306270  ff ff ff ff 00 00 00 00 00 00 00 ff 00 ff ff ff
e1306280  00 1f 00 00 00 00 00 00 00 00 00 00 00 00 00 00
e1306290  00 00 00 00 00 00 00 00 00 00 00 00 00 00 00 00
e13062a0  00 00 00 00 00 00 00 00 00 00 00 00 00 00 00 00
e13062b0  00 00 00 00 00 00 00 00 00 00 00 00 00 00 00 00
e13062c0  00 00 00 00 00 00 00 00 00 00 00 00 00 00 00 00
e13062d0  00 00 00 00 00 00 00 00 00 00 00 00 00 00 00 00
e13062e0  4f ff 08 60 00 01 00 00 00 00 00 00 08 60 ff ff
e13062f0  00 00 00 00 00 00 00 00 ff ff ff ff 00 00 00 00
e1306300  00 00 00 ff 00 ff ff ff 00 1f 00 00 00 00 00 00
e1306310  00 00 00 00 00 00 00 00 00 00 00 00 00 00 00 00
e1306320  00 00 00 00 00 00 00 00 00 00 00 00 00 00 00 00
e1306330  00 00 00 00 00 00 00 00 00 00 00 00 00 00 00 00
e1306340  00 00 00 00 00 00 00 00 00 00 00 00 00 00 00 00
e1306350  00 00 00 00 00 00 00 00 00 00 00 00 00 00 00 00
e1306360  00 00 00 00 00 00 00 00 4f ff 08 60 00 01 00 00
e1306370  00 00 00 00 08 60 ff ff 00 00 00 00 00 00 00 00
e1306380  ff ff ff ff 00 00 00 00 00 00 00 ff 00 ff ff ff
e1306390  00 1f 00 00 00 00 00 00 00 00 00 00 00 00 00 00
e13063a0  00 00 00 00 00 00 00 00 00 00 00 00 00 00 00 00
e13063b0  00 00 00 00 00 00 00 00 00 00 00 00 00 00 00 00
e13063c0  00 00 00 00 00 00 00 00 00 00 00 00 00 00 00 00
e13063d0  00 00 00 00 00 00 00 00 00 00 00 00 00 00 00 00
e13063e0  00 00 00 00 00 00 00 00 00 00 00 00 00 00 00 00
e13063f0  4f ff 08 60 00 01 00 00 00 00 00 00 08 60 ff ff
e1306400  00 00 00 00 00 00 00 00 ff ff ff ff 00 00 00 00
e1306410  00 00 00 ff 00 ff ff ff 00 1f 00 00 00 00 00 00
e1306420  00 00 00 00 00 00 00 00 00 00 00 00 00 00 00 00
e1306430  00 00 00 00 00 00 00 00 00 00 00 00 00 00 00 00
e1306440  00 00 00 00 00 00 00 00 00 00 00 00 00 00 00 00
e1306450  00 00 00 00 00 00 00 00 00 00 00 00 00 00 00 00
e1306460  00 00 00 00 00 00 00 00 00 00 00 00 00 00 00 00
e1306470  00 00 00 00 00 00 00 00 4f ff 08 60 00 01 00 00
e1306480  00 00 00 00 08 60 ff ff 00 00 00 00 00 00 00 00
e1306490  ff ff ff ff 00 00 00 00 00 00 00 ff 00 ff ff ff
e13064a0  00 1f 00 00 00 00 00 00 00 00 00 00 00 00 00 00
e13064b0  00 00 00 00 00 00 00 00 00 00 00 00 00 00 00 00
e13064c0  00 00 00 00 00 00 00 00 00 00 00 00 00 00 00 00
e13064d0  00 00 00 00 00 00 00 00 00 00 00 00 00 00 00 00
e13064e0  00 00 00 00 00 00 00 00 00 00 00 00 00 00 00 00
e13064f0  00 00 00 00 00 00 00 00 00 00 00 00 00 00 00 00
e1306500  4f ff 08 60 00 01 00 00 00 00 00 00 08 60 ff ff
e1306510  00 00 00 00 00 00 00 00 ff ff ff ff 00 00 00 00
e1306520  00 00 00 ff 00 ff ff ff 00 1f 00 00 00 00 00 00
e1306530  00 00 00 00 00 00 00 00 00 00 00 00 00 00 00 00
e1306540  00 00 00 00 00 00 00 00 00 00 00 00 00 00 00 00
e1306550  00 00 00 00 00 00 00 00 00 00 00 00 00 00 00 00
e1306560  00 00 00 00 00 00 00 00 00 00 00 00 00 00 00 00
e1306570  00 00 00 00 00 00 00 00 00 00 00 00 00 00 00 00
e1306580  00 00 00 00 00 00 00 00 4f ff 08 60 00 01 00 00
e1306590  00 00 00 00 08 60 ff ff 00 00 00 00 00 00 00 00
e13065a0  ff ff ff ff 00 00 00 00 00 00 00 ff 00 ff ff ff
e13065b0  00 1f 00 00 00 00 00 00 00 00 00 00 00 00 00 00
e13065c0  00 00 00 00 00 00 00 00 00 00 00 00 00 00 00 00
e13065d0  00 00 00 00 00 00 00 00 00 00 00 00 00 00 00 00
e13065e0  00 00 00 00 00 00 00 00 00 00 00 00 00 00 00 00
e13065f0  00 00 00 00 00 00 00 00 00 00 00 00 00 00 00 00
e1306600  00 00 00 00 00 00 00 00 00 00 00 00 00 00 00 00
e1306610  4f ff 08 60 00 01 00 00 00 00 00 00 08 60 ff ff
e1306620  00 00 00 00 00 00 00 00 ff ff ff ff 00 00 00 00
e1306630  00 00 00 ff 00 ff ff ff 00 1f 00 00 00 00 00 00
e1306640  00 00 00 00 00 00 00 00 00 00 00 00 00 00 00 00
e1306650  00 00 00 00 00 00 00 00 00 00 00 00 00 00 00 00
e1306660  00 00 00 00 00 00 00 00 00 00 00 00 00 00 00 00
e1306670  00 00 00 00 00 00 00 00 00 00 00 00 00 00 00 00
e1306680  00 00 00 00 00 00 00 00 00 00 00 00 00 00 00 00
e1306690  00 00 00 00 00 00 00 00 4f ff 08 60 00 01 00 00
e13066a0  00 00 00 00 08 60 ff ff 00 00 00 00 00 00 00 00
e13066b0  ff ff ff ff 00 00 00 00 00 00 00 ff 00 ff ff ff
e13066c0  00 1f 00 00 00 00 00 00 00 00 00 00 00 00 00 00
e13066d0  00 00 00 00 00 00 00 00 00 00 00 00 00 00 00 00
e13066e0  00 00 00 00 00 00 00 00 00 00 00 00 00 00 00 00
e13066f0  00 00 00 00 00 00 00 00 00 00 00 00 00 00 00 00
e1306700  00 00 00 00 00 00 00 00 00 00 00 00 00 00 00 00
e1306710  00 00 00 00 00 00 00 00 00 00 00 00 00 00 00 00
e1306720  4f ff 08 60 00 01 00 00 00 00 00 00 08 60 ff ff
e1306730  00 00 00 00 00 00 00 00 ff ff ff ff 00 00 00 00
e1306740  00 00 00 ff 00 ff ff ff 00 1f 00 00 00 00 00 00
e1306750  00 00 00 00 00 00 00 00 00 00 00 00 00 00 00 00
e1306760  00 00 00 00 00 00 00 00 00 00 00 00 00 00 00 00
e1306770  00 00 00 00 00 00 00 00 00 00 00 00 00 00 00 00
e1306780  00 00 00 00 00 00 00 00 00 00 00 00 00 00 00 00
e1306790  00 00 00 00 00 00 00 00 00 00 00 00 00 00 00 00
e13067a0  00 00 00 00 00 00 00 00 4f ff 08 60 00 01 00 00
e13067b0  00 00 00 00 08 60 ff ff 00 00 00 00 00 00 00 00
e13067c0  ff ff ff ff 00 00 00 00 00 00 00 ff 00 ff ff ff
e13067d0  00 1f 00 00 00 00 00 00 00 00 00 00 00 00 00 00
e13067e0  00 00 00 00 00 00 00 00 00 00 00 00 00 00 00 00
e13067f0  00 00 00 00 00 00 00 00 00 00 00 00 00 00 00 00
e1306800  00 00 00 00 00 00 00 00 00 00 00 00 00 00 00 00
e1306810  00 00 00 00 00 00 00 00 00 00 00 00 00 00 00 00
e1306820  00 00 00 00 00 00 00 00 00 00 00 00 00 00 00 00
e1306830  4f ff 08 60 00 01 00 00 00 00 00 00 08 60 ff ff
e1306840  00 00 00 00 00 00 00 00 ff ff ff ff 00 00 00 00
e1306850  00 00 00 ff 00 ff ff ff 00 1f 00 00 00 00 00 00
e1306860  00 00 00 00 00 00 00 00 00 00 00 00 00 00 00 00
e1306870  00 00 00 00 00 00 00 00 00 00 00 00 00 00 00 00
e1306880  00 00 00 00 00 00 00 00 00 00 00 00 00 00 00 00
e1306890  00 00 00 00 00 00 00 00 00 00 00 00 00 00 00 00
e13068a0  00 00 00 00 00 00 00 00 00 00 00 00 00 00 00 00
e13068b0  00 00 00 00 00 00 00 00 4f ff 08 60 00 01 00 00
e13068c0  00 00 00 00 08 60 ff ff 00 00 00 00 00 00 00 00
e13068d0  ff ff ff ff 00 00 00 00 00 00 00 ff 00 ff ff ff
e13068e0  00 1f 00 00 00 00 00 00 00 00 00 00 00 00 00 00
e13068f0  00 00 00 00 00 00 00 00 00 00 00 00 00 00 00 00
e1306900  00 00 00 00 00 00 00 00 00 00 00 00 00 00 00 00
e1306910  00 00 00 00 00 00 00 00 00 00 00 00 00 00 00 00
e1306920  00 00 00 00 00 00 00 00 00 00 00 00 00 00 00 00
e1306930  00 00 00 00 00 00 00 00 00 00 00 00 00 00 00 00
e1306940  4f ff 08 60 00 01 00 00 00 00 00 00 08 60 ff ff
e1306950  00 00 00 00 00 00 00 00 ff ff ff ff 00 00 00 00
e1306960  00 00 00 ff 00 ff ff ff 00 1f 00 00 00 00 00 00
e1306970  00 00 00 00 00 00 00 00 00 00 00 00 00 00 00 00
e1306980  00 00 00 00 00 00 00 00 00 00 00 00 00 00 00 00
e1306990  00 00 00 00 00 00 00 00 00 00 00 00 00 00 00 00
e13069a0  00 00 00 00 00 00 00 00 00 00 00 00 00 00 00 00
e13069b0  00 00 00 00 00 00 00 00 00 00 00 00 00 00 00 00
e13069c0  00 00 00 00 00 00 00 00 4f ff 08 60 00 01 00 00
e13069d0  00 00 00 00 08 60 ff ff 00 00 00 00 00 00 00 00
e13069e0  ff ff ff ff 00 00 00 00 00 00 00 ff 00 ff ff ff
e13069f0  00 1f 00 00 00 00 00 00 00 00 00 00 00 00 00 00
e1306a00  00 00 00 00 00 00 00 00 00 00 00 00 00 00 00 00
e1306a10  00 00 00 00 00 00 00 00 00 00 00 00 00 00 00 00
e1306a20  00 00 00 00 00 00 00 00 00 00 00 00 00 00 00 00
e1306a30  00 00 00 00 00 00 00 00 00 00 00 00 00 00 00 00
e1306a40  00 00 00 00 00 00 00 00 00 00 00 00 00 00 00 00
e1306a50  4f ff 08 60 00 01 00 00 00 00 00 00 08 60 ff ff
e1306a60  00 00 00 00 00 00 00 00 ff ff ff ff 00 00 00 00
e1306a70  00 00 00 ff 00 ff ff ff 00 1f 00 00 00 00 00 00
e1306a80  00 00 00 00 00 00 00 00 00 00 00 00 00 00 00 00
e1306a90  00 00 00 00 00 00 00 00 00 00 00 00 00 00 00 00
e1306aa0  00 00 00 00 00 00 00 00 00 00 00 00 00 00 00 00
e1306ab0  00 00 00 00 00 00 00 00 00 00 00 00 00 00 00 00
e1306ac0  00 00 00 00 00 00 00 00 00 00 00 00 00 00 00 00
e1306ad0  00 00 00 00 00 00 00 00 4f ff 08 60 00 01 00 00
e1306ae0  00 00 00 00 08 60 ff ff 00 00 00 00 00 00 00 00
e1306af0  ff ff ff ff 00 00 00 00 00 00 00 ff 00 ff ff ff
e1306b00  00 1f 00 00 00 00 00 00 00 00 00 00 00 00 00 00
e1306b10  00 00 00 00 00 00 00 00 00 00 00 00 00 00 00 00
e1306b20  00 00 00 00 00 00 00 00 00 00 00 00 00 00 00 00
e1306b30  00 00 00 00 00 00 00 00 00 00 00 00 00 00 00 00
e1306b40  00 00 00 00 00 00 00 00 00 00 00 00 00 00 00 00
e1306b50  00 00 00 00 00 00 00 00 00 00 00 00 00 00 00 00
e1306b60  4f ff 08 60 00 01 00 00 00 00 00 00 08 60 ff ff
e1306b70  00 00 00 00 00 00 00 00 ff ff ff ff 00 00 00 00
e1306b80  00 00 00 ff 00 ff ff ff 00 1f 00 00 00 00 00 00
e1306b90  00 00 00 00 00 00 00 00 00 00 00 00 00 00 00 00
e1306ba0  00 00 00 00 00 00 00 00 00 00 00 00 00 00 00 00
e1306bb0  00 00 00 00 00 00 00 00 00 00 00 00 00 00 00 00
e1306bc0  00 00 00 00 00 00 00 00 00 00 00 00 00 00 00 00
e1306bd0  00 00 00 00 00 00 00 00 00 00 00 00 00 00 00 00
e1306be0  00 00 00 00 00 00 00 00 4f ff 08 60 00 01 00 00
e1306bf0  00 00 00 00 08 60 ff ff 00 00 00 00 00 00 00 00
e1306c00  ff ff ff ff 00 00 00 00 00 00 00 ff 00 ff ff ff
e1306c10  00 1f 00 00 00 00 00 00 00 00 00 00 00 00 00 00
e1306c20  00 00 00 00 00 00 00 00 00 00 00 00 00 00 00 00
e1306c30  00 00 00 00 00 00 00 00 00 00 00 00 00 00 00 00
e1306c40  00 00 00 00 00 00 00 00 00 00 00 00 00 00 00 00
e1306c50  00 00 00 00 00 00 00 00 00 00 00 00 00 00 00 00
e1306c60  00 00 00 00 00 00 00 00 00 00 00 00 00 00 00 00
e1306c70  4f ff 08 60 00 01 00 00 00 00 00 00 08 60 ff ff
e1306c80  00 00 00 00 00 00 00 00 ff ff ff ff 00 00 00 00
e1306c90  00 00 00 ff 00 ff ff ff 00 1f 00 00 00 00 00 00
e1306ca0  00 00 00 00 00 00 00 00 00 00 00 00 00 00 00 00
e1306cb0  00 00 00 00 00 00 00 00 00 00 00 00 00 00 00 00
e1306cc0  00 00 00 00 00 00 00 00 00 00 00 00 00 00 00 00
e1306cd0  00 00 00 00 00 00 00 00 00 00 00 00 00 00 00 00
e1306ce0  00 00 00 00 00 00 00 00 00 00 00 00 00 00 00 00
e1306cf0  00 00 00 00 00 00 00 00 4f ff 08 60 00 01 00 00
e1306d00  00 00 00 00 08 60 ff ff 00 00 00 00 00 00 00 00
e1306d10  ff ff ff ff 00 00 00 00 00 00 00 ff 00 ff ff ff
e1306d20  00 1f 00 00 00 00 00 00 00 00 00 00 00 00 00 00
e1306d30  00 00 00 00 00 00 00 00 00 00 00 00 00 00 00 00
e1306d40  00 00 00 00 00 00 00 00 00 00 00 00 00 00 00 00
e1306d50  00 00 00 00 00 00 00 00 00 00 00 00 00 00 00 00
e1306d60  00 00 00 00 00 00 00 00 00 00 00 00 00 00 00 00
e1306d70  00 00 00 00 00 00 00 00 00 00 00 00 00 00 00 00
e1306d80  4f ff 08 60 00 01 00 00 00 00 00 00 08 60 ff ff
e1306d90  00 00 00 00 00 00 00 00 ff ff ff ff 00 00 00 00
e1306da0  00 00 00 ff 00 ff ff ff 00 1f 00 00 00 00 00 00
e1306db0  00 00 00 00 00 00 00 00 00 00 00 00 00 00 00 00
e1306dc0  00 00 00 00 00 00 00 00 00 00 00 00 00 00 00 00
e1306dd0  00 00 00 00 00 00 00 00 00 00 00 00 00 00 00 00
e1306de0  00 00 00 00 00 00 00 00 00 00 00 00 00 00 00 00
e1306df0  00 00 00 00 00 00 00 00 00 00 00 00 00 00 00 00
e1306e00  00 00 00 00 00 00 00 00 4f ff 08 60 00 01 00 00
e1306e10  00 00 00 00 08 60 ff ff 00 00 00 00 00 00 00 00
e1306e20  ff ff ff ff 00 00 00 00 00 00 00 ff 00 ff ff ff
e1306e30  00 1f 00 00 00 00 00 00 00 00 00 00 00 00 00 00
e1306e40  00 00 00 00 00 00 00 00 00 00 00 00 00 00 00 00
e1306e50  00 00 00 00 00 00 00 00 00 00 00 00 00 00 00 00
e1306e60  00 00 00 00 00 00 00 00 00 00 00 00 00 00 00 00
e1306e70  00 00 00 00 00 00 00 00 00 00 00 00 00 00 00 00
e1306e80  00 00 00 00 00 00 00 00 00 00 00 00 00 00 00 00
e1306e90  4f ff 08 60 00 01 00 00 00 00 00 00 08 60 ff ff
e1306ea0  00 00 00 00 00 00 00 00 ff ff ff ff 00 00 00 00
e1306eb0  00 00 00 ff 00 ff ff ff 00 1f 00 00 00 00 00 00
e1306ec0  00 00 00 00 00 00 00 00 00 00 00 00 00 00 00 00
e1306ed0  00 00 00 00 00 00 00 00 00 00 00 00 00 00 00 00
e1306ee0  00 00 00 00 00 00 00 00 00 00 00 00 00 00 00 00
e1306ef0  00 00 00 00 00 00 00 00 00 00 00 00 00 00 00 00
e1306f00  00 00 00 00 00 00 00 00 00 00 00 00 00 00 00 00
e1306f10  00 00 00 00 00 00 00 00 4f ff 08 60 00 01 00 00
e1306f20  00 00 00 00 08 60 ff ff 00 00 00 00 00 00 00 00
e1306f30  ff ff ff ff 00 00 00 00 00 00 00 ff 00 ff ff ff
e1306f40  00 1f 00 00 00 00 00 00 00 00 00 00 00 00 00 00
e1306f50  00 00 00 00 00 00 00 00 00 00 00 00 00 00 00 00
e1306f60  00 00 00 00 00 00 00 00 00 00 00 00 00 00 00 00
e1306f70  00 00 00 00 00 00 00 00 00 00 00 00 00 00 00 00
e1306f80  00 00 00 00 00 00 00 00 00 00 00 00 00 00 00 00
e1306f90  00 00 00 00 00 00 00 00 00 00 00 00 00 00 00 00
e1306fa0  4f ff 08 60 00 01 00 00 00 00 00 00 08 60 ff ff
e1306fb0  00 00 00 00 00 00 00 00 ff ff ff ff 00 00 00 00
e1306fc0  00 00 00 ff 00 ff ff ff 00 1f 00 00 00 00 00 00
e1306fd0  00 00 00 00 00 00 00 00 00 00 00 00 00 00 00 00
e1306fe0  00 00 00 00 00 00 00 00 00 00 00 00 00 00 00 00
e1306ff0  00 00 00 00 00 00 00 00 00 00 00 00 00 00 00 00
e1307000  00 00 00 00 00 00 00 00 00 00 00 00 00 00 00 00
e1307010  00 00 00 00 00 00 00 00 00 00 00 00 00 00 00 00
e1307020  00 00 00 00 00 00 00 00 4f ff 08 60 00 01 00 00
e1307030  00 00 00 00 08 60 ff ff 00 00 00 00 00 00 00 00
e1307040  ff ff ff ff 00 00 00 00 00 00 00 ff 00 ff ff ff
e1307050  00 1f 00 00 00 00 00 00 00 00 00 00 00 00 00 00
e1307060  00 00 00 00 00 00 00 00 00 00 00 00 00 00 00 00
e1307070  00 00 00 00 00 00 00 00 00 00 00 00 00 00 00 00
e1307080  00 00 00 00 00 00 00 00 00 00 00 00 00 00 00 00
e1307090  00 00 00 00 00 00 00 00 00 00 00 00 00 00 00 00
e13070a0  00 00 00 00 00 00 00 00 00 00 00 00 00 00 00 00
e13070b0  4f ff 08 60 00 01 00 00 00 00 00 00 08 60 ff ff
e13070c0  00 00 00 00 00 00 00 00 ff ff ff ff 00 00 00 00
e13070d0  00 00 00 ff 00 ff ff ff 00 1f 00 00 00 00 00 00
e13070e0  00 00 00 00 00 00 00 00 00 00 00 00 00 00 00 00
e13070f0  00 00 00 00 00 00 00 00 00 00 00 00 00 00 00 00
e1307100  00 00 00 00 00 00 00 00 00 00 00 00 00 00 00 00
e1307110  00 00 00 00 00 00 00 00 00 00 00 00 00 00 00 00
e1307120  00 00 00 00 00 00 00 00 00 00 00 00 00 00 00 00
e1307130  00 00 00 00 00 00 00 00 4f ff 08 60 00 01 00 00
e1307140  00 00 00 00 08 60 ff ff 00 00 00 00 00 00 00 00
e1307150  ff ff ff ff 00 00 00 00 00 00 00 ff 00 ff ff ff
e1307160  00 1f 00 00 00 00 00 00 00 00 00 00 00 00 00 00
e1307170  00 00 00 00 00 00 00 00 00 00 00 00 00 00 00 00
e1307180  00 00 00 00 00 00 00 00 00 00 00 00 00 00 00 00
e1307190  00 00 00 00 00 00 00 00 00 00 00 00 00 00 00 00
e13071a0  00 00 00 00 00 00 00 00 00 00 00 00 00 00 00 00
e13071b0  00 00 00 00 00 00 00 00 00 00 00 00 00 00 00 00
e13071c0  4f ff 08 60 00 01 00 00 00 00 00 00 08 60 ff ff
e13071d0  00 00 00 00 00 00 00 00 ff ff ff ff 00 00 00 00
e13071e0  00 00 00 ff 00 ff ff ff 00 1f 00 00 00 00 00 00
e13071f0  00 00 00 00 00 00 00 00 00 00 00 00 00 00 00 00
e1307200  00 00 00 00 00 00 00 00 00 00 00 00 00 00 00 00
e1307210  00 00 00 00 00 00 00 00 00 00 00 00 00 00 00 00
e1307220  00 00 00 00 00 00 00 00 00 00 00 00 00 00 00 00
e1307230  00 00 00 00 00 00 00 00 00 00 00 00 00 00 00 00
e1307240  00 00 00 00 00 00 00 00 4f ff 08 60 00 01 00 00
e1307250  00 00 00 00 08 60 ff ff 00 00 00 00 00 00 00 00
e1307260  ff ff ff ff 00 00 00 00 00 00 00 ff 00 ff ff ff
e1307270  00 1f 00 00 00 00 00 00 00 00 00 00 00 00 00 00
e1307280  00 00 00 00 00 00 00 00 00 00 00 00 00 00 00 00
e1307290  00 00 00 00 00 00 00 00 00 00 00 00 00 00 00 00
e13072a0  00 00 00 00 00 00 00 00 00 00 00 00 00 00 00 00
e13072b0  00 00 00 00 00 00 00 00 00 00 00 00 00 00 00 00
e13072c0  00 00 00 00 00 00 00 00 00 00 00 00 00 00 00 00
e13072d0  4f ff 08 60 00 01 00 00 00 00 00 00 08 60 ff ff
e13072e0  00 00 00 00 00 00 00 00 ff ff ff ff 00 00 00 00
e13072f0  00 00 00 ff 00 ff ff ff 00 1f 00 00 00 00 00 00
e1307300  00 00 00 00 00 00 00 00 00 00 00 00 00 00 00 00
e1307310  00 00 00 00 00 00 00 00 00 00 00 00 00 00 00 00
e1307320  00 00 00 00 00 00 00 00 00 00 00 00 00 00 00 00
e1307330  00 00 00 00 00 00 00 00 00 00 00 00 00 00 00 00
e1307340  00 00 00 00 00 00 00 00 00 00 00 00 00 00 00 00
e1307350  00 00 00 00 00 00 00 00 4f ff 08 60 00 01 00 00
e1307360  00 00 00 00 08 60 ff ff 00 00 00 00 00 00 00 00
e1307370  ff ff ff ff 00 00 00 00 00 00 00 ff 00 ff ff ff
e1307380  00 1f 00 00 00 00 00 00 00 00 00 00 00 00 00 00
e1307390  00 00 00 00 00 00 00 00 00 00 00 00 00 00 00 00
e13073a0  00 00 00 00 00 00 00 00 00 00 00 00 00 00 00 00
e13073b0  00 00 00 00 00 00 00 00 00 00 00 00 00 00 00 00
e13073c0  00 00 00 00 00 00 00 00 00 00 00 00 00 00 00 00
e13073d0  00 00 00 00 00 00 00 00 00 00 00 00 00 00 00 00
e13073e0  4f ff 08 60 00 01 00 00 00 00 00 00 08 60 ff ff
e13073f0  00 00 00 00 00 00 00 00 ff ff ff ff 00 00 00 00
e1307400  00 00 00 ff 00 ff ff ff 00 1f 00 00 00 00 00 00
e1307410  00 00 00 00 00 00 00 00 00 00 00 00 00 00 00 00
e1307420  00 00 00 00 00 00 00 00 00 00 00 00 00 00 00 00
e1307430  00 00 00 00 00 00 00 00 00 00 00 00 00 00 00 00
e1307440  00 00 00 00 00 00 00 00 00 00 00 00 00 00 00 00
e1307450  00 00 00 00 00 00 00 00 00 00 00 00 00 00 00 00
e1307460  00 00 00 00 00 00 00 00 4f ff 08 60 00 01 00 00
e1307470  00 00 00 00 08 60 ff ff 00 00 00 00 00 00 00 00
e1307480  ff ff ff ff 00 00 00 00 00 00 00 ff 00 ff ff ff
e1307490  00 1f 00 00 00 00 00 00 00 00 00 00 00 00 00 00
e13074a0  00 00 00 00 00 00 00 00 00 00 00 00 00 00 00 00
e13074b0  00 00 00 00 00 00 00 00 00 00 00 00 00 00 00 00
e13074c0  00 00 00 00 00 00 00 00 00 00 00 00 00 00 00 00
e13074d0  00 00 00 00 00 00 00 00 00 00 00 00 00 00 00 00
e13074e0  00 00 00 00 00 00 00 00 00 00 00 00 00 00 00 00
e13074f0  4f ff 08 60 00 01 00 00 00 00 00 00 08 60 ff ff
e1307500  00 00 00 00 00 00 00 00 ff ff ff ff 00 00 00 00
e1307510  00 00 00 ff 00 ff ff ff 00 1f 00 00 00 00 00 00
e1307520  00 00 00 00 00 00 00 00 00 00 00 00 00 00 00 00
e1307530  00 00 00 00 00 00 00 00 00 00 00 00 00 00 00 00
e1307540  00 00 00 00 00 00 00 00 00 00 00 00 00 00 00 00
e1307550  00 00 00 00 00 00 00 00 00 00 00 00 00 00 00 00
e1307560  00 00 00 00 00 00 00 00 00 00 00 00 00 00 00 00
e1307570  00 00 00 00 00 00 00 00 4f ff 08 60 00 01 00 00
e1307580  00 00 00 00 08 60 ff ff 00 00 00 00 00 00 00 00
e1307590  ff ff ff ff 00 00 00 00 00 00 00 ff 00 ff ff ff
e13075a0  00 1f 00 00 00 00 00 00 00 00 00 00 00 00 00 00
e13075b0  00 00 00 00 00 00 00 00 00 00 00 00 00 00 00 00
e13075c0  00 00 00 00 00 00 00 00 00 00 00 00 00 00 00 00
e13075d0  00 00 00 00 00 00 00 00 00 00 00 00 00 00 00 00
e13075e0  00 00 00 00 00 00 00 00 00 00 00 00 00 00 00 00
e13075f0  00 00 00 00 00 00 00 00 00 00 00 00 00 00 00 00
e1307600  4f ff 08 60 00 01 00 00 00 00 00 00 08 60 ff ff
e1307610  00 00 00 00 00 00 00 00 ff ff ff ff 00 00 00 00
e1307620  00 00 00 ff 00 ff ff ff 00 1f 00 00 00 00 00 00
e1307630  00 00 00 00 00 00 00 00 00 00 00 00 00 00 00 00
e1307640  00 00 00 00 00 00 00 00 00 00 00 00 00 00 00 00
e1307650  00 00 00 00 00 00 00 00 00 00 00 00 00 00 00 00
e1307660  00 00 00 00 00 00 00 00 00 00 00 00 00 00 00 00
e1307670  00 00 00 00 00 00 00 00 00 00 00 00 00 00 00 00
e1307680  00 00 00 00 00 00 00 00 4f ff 08 60 00 01 00 00
e1307690  00 00 00 00 08 60 ff ff 00 00 00 00 00 00 00 00
e13076a0  ff ff ff ff 00 00 00 00 00 00 00 ff 00 ff ff ff
e13076b0  00 1f 00 00 00 00 00 00 00 00 00 00 00 00 00 00
e13076c0  00 00 00 00 00 00 00 00 00 00 00 00 00 00 00 00
e13076d0  00 00 00 00 00 00 00 00 00 00 00 00 00 00 00 00
e13076e0  00 00 00 00 00 00 00 00 00 00 00 00 00 00 00 00
e13076f0  00 00 00 00 00 00 00 00 00 00 00 00 00 00 00 00
e1307700  00 00 00 00 00 00 00 00 00 00 00 00 00 00 00 00
e1307710  4f ff 08 60 00 01 00 00 00 00 00 00 08 60 ff ff
e1307720  00 00 00 00 00 00 00 00 ff ff ff ff 00 00 00 00
e1307730  00 00 00 ff 00 ff ff ff 00 1f 00 00 00 00 00 00
e1307740  00 00 00 00 00 00 00 00 00 00 00 00 00 00 00 00
e1307750  00 00 00 00 00 00 00 00 00 00 00 00 00 00 00 00
e1307760  00 00 00 00 00 00 00 00 00 00 00 00 00 00 00 00
e1307770  00 00 00 00 00 00 00 00 00 00 00 00 00 00 00 00
e1307780  00 00 00 00 00 00 00 00 00 00 00 00 00 00 00 00
e1307790  00 00 00 00 00 00 00 00 4f ff 08 60 00 01 00 00
e13077a0  00 00 00 00 08 60 ff ff 00 00 00 00 00 00 00 00
e13077b0  ff ff ff ff 00 00 00 00 00 00 00 ff 00 ff ff ff
e13077c0  00 1f 00 00 00 00 00 00 00 00 00 00 00 00 00 00
e13077d0  00 00 00 00 00 00 00 00 00 00 00 00 00 00 00 00
e13077e0  00 00 00 00 00 00 00 00 00 00 00 00 00 00 00 00
e13077f0  00 00 00 00 00 00 00 00 00 00 00 00 00 00 00 00
e1307800  00 00 00 00 00 00 00 00 00 00 00 00 00 00 00 00
e1307810  00 00 00 00 00 00 00 00 00 00 00 00 00 00 00 00
e1307820  4f ff 08 60 00 01 00 00 00 00 00 00 08 60 ff ff
e1307830  00 00 00 00 00 00 00 00 ff ff ff ff 00 00 00 00
e1307840  00 00 00 ff 00 ff ff ff 00 1f 00 00 00 00 00 00
e1307850  00 00 00 00 00 00 00 00 00 00 00 00 00 00 00 00
e1307860  00 00 00 00 00 00 00 00 00 00 00 00 00 00 00 00
e1307870  00 00 00 00 00 00 00 00 00 00 00 00 00 00 00 00
e1307880  00 00 00 00 00 00 00 00 00 00 00 00 00 00 00 00
e1307890  00 00 00 00 00 00 00 00 00 00 00 00 00 00 00 00
e13078a0  00 00 00 00 00 00 00 00 4f ff 08 60 00 01 00 00
e13078b0  00 00 00 00 08 60 ff ff 00 00 00 00 00 00 00 00
e13078c0  ff ff ff ff 00 00 00 00 00 00 00 ff 00 ff ff ff
e13078d0  00 1f 00 00 00 00 00 00 00 00 00 00 00 00 00 00
e13078e0  00 00 00 00 00 00 00 00 00 00 00 00 00 00 00 00
e13078f0  00 00 00 00 00 00 00 00 00 00 00 00 00 00 00 00
e1307900  00 00 00 00 00 00 00 00 00 00 00 00 00 00 00 00
e1307910  00 00 00 00 00 00 00 00 00 00 00 00 00 00 00 00
e1307920  00 00 00 00 00 00 00 00 00 00 00 00 00 00 00 00
e1307930  4f ff 08 60 00 01 00 00 00 00 00 00 08 60 ff ff
e1307940  00 00 00 00 00 00 00 00 ff ff ff ff 00 00 00 00
e1307950  00 00 00 ff 00 ff ff ff 00 1f 00 00 00 00 00 00
e1307960  00 00 00 00 00 00 00 00 00 00 00 00 00 00 00 00
e1307970  00 00 00 00 00 00 00 00 00 00 00 00 00 00 00 00
e1307980  00 00 00 00 00 00 00 00 00 00 00 00 00 00 00 00
e1307990  00 00 00 00 00 00 00 00 00 00 00 00 00 00 00 00
e13079a0  00 00 00 00 00 00 00 00 00 00 00 00 00 00 00 00
e13079b0  00 00 00 00 00 00 00 00 4f ff 08 60 00 01 00 00
e13079c0  00 00 00 00 08 60 ff ff 00 00 00 00 00 00 00 00
e13079d0  ff ff ff ff 00 00 00 00 00 00 00 ff 00 ff ff ff
e13079e0  00 1f 00 00 00 00 00 00 00 00 00 00 00 00 00 00
e13079f0  00 00 00 00 00 00 00 00 00 00 00 00 00 00 00 00
e1307a00  00 00 00 00 00 00 00 00 00 00 00 00 00 00 00 00
e1307a10  00 00 00 00 00 00 00 00 00 00 00 00 00 00 00 00
e1307a20  00 00 00 00 00 00 00 00 00 00 00 00 00 00 00 00
e1307a30  00 00 00 00 00 00 00 00 00 00 00 00 00 00 00 00
e1307a40  4f ff 08 60 00 01 00 00 00 00 00 00 08 60 ff ff
e1307a50  00 00 00 00 00 00 00 00 ff ff ff ff 00 00 00 00
e1307a60  00 00 00 ff 00 ff ff ff 00 1f 00 00 00 00 00 00
e1307a70  00 00 00 00 00 00 00 00 00 00 00 00 00 00 00 00
e1307a80  00 00 00 00 00 00 00 00 00 00 00 00 00 00 00 00
e1307a90  00 00 00 00 00 00 00 00 00 00 00 00 00 00 00 00
e1307aa0  00 00 00 00 00 00 00 00 00 00 00 00 00 00 00 00
e1307ab0  00 00 00 00 00 00 00 00 00 00 00 00 00 00 00 00
e1307ac0  00 00 00 00 00 00 00 00 4f ff 08 60 00 01 00 00
e1307ad0  00 00 00 00 08 60 ff ff 00 00 00 00 00 00 00 00
e1307ae0  ff ff ff ff 00 00 00 00 00 00 00 ff 00 ff ff ff
e1307af0  00 1f 00 00 00 00 00 00 00 00 00 00 00 00 00 00
e1307b00  00 00 00 00 00 00 00 00 00 00 00 00 00 00 00 00
e1307b10  00 00 00 00 00 00 00 00 00 00 00 00 00 00 00 00
e1307b20  00 00 00 00 00 00 00 00 00 00 00 00 00 00 00 00
e1307b30  00 00 00 00 00 00 00 00 00 00 00 00 00 00 00 00
e1307b40  00 00 00 00 00 00 00 00 00 00 00 00 00 00 00 00
e1307b50  4f ff 08 60 00 01 00 00 00 00 00 00 08 60 ff ff
e1307b60  00 00 00 00 00 00 00 00 ff ff ff ff 00 00 00 00
e1307b70  00 00 00 ff 00 ff ff ff 00 1f 00 00 00 00 00 00
e1307b80  00 00 00 00 00 00 00 00 00 00 00 00 00 00 00 00
e1307b90  00 00 00 00 00 00 00 00 00 00 00 00 00 00 00 00
e1307ba0  00 00 00 00 00 00 00 00 00 00 00 00 00 00 00 00
e1307bb0  00 00 00 00 00 00 00 00 00 00 00 00 00 00 00 00
e1307bc0  00 00 00 00 00 00 00 00 00 00 00 00 00 00 00 00
e1307bd0  00 00 00 00 00 00 00 00 4f ff 08 60 00 01 00 00
e1307be0  00 00 00 00 08 60 ff ff 00 00 00 00 00 00 00 00
e1307bf0  ff ff ff ff 00 00 00 00 00 00 00 ff 00 ff ff ff
e1307c00  00 1f 00 00 00 00 00 00 00 00 00 00 00 00 00 00
e1307c10  00 00 00 00 00 00 00 00 00 00 00 00 00 00 00 00
e1307c20  00 00 00 00 00 00 00 00 00 00 00 00 00 00 00 00
e1307c30  00 00 00 00 00 00 00 00 00 00 00 00 00 00 00 00
e1307c40  00 00 00 00 00 00 00 00 00 00 00 00 00 00 00 00
e1307c50  00 00 00 00 00 00 00 00 00 00 00 00 00 00 00 00
e1307c60  4f ff 08 60 00 01 00 00 00 00 00 00 08 60 ff ff
e1307c70  00 00 00 00 00 00 00 00 ff ff ff ff 00 00 00 00
e1307c80  00 00 00 ff 00 ff ff ff 00 1f 00 00 00 00 00 00
e1307c90  00 00 00 00 00 00 00 00 00 00 00 00 00 00 00 00
e1307ca0  00 00 00 00 00 00 00 00 00 00 00 00 00 00 00 00
e1307cb0  00 00 00 00 00 00 00 00 00 00 00 00 00 00 00 00
e1307cc0  00 00 00 00 00 00 00 00 00 00 00 00 00 00 00 00
e1307cd0  00 00 00 00 00 00 00 00 00 00 00 00 00 00 00 00
e1307ce0  00 00 00 00 00 00 00 00 4f ff 08 60 00 01 00 00
e1307cf0  00 00 00 00 08 60 ff ff 00 00 00 00 00 00 00 00
e1307d00  ff ff ff ff 00 00 00 00 00 00 00 ff 00 ff ff ff
e1307d10  00 1f 00 00 00 00 00 00 00 00 00 00 00 00 00 00
e1307d20  00 00 00 00 00 00 00 00 00 00 00 00 00 00 00 00
e1307d30  00 00 00 00 00 00 00 00 00 00 00 00 00 00 00 00
e1307d40  00 00 00 00 00 00 00 00 00 00 00 00 00 00 00 00
e1307d50  00 00 00 00 00 00 00 00 00 00 00 00 00 00 00 00
e1307d60  00 00 00 00 00 00 00 00 00 00 00 00 00 00 00 00
e1307d70  4f ff 08 60 00 01 00 00 00 00 00 00 08 60 ff ff
e1307d80  00 00 00 00 00 00 00 00 ff ff ff ff 00 00 00 00
e1307d90  00 00 00 ff 00 ff ff ff 00 1f 00 00 00 00 00 00
e1307da0  00 00 00 00 00 00 00 00 00 00 00 00 00 00 00 00
e1307db0  00 00 00 00 00 00 00 00 00 00 00 00 00 00 00 00
e1307dc0  00 00 00 00 00 00 00 00 00 00 00 00 00 00 00 00
e1307dd0  00 00 00 00 00 00 00 00 00 00 00 00 00 00 00 00
e1307de0  00 00 00 00 00 00 00 00 00 00 00 00 00 00 00 00
e1307df0  00 00 00 00 00 00 00 00 4f ff 08 60 00 01 00 00
e1307e00  00 00 00 00 08 60 ff ff 00 00 00 00 00 00 00 00
e1307e10  ff ff ff ff 00 00 00 00 00 00 00 ff 00 ff ff ff
e1307e20  00 1f 00 00 00 00 00 00 00 00 00 00 00 00 00 00
e1307e30  00 00 00 00 00 00 00 00 00 00 00 00 00 00 00 00
e1307e40  00 00 00 00 00 00 00 00 00 00 00 00 00 00 00 00
e1307e50  00 00 00 00 00 00 00 00 00 00 00 00 00 00 00 00
e1307e60  00 00 00 00 00 00 00 00 00 00 00 00 00 00 00 00
e1307e70  00 00 00 00 00 00 00 00 00 00 00 00 00 00 00 00
e1307e80  4f ff 08 60 00 01 00 00 00 00 00 00 08 60 ff ff
e1307e90  00 00 00 00 00 00 00 00 ff ff ff ff 00 00 00 00
e1307ea0  00 00 00 ff 00 ff ff ff 00 1f 00 00 00 00 00 00
e1307eb0  00 00 00 00 00 00 00 00 00 00 00 00 00 00 00 00
e1307ec0  00 00 00 00 00 00 00 00 00 00 00 00 00 00 00 00
e1307ed0  00 00 00 00 00 00 00 00 00 00 00 00 00 00 00 00
e1307ee0  00 00 00 00 00 00 00 00 00 00 00 00 00 00 00 00
e1307ef0  00 00 00 00 00 00 00 00 00 00 00 00 00 00 00 00
e1307f00  00 00 00 00 00 00 00 00 4f ff 08 60 00 01 00 00
e1307f10  00 00 00 00 08 60 ff ff 00 00 00 00 00 00 00 00
e1307f20  ff ff ff ff 00 00 00 00 00 00 00 ff 00 ff ff ff
e1307f30  00 1f 00 00 00 00 00 00 00 00 00 00 00 00 00 00
e1307f40  00 00 00 00 00 00 00 00 00 00 00 00 00 00 00 00
e1307f50  00 00 00 00 00 00 00 00 00 00 00 00 00 00 00 00
e1307f60  00 00 00 00 00 00 00 00 00 00 00 00 00 00 00 00
e1307f70  00 00 00 00 00 00 00 00 00 00 00 00 00 00 00 00
e1307f80  00 00 00 00 00 00 00 00 00 00 00 00 00 00 00 00
e1307f90  4f ff 08 60 00 01 00 00 00 00 00 00 08 60 ff ff
e1307fa0  00 00 00 00 00 00 00 00 ff ff ff ff 00 00 00 00
e1307fb0  00 00 00 ff 00 ff ff ff 00 1f 00 00 00 00 00 00
e1307fc0  00 00 00 00 00 00 00 00 00 00 00 00 00 00 00 00
e1307fd0  00 00 00 00 00 00 00 00 00 00 00 00 00 00 00 00
e1307fe0  00 00 00 00 00 00 00 00 00 00 00 00 00 00 00 00
e1307ff0  00 00 00 00 00 00 00 00 00 00 00 00 00 00 00 00
e1308000  00 00 00 00 00 00 00 00 00 00 00 00 00 00 00 00
e1308010  00 00 00 00 00 00 00 00 4f ff 08 60 00 01 00 00
e1308020  00 00 00 00 08 60 ff ff 00 00 00 00 00 00 00 00
e1308030  ff ff ff ff 00 00 00 00 00 00 00 ff 00 ff ff ff
e1308040  00 1f 00 00 00 00 00 00 00 00 00 00 00 00 00 00
e1308050  00 00 00 00 00 00 00 00 00 00 00 00 00 00 00 00
e1308060  00 00 00 00 00 00 00 00 00 00 00 00 00 00 00 00
e1308070  00 00 00 00 00 00 00 00 00 00 00 00 00 00 00 00
e1308080  00 00 00 00 00 00 00 00 00 00 00 00 00 00 00 00
e1308090  00 00 00 00 00 00 00 00 00 00 00 00 00 00 00 00
e13080a0  4f ff 08 60 00 01 00 00 00 00 00 00 08 60 ff ff
e13080b0  00 00 00 00 00 00 00 00 ff ff ff ff 00 00 00 00
e13080c0  00 00 00 ff 00 ff ff ff 00 1f 00 00 00 00 00 00
e13080d0  00 00 00 00 00 00 00 00 00 00 00 00 00 00 00 00
e13080e0  00 00 00 00 00 00 00 00 00 00 00 00 00 00 00 00
e13080f0  00 00 00 00 00 00 00 00 00 00 00 00 00 00 00 00
e1308100  00 00 00 00 00 00 00 00 00 00 00 00 00 00 00 00
e1308110  00 00 00 00 00 00 00 00 00 00 00 00 00 00 00 00
e1308120  00 00 00 00 00 00 00 00 4f ff 08 60 00 01 00 00
e1308130  00 00 00 00 08 60 ff ff 00 00 00 00 00 00 00 00
e1308140  ff ff ff ff 00 00 00 00 00 00 00 ff 00 ff ff ff
e1308150  00 1f 00 00 00 00 00 00 00 00 00 00 00 00 00 00
e1308160  00 00 00 00 00 00 00 00 00 00 00 00 00 00 00 00
e1308170  00 00 00 00 00 00 00 00 00 00 00 00 00 00 00 00
e1308180  00 00 00 00 00 00 00 00 00 00 00 00 00 00 00 00
e1308190  00 00 00 00 00 00 00 00 00 00 00 00 00 00 00 00
e13081a0  00 00 00 00 00 00 00 00 00 00 00 00 00 00 00 00
e13081b0  4f ff 08 60 00 01 00 00 00 00 00 00 08 60 ff ff
e13081c0  00 00 00 00 00 00 00 00 ff ff ff ff 00 00 00 00
e13081d0  00 00 00 ff 00 ff ff ff 00 1f 00 00 00 00 00 00
e13081e0  00 00 00 00 00 00 00 00 00 00 00 00 00 00 00 00
e13081f0  00 00 00 00 00 00 00 00 00 00 00 00 00 00 00 00
e1308200  00 00 00 00 00 00 00 00 00 00 00 00 00 00 00 00
e1308210  00 00 00 00 00 00 00 00 00 00 00 00 00 00 00 00
e1308220  00 00 00 00 00 00 00 00 00 00 00 00 00 00 00 00
e1308230  00 00 00 00 00 00 00 00 4f ff 08 60 00 01 00 00
e1308240  00 00 00 00 08 60 ff ff 00 00 00 00 00 00 00 00
e1308250  ff ff ff ff 00 00 00 00 00 00 00 ff 00 ff ff ff
e1308260  00 1f 00 00 00 00 00 00 00 00 00 00 00 00 00 00
e1308270  00 00 00 00 00 00 00 00 00 00 00 00 00 00 00 00
e1308280  00 00 00 00 00 00 00 00 00 00 00 00 00 00 00 00
e1308290  00 00 00 00 00 00 00 00 00 00 00 00 00 00 00 00
e13082a0  00 00 00 00 00 00 00 00 00 00 00 00 00 00 00 00
e13082b0  00 00 00 00 00 00 00 00 00 00 00 00 00 00 00 00
e13082c0  4f ff 08 60 00 01 00 00 00 00 00 00 08 60 ff ff
e13082d0  00 00 00 00 00 00 00 00 ff ff ff ff 00 00 00 00
e13082e0  00 00 00 ff 00 ff ff ff 00 1f 00 00 00 00 00 00
e13082f0  00 00 00 00 00 00 00 00 00 00 00 00 00 00 00 00
e1308300  00 00 00 00 00 00 00 00 00 00 00 00 00 00 00 00
e1308310  00 00 00 00 00 00 00 00 00 00 00 00 00 00 00 00
e1308320  00 00 00 00 00 00 00 00 00 00 00 00 00 00 00 00
e1308330  00 00 00 00 00 00 00 00 00 00 00 00 00 00 00 00
e1308340  00 00 00 00 00 00 00 00 4f ff 08 60 00 01 00 00
e1308350  00 00 00 00 08 60 ff ff 00 00 00 00 00 00 00 00
e1308360  ff ff ff ff 00 00 00 00 00 00 00 ff 00 ff ff ff
e1308370  00 1f 00 00 00 00 00 00 00 00 00 00 00 00 00 00
e1308380  00 00 00 00 00 00 00 00 00 00 00 00 00 00 00 00
e1308390  00 00 00 00 00 00 00 00 00 00 00 00 00 00 00 00
e13083a0  00 00 00 00 00 00 00 00 00 00 00 00 00 00 00 00
e13083b0  00 00 00 00 00 00 00 00 00 00 00 00 00 00 00 00
e13083c0  00 00 00 00 00 00 00 00 00 00 00 00 00 00 00 00
e13083d0  4f ff 08 60 00 01 00 00 00 00 00 00 08 60 ff ff
e13083e0  00 00 00 00 00 00 00 00 ff ff ff ff 00 00 00 00
e13083f0  00 00 00 ff 00 ff ff ff 00 1f 00 00 00 00 00 00
e1308400  00 00 00 00 00 00 00 00 00 00 00 00 00 00 00 00
e1308410  00 00 00 00 00 00 00 00 00 00 00 00 00 00 00 00
e1308420  00 00 00 00 00 00 00 00 00 00 00 00 00 00 00 00
e1308430  00 00 00 00 00 00 00 00 00 00 00 00 00 00 00 00
e1308440  00 00 00 00 00 00 00 00 00 00 00 00 00 00 00 00
e1308450  00 00 00 00 00 00 00 00 4f ff 08 60 00 01 00 00
e1308460  00 00 00 00 08 60 ff ff 00 00 00 00 00 00 00 00
e1308470  ff ff ff ff 00 00 00 00 00 00 00 ff 00 ff ff ff
e1308480  00 1f 00 00 00 00 00 00 00 00 00 00 00 00 00 00
e1308490  00 00 00 00 00 00 00 00 00 00 00 00 00 00 00 00
e13084a0  00 00 00 00 00 00 00 00 00 00 00 00 00 00 00 00
e13084b0  00 00 00 00 00 00 00 00 00 00 00 00 00 00 00 00
e13084c0  00 00 00 00 00 00 00 00 00 00 00 00 00 00 00 00
e13084d0  00 00 00 00 00 00 00 00 00 00 00 00 00 00 00 00
e13084e0  4f ff 08 60 00 01 00 00 00 00 00 00 08 60 ff ff
e13084f0  00 00 00 00 00 00 00 00 ff ff ff ff 00 00 00 00
e1308500  00 00 00 ff 00 ff ff ff 00 1f 00 00 00 00 00 00
e1308510  00 00 00 00 00 00 00 00 00 00 00 00 00 00 00 00
e1308520  00 00 00 00 00 00 00 00 00 00 00 00 00 00 00 00
e1308530  00 00 00 00 00 00 00 00 00 00 00 00 00 00 00 00
e1308540  00 00 00 00 00 00 00 00 00 00 00 00 00 00 00 00
e1308550  00 00 00 00 00 00 00 00 00 00 00 00 00 00 00 00
e1308560  00 00 00 00 00 00 00 00 4f ff 08 60 00 01 00 00
e1308570  00 00 00 00 08 60 ff ff 00 00 00 00 00 00 00 00
e1308580  ff ff ff ff 00 00 00 00 00 00 00 ff 00 ff ff ff
e1308590  00 1f 00 00 00 00 00 00 00 00 00 00 00 00 00 00
e13085a0  00 00 00 00 00 00 00 00 00 00 00 00 00 00 00 00
e13085b0  00 00 00 00 00 00 00 00 00 00 00 00 00 00 00 00
e13085c0  00 00 00 00 00 00 00 00 00 00 00 00 00 00 00 00
e13085d0  00 00 00 00 00 00 00 00 00 00 00 00 00 00 00 00
e13085e0  00 00 00 00 00 00 00 00 00 00 00 00 00 00 00 00
e13085f0  4f ff 08 60 00 01 00 00 00 00 00 00 08 60 ff ff
e1308600  00 00 00 00 00 00 00 00 ff ff ff ff 00 00 00 00
e1308610  00 00 00 ff 00 ff ff ff 00 1f 00 00 00 00 00 00
e1308620  00 00 00 00 00 00 00 00 00 00 00 00 00 00 00 00
e1308630  00 00 00 00 00 00 00 00 00 00 00 00 00 00 00 00
e1308640  00 00 00 00 00 00 00 00 00 00 00 00 00 00 00 00
e1308650  00 00 00 00 00 00 00 00 00 00 00 00 00 00 00 00
e1308660  00 00 00 00 00 00 00 00 00 00 00 00 00 00 00 00
e1308670  00 00 00 00 00 00 00 00 4f ff 08 60 00 01 00 00
e1308680  00 00 00 00 08 60 ff ff 00 00 00 00 00 00 00 00
e1308690  ff ff ff ff 00 00 00 00 00 00 00 ff 00 ff ff ff
e13086a0  00 1f 00 00 00 00 00 00 00 00 00 00 00 00 00 00
e13086b0  00 00 00 00 00 00 00 00 00 00 00 00 00 00 00 00
e13086c0  00 00 00 00 00 00 00 00 00 00 00 00 00 00 00 00
e13086d0  00 00 00 00 00 00 00 00 00 00 00 00 00 00 00 00
e13086e0  00 00 00 00 00 00 00 00 00 00 00 00 00 00 00 00
e13086f0  00 00 00 00 00 00 00 00 00 00 00 00 00 00 00 00
e1308700  4f ff 08 60 00 01 00 00 00 00 00 00 08 60 ff ff
e1308710  00 00 00 00 00 00 00 00 ff ff ff ff 00 00 00 00
e1308720  00 00 00 ff 00 ff ff ff 00 1f 00 00 00 00 00 00
e1308730  00 00 00 00 00 00 00 00 00 00 00 00 00 00 00 00
e1308740  00 00 00 00 00 00 00 00 00 00 00 00 00 00 00 00
e1308750  00 00 00 00 00 00 00 00 00 00 00 00 00 00 00 00
e1308760  00 00 00 00 00 00 00 00 00 00 00 00 00 00 00 00
e1308770  00 00 00 00 00 00 00 00 00 00 00 00 00 00 00 00
e1308780  00 00 00 00 00 00 00 00 4f ff 08 60 00 01 00 00
e1308790  00 00 00 00 08 60 ff ff 00 00 00 00 00 00 00 00
e13087a0  ff ff ff ff 00 00 00 00 00 00 00 ff 00 ff ff ff
e13087b0  00 1f 00 00 00 00 00 00 00 00 00 00 00 00 00 00
e13087c0  00 00 00 00 00 00 00 00 00 00 00 00 00 00 00 00
e13087d0  00 00 00 00 00 00 00 00 00 00 00 00 00 00 00 00
e13087e0  00 00 00 00 00 00 00 00 00 00 00 00 00 00 00 00
e13087f0  00 00 00 00 00 00 00 00 00 00 00 00 00 00 00 00
e1308800  00 00 00 00 00 00 00 00 00 00 00 00 00 00 00 00
e1308810  4f ff 08 60 00 01 00 00 00 00 00 00 08 60 ff ff
e1308820  00 00 00 00 00 00 00 00 ff ff ff ff 00 00 00 00
e1308830  00 00 00 ff 00 ff ff ff 00 1f 00 00 00 00 00 00
e1308840  00 00 00 00 00 00 00 00 00 00 00 00 00 00 00 00
e1308850  00 00 00 00 00 00 00 00 00 00 00 00 00 00 00 00
e1308860  00 00 00 00 00 00 00 00 00 00 00 00 00 00 00 00
e1308870  00 00 00 00 00 00 00 00 00 00 00 00 00 00 00 00
e1308880  00 00 00 00 00 00 00 00 00 00 00 00 00 00 00 00
e1308890  00 00 00 00 00 00 00 00 4f ff 08 60 00 01 00 00
e13088a0  00 00 00 00 08 60 ff ff 00 00 00 00 00 00 00 00
e13088b0  ff ff ff ff 00 00 00 00 00 00 00 ff 00 ff ff ff
e13088c0  00 1f 00 00 00 00 00 00 00 00 00 00 00 00 00 00
e13088d0  00 00 00 00 00 00 00 00 00 00 00 00 00 00 00 00
e13088e0  00 00 00 00 00 00 00 00 00 00 00 00 00 00 00 00
e13088f0  00 00 00 00 00 00 00 00 00 00 00 00 00 00 00 00
e1308900  00 00 00 00 00 00 00 00 00 00 00 00 00 00 00 00
e1308910  00 00 00 00 00 00 00 00 00 00 00 00 00 00 00 00
e1308920  4f ff 08 60 00 01 00 00 00 00 00 00 08 60 ff ff
e1308930  00 00 00 00 00 00 00 00 ff ff ff ff 00 00 00 00
e1308940  00 00 00 ff 00 ff ff ff 00 1f 00 00 00 00 00 00
e1308950  00 00 00 00 00 00 00 00 00 00 00 00 00 00 00 00
e1308960  00 00 00 00 00 00 00 00 00 00 00 00 00 00 00 00
e1308970  00 00 00 00 00 00 00 00 00 00 00 00 00 00 00 00
e1308980  00 00 00 00 00 00 00 00 00 00 00 00 00 00 00 00
e1308990  00 00 00 00 00 00 00 00 00 00 00 00 00 00 00 00
e13089a0  00 00 00 00 00 00 00 00 4f ff 08 60 00 01 00 00
e13089b0  00 00 00 00 08 60 ff ff 00 00 00 00 00 00 00 00
e13089c0  ff ff ff ff 00 00 00 00 00 00 00 ff 00 ff ff ff
e13089d0  00 1f 00 00 00 00 00 00 00 00 00 00 00 00 00 00
e13089e0  00 00 00 00 00 00 00 00 00 00 00 00 00 00 00 00
e13089f0  00 00 00 00 00 00 00 00 00 00 00 00 00 00 00 00
e1308a00  00 00 00 00 00 00 00 00 00 00 00 00 00 00 00 00
e1308a10  00 00 00 00 00 00 00 00 00 00 00 00 00 00 00 00
e1308a20  00 00 00 00 00 00 00 00 00 00 00 00 00 00 00 00
e1308a30  4f ff 08 60 00 01 00 00 00 00 00 00 08 60 ff ff
e1308a40  00 00 00 00 00 00 00 00 ff ff ff ff 00 00 00 00
e1308a50  00 00 00 ff 00 ff ff ff 00 1f 00 00 00 00 00 00
e1308a60  00 00 00 00 00 00 00 00 00 00 00 00 00 00 00 00
e1308a70  00 00 00 00 00 00 00 00 00 00 00 00 00 00 00 00
e1308a80  00 00 00 00 00 00 00 00 00 00 00 00 00 00 00 00
e1308a90  00 00 00 00 00 00 00 00 00 00 00 00 00 00 00 00
e1308aa0  00 00 00 00 00 00 00 00 00 00 00 00 00 00 00 00
e1308ab0  00 00 00 00 00 00 00 00 4f ff 08 60 00 01 00 00
e1308ac0  00 00 00 00 08 60 ff ff 00 00 00 00 00 00 00 00
e1308ad0  ff ff ff ff 00 00 00 00 00 00 00 ff 00 ff ff ff
e1308ae0  00 1f 00 00 00 00 00 00 00 00 00 00 00 00 00 00
e1308af0  00 00 00 00 00 00 00 00 00 00 00 00 00 00 00 00
e1308b00  00 00 00 00 00 00 00 00 00 00 00 00 00 00 00 00
e1308b10  00 00 00 00 00 00 00 00 00 00 00 00 00 00 00 00
e1308b20  00 00 00 00 00 00 00 00 00 00 00 00 00 00 00 00
e1308b30  00 00 00 00 00 00 00 00 00 00 00 00 00 00 00 00
e1308b40  4f ff 08 60 00 01 00 00 00 00 00 00 08 60 ff ff
e1308b50  00 00 00 00 00 00 00 00 ff ff ff ff 00 00 00 00
e1308b60  00 00 00 ff 00 ff ff ff 00 1f 00 00 00 00 00 00
e1308b70  00 00 00 00 00 00 00 00 00 00 00 00 00 00 00 00
e1308b80  00 00 00 00 00 00 00 00 00 00 00 00 00 00 00 00
e1308b90  00 00 00 00 00 00 00 00 00 00 00 00 00 00 00 00
e1308ba0  00 00 00 00 00 00 00 00 00 00 00 00 00 00 00 00
e1308bb0  00 00 00 00 00 00 00 00 00 00 00 00 00 00 00 00
e1308bc0  00 00 00 00 00 00 00 00 4f ff 08 60 00 01 00 00
e1308bd0  00 00 00 00 08 60 ff ff 00 00 00 00 00 00 00 00
e1308be0  ff ff ff ff 00 00 00 00 00 00 00 ff 00 ff ff ff
e1308bf0  00 1f 00 00 00 00 00 00 00 00 00 00 00 00 00 00
e1308c00  00 00 00 00 00 00 00 00 00 00 00 00 00 00 00 00
e1308c10  00 00 00 00 00 00 00 00 00 00 00 00 00 00 00 00
e1308c20  00 00 00 00 00 00 00 00 00 00 00 00 00 00 00 00
e1308c30  00 00 00 00 00 00 00 00 00 00 00 00 00 00 00 00
e1308c40  00 00 00 00 00 00 00 00 00 00 00 00 00 00 00 00
e1308c50  4f ff 08 60 00 01 00 00 00 00 00 00 08 60 ff ff
e1308c60  00 00 00 00 00 00 00 00 ff ff ff ff 00 00 00 00
e1308c70  00 00 00 ff 00 ff ff ff 00 1f 00 00 00 00 00 00
e1308c80  00 00 00 00 00 00 00 00 00 00 00 00 00 00 00 00
e1308c90  00 00 00 00 00 00 00 00 00 00 00 00 00 00 00 00
e1308ca0  00 00 00 00 00 00 00 00 00 00 00 00 00 00 00 00
e1308cb0  00 00 00 00 00 00 00 00 00 00 00 00 00 00 00 00
e1308cc0  00 00 00 00 00 00 00 00 00 00 00 00 00 00 00 00
e1308cd0  00 00 00 00 00 00 00 00 4f ff 08 60 00 01 00 00
e1308ce0  00 00 00 00 08 60 ff ff 00 00 00 00 00 00 00 00
e1308cf0  ff ff ff ff 00 00 00 00 00 00 00 ff 00 ff ff ff
e1308d00  00 1f 00 00 00 00 00 00 00 00 00 00 00 00 00 00
e1308d10  00 00 00 00 00 00 00 00 00 00 00 00 00 00 00 00
e1308d20  00 00 00 00 00 00 00 00 00 00 00 00 00 00 00 00
e1308d30  00 00 00 00 00 00 00 00 00 00 00 00 00 00 00 00
e1308d40  00 00 00 00 00 00 00 00 00 00 00 00 00 00 00 00
e1308d50  00 00 00 00 00 00 00 00 00 00 00 00 00 00 00 00
e1308d60  4f ff 08 60 00 01 00 00 00 00 00 00 08 60 ff ff
e1308d70  00 00 00 00 00 00 00 00 ff ff ff ff 00 00 00 00
e1308d80  00 00 00 ff 00 ff ff ff 00 1f 00 00 00 00 00 00
e1308d90  00 00 00 00 00 00 00 00 00 00 00 00 00 00 00 00
e1308da0  00 00 00 00 00 00 00 00 00 00 00 00 00 00 00 00
e1308db0  00 00 00 00 00 00 00 00 00 00 00 00 00 00 00 00
e1308dc0  00 00 00 00 00 00 00 00 00 00 00 00 00 00 00 00
e1308dd0  00 00 00 00 00 00 00 00 00 00 00 00 00 00 00 00
e1308de0  00 00 00 00 00 00 00 00 4f ff 08 60 00 01 00 00
e1308df0  00 00 00 00 08 60 ff ff 00 00 00 00 00 00 00 00
e1308e00  ff ff ff ff 00 00 00 00 00 00 00 ff 00 ff ff ff
e1308e10  00 1f 00 00 00 00 00 00 00 00 00 00 00 00 00 00
e1308e20  00 00 00 00 00 00 00 00 00 00 00 00 00 00 00 00
e1308e30  00 00 00 00 00 00 00 00 00 00 00 00 00 00 00 00
e1308e40  00 00 00 00 00 00 00 00 00 00 00 00 00 00 00 00
e1308e50  00 00 00 00 00 00 00 00 00 00 00 00 00 00 00 00
e1308e60  00 00 00 00 00 00 00 00 00 00 00 00 00 00 00 00
e1308e70  4f ff 08 60 00 01 00 00 00 00 00 00 08 60 ff ff
e1308e80  00 00 00 00 00 00 00 00 ff ff ff ff 00 00 00 00
e1308e90  00 00 00 ff 00 ff ff ff 00 1f 00 00 00 00 00 00
e1308ea0  00 00 00 00 00 00 00 00 00 00 00 00 00 00 00 00
e1308eb0  00 00 00 00 00 00 00 00 00 00 00 00 00 00 00 00
e1308ec0  00 00 00 00 00 00 00 00 00 00 00 00 00 00 00 00
e1308ed0  00 00 00 00 00 00 00 00 00 00 00 00 00 00 00 00
e1308ee0  00 00 00 00 00 00 00 00 00 00 00 00 00 00 00 00
e1308ef0  00 00 00 00 00 00 00 00 4f ff 08 60 00 01 00 00
e1308f00  00 00 00 00 08 60 ff ff 00 00 00 00 00 00 00 00
e1308f10  ff ff ff ff 00 00 00 00 00 00 00 ff 00 ff ff ff
e1308f20  00 1f 00 00 00 00 00 00 00 00 00 00 00 00 00 00
e1308f30  00 00 00 00 00 00 00 00 00 00 00 00 00 00 00 00
e1308f40  00 00 00 00 00 00 00 00 00 00 00 00 00 00 00 00
e1308f50  00 00 00 00 00 00 00 00 00 00 00 00 00 00 00 00
e1308f60  00 00 00 00 00 00 00 00 00 00 00 00 00 00 00 00
e1308f70  00 00 00 00 00 00 00 00 00 00 00 00 00 00 00 00
e1308f80  4f ff 08 60 00 01 00 00 00 00 00 00 08 60 ff ff
e1308f90  00 00 00 00 00 00 00 00 ff ff ff ff 00 00 00 00
e1308fa0  00 00 00 ff 00 ff ff ff 00 1f 00 00 00 00 00 00
e1308fb0  00 00 00 00 00 00 00 00 00 00 00 00 00 00 00 00
e1308fc0  00 00 00 00 00 00 00 00 00 00 00 00 00 00 00 00
e1308fd0  00 00 00 00 00 00 00 00 00 00 00 00 00 00 00 00
e1308fe0  00 00 00 00 00 00 00 00 00 00 00 00 00 00 00 00
e1308ff0  00 00 00 00 00 00 00 00 00 00 00 00 00 00 00 00
e1309000  00 00 00 00 00 00 00 00 4f ff 08 60 00 01 00 00
e1309010  00 00 00 00 08 60 ff ff 00 00 00 00 00 00 00 00
e1309020  ff ff ff ff 00 00 00 00 00 00 00 ff 00 ff ff ff
e1309030  00 1f 00 00 00 00 00 00 00 00 00 00 00 00 00 00
e1309040  00 00 00 00 00 00 00 00 00 00 00 00 00 00 00 00
e1309050  00 00 00 00 00 00 00 00 00 00 00 00 00 00 00 00
e1309060  00 00 00 00 00 00 00 00 00 00 00 00 00 00 00 00
e1309070  00 00 00 00 00 00 00 00 00 00 00 00 00 00 00 00
e1309080  00 00 00 00 00 00 00 00 00 00 00 00 00 00 00 00
e1309090  4f ff 08 60 00 01 00 00 00 00 00 00 08 60 ff ff
e13090a0  00 00 00 00 00 00 00 00 ff ff ff ff 00 00 00 00
e13090b0  00 00 00 ff 00 ff ff ff 00 1f 00 00 00 00 00 00
e13090c0  00 00 00 00 00 00 00 00 00 00 00 00 00 00 00 00
e13090d0  00 00 00 00 00 00 00 00 00 00 00 00 00 00 00 00
e13090e0  00 00 00 00 00 00 00 00 00 00 00 00 00 00 00 00
e13090f0  00 00 00 00 00 00 00 00 00 00 00 00 00 00 00 00
e1309100  00 00 00 00 00 00 00 00 00 00 00 00 00 00 00 00
e1309110  72

-------------------------------------------------------------------------------
     Signo   Sender     Addr    Owner Pool Req. Size Real Size
---------- -------- -------- -------- ---- --------- ---------
4294967295 00000019 00000019 00000019    4     10240     12000

Hex Addr  00 01 02 03 04 05 06 07 08 09 0a 0b 0c 0d 0e 0f
--------  -- -- -- -- -- -- -- -- -- -- -- -- -- -- -- --
e1314d40  ff ff ff ff ff ff ff ff ff ff ff ff ff ff ff ff
e1314d50  00 00 00 00 00 00 00 00 00 00 00 00 00 00 00 00
e1314d60  ff ff ff ff ff ff ff ff ff ff ff ff ff ff ff ff
e1314d70  00 00 00 00 00 00 00 00 00 00 00 00 00 00 00 00
e1314d80  ff ff ff ff ff ff ff ff ff ff ff ff ff ff ff ff
e1314d90  00 00 00 00 00 00 00 00 00 00 00 00 00 00 00 00
e1314da0  ff ff ff ff ff ff ff ff ff ff ff ff ff ff ff ff
e1314db0  00 00 00 00 00 00 00 00 00 00 00 00 00 00 00 00
e1314dc0  ff ff ff ff ff ff ff ff ff ff ff ff ff ff ff ff
e1314dd0  00 00 00 00 00 00 00 00 00 00 00 00 00 00 00 00
e1314de0  ff ff ff ff ff ff ff ff ff ff ff ff ff ff ff ff
e1314df0  00 00 00 00 00 00 00 00 00 00 00 00 00 00 00 00
e1314e00  ff ff ff ff ff ff ff ff ff ff ff ff ff ff ff ff
e1314e10  00 00 00 00 00 00 00 00 00 00 00 00 00 00 00 00
e1314e20  ff ff ff ff ff ff ff ff ff ff ff ff ff ff ff ff
e1314e30  00 00 00 00 00 00 00 00 00 00 00 00 00 00 00 00
e1314e40  ff ff ff ff ff ff ff ff ff ff ff ff ff ff ff ff
e1314e50  00 00 00 00 00 00 00 00 00 00 00 00 00 00 00 00
e1314e60  ff ff ff ff ff ff ff ff ff ff ff ff ff ff ff ff
e1314e70  00 00 00 00 00 00 00 00 00 00 00 00 00 00 00 00
e1314e80  ff ff ff ff ff ff ff ff ff ff ff ff ff ff ff ff
e1314e90  00 00 00 00 00 00 00 00 00 00 00 00 00 00 00 00
e1314ea0  ff ff ff ff ff ff ff ff ff ff ff ff ff ff ff ff
e1314eb0  00 00 00 00 00 00 00 00 00 00 00 00 00 00 00 00
e1314ec0  ff ff ff ff ff ff ff ff ff ff ff ff ff ff ff ff
e1314ed0  00 00 00 00 00 00 00 00 00 00 00 00 00 00 00 00
e1314ee0  ff ff ff ff ff ff ff ff ff ff ff ff ff ff ff ff
e1314ef0  00 00 00 00 00 00 00 00 00 00 00 00 00 00 00 00
e1314f00  ff ff ff ff ff ff ff ff ff ff ff ff ff ff ff ff
e1314f10  00 00 00 00 00 00 00 00 00 00 00 00 00 00 00 00
e1314f20  ff ff ff ff ff ff ff ff ff ff ff ff ff ff ff ff
e1314f30  00 00 00 00 00 00 00 00 00 00 00 00 00 00 00 00
e1314f40  ff ff ff ff ff ff ff ff ff ff ff ff ff ff ff ff
e1314f50  00 00 00 00 00 00 00 00 00 00 00 00 00 00 00 00
e1314f60  ff ff ff ff ff ff ff ff ff ff ff ff ff ff ff ff
e1314f70  00 00 00 00 00 00 00 00 00 00 00 00 00 00 00 00
e1314f80  ff ff ff ff ff ff ff ff ff ff ff ff ff ff ff ff
e1314f90  00 00 00 00 00 00 00 00 00 00 00 00 00 00 00 00
e1314fa0  ff ff ff ff ff ff ff ff ff ff ff ff ff ff ff ff
e1314fb0  00 00 00 00 00 00 00 00 00 00 00 00 00 00 00 00
e1314fc0  ff ff ff ff ff ff ff ff ff ff ff ff ff ff ff ff
e1314fd0  00 00 00 00 00 00 00 00 00 00 00 00 00 00 00 00
e1314fe0  ff ff ff ff ff ff ff ff ff ff ff ff ff ff ff ff
e1314ff0  00 00 00 00 00 00 00 00 00 00 00 00 00 00 00 00
e1315000  ff ff ff ff ff ff ff ff ff ff ff ff ff ff ff ff
e1315010  00 00 00 00 00 00 00 00 00 00 00 00 00 00 00 00
e1315020  ff ff ff ff ff ff ff ff ff ff ff ff ff ff ff ff
e1315030  00 00 00 00 00 00 00 00 00 00 00 00 00 00 00 00
e1315040  ff ff ff ff ff ff ff ff ff ff ff ff ff ff ff ff
e1315050  00 00 00 00 00 00 00 00 00 00 00 00 00 00 00 00
e1315060  ff ff ff ff ff ff ff ff ff ff ff ff ff ff ff ff
e1315070  00 00 00 00 00 00 00 00 00 00 00 00 00 00 00 00
e1315080  ff ff ff ff ff ff ff ff ff ff ff ff ff ff ff ff
e1315090  00 00 00 00 00 00 00 00 00 00 00 00 00 00 00 00
e13150a0  ff ff ff ff ff ff ff ff ff ff ff ff ff ff ff ff
e13150b0  00 00 00 00 00 00 00 00 00 00 00 00 00 00 00 00
e13150c0  ff ff ff ff ff ff ff ff ff ff ff ff ff ff ff ff
e13150d0  00 00 00 00 00 00 00 00 00 00 00 00 00 00 00 00
e13150e0  ff ff ff ff ff ff ff ff ff ff ff ff ff ff ff ff
e13150f0  00 00 00 00 00 00 00 00 00 00 00 00 00 00 00 00
e1315100  ff ff ff ff ff ff ff ff ff ff ff ff ff ff ff ff
e1315110  00 00 00 00 00 00 00 00 00 00 00 00 00 00 00 00
e1315120  ff ff ff ff ff ff ff ff ff ff ff ff ff ff ff ff
e1315130  00 00 00 00 00 00 00 00 00 00 00 00 00 00 00 00
e1315140  ff ff ff ff ff ff ff ff ff ff ff ff ff ff ff ff
e1315150  00 00 00 00 00 00 00 00 00 00 00 00 00 00 00 00
e1315160  ff ff ff ff ff ff ff ff ff ff ff ff ff ff ff ff
e1315170  00 00 00 00 00 00 00 00 00 00 00 00 00 00 00 00
e1315180  ff ff ff ff ff ff ff ff ff ff ff ff ff ff ff ff
e1315190  00 00 00 00 00 00 00 00 00 00 00 00 00 00 00 00
e13151a0  ff ff ff ff ff ff ff ff ff ff ff ff ff ff ff ff
e13151b0  00 00 00 00 00 00 00 00 00 00 00 00 00 00 00 00
e13151c0  ff ff ff ff ff ff ff ff ff ff ff ff ff ff ff ff
e13151d0  00 00 00 00 00 00 00 00 00 00 00 00 00 00 00 00
e13151e0  ff ff ff ff ff ff ff ff ff ff ff ff ff ff ff ff
e13151f0  00 00 00 00 00 00 00 00 00 00 00 00 00 00 00 00
e1315200  ff ff ff ff ff ff ff ff ff ff ff ff ff ff ff ff
e1315210  00 00 00 00 00 00 00 00 00 00 00 00 00 00 00 00
e1315220  ff ff ff ff ff ff ff ff ff ff ff ff ff ff ff ff
e1315230  00 00 00 00 00 00 00 00 00 00 00 00 00 00 00 00
e1315240  ff ff ff ff ff ff ff ff ff ff ff ff ff ff ff ff
e1315250  00 00 00 00 00 00 00 00 00 00 00 00 00 00 00 00
e1315260  ff ff ff ff ff ff ff ff ff ff ff ff ff ff ff ff
e1315270  00 00 00 00 00 00 00 00 00 00 00 00 00 00 00 00
e1315280  ff ff ff ff ff ff ff ff ff ff ff ff ff ff ff ff
e1315290  00 00 00 00 00 00 00 00 00 00 00 00 00 00 00 00
e13152a0  ff ff ff ff ff ff ff ff ff ff ff ff ff ff ff ff
e13152b0  00 00 00 00 00 00 00 00 00 00 00 00 00 00 00 00
e13152c0  ff ff ff ff ff ff ff ff ff ff ff ff ff ff ff ff
e13152d0  00 00 00 00 00 00 00 00 00 00 00 00 00 00 00 00
e13152e0  ff ff ff ff ff ff ff ff ff ff ff ff ff ff ff ff
e13152f0  00 00 00 00 00 00 00 00 00 00 00 00 00 00 00 00
e1315300  ff ff ff ff ff ff ff ff ff ff ff ff ff ff ff ff
e1315310  00 00 00 00 00 00 00 00 00 00 00 00 00 00 00 00
e1315320  ff ff ff ff ff ff ff ff ff ff ff ff ff ff ff ff
e1315330  00 00 00 00 00 00 00 00 00 00 00 00 00 00 00 00
e1315340  ff ff ff ff ff ff ff ff ff ff ff ff ff ff ff ff
e1315350  00 00 00 00 00 00 00 00 00 00 00 00 00 00 00 00
e1315360  ff ff ff ff ff ff ff ff ff ff ff ff ff ff ff ff
e1315370  00 00 00 00 00 00 00 00 00 00 00 00 00 00 00 00
e1315380  ff ff ff ff ff ff ff ff ff ff ff ff ff ff ff ff
e1315390  00 00 00 00 00 00 00 00 00 00 00 00 00 00 00 00
e13153a0  ff ff ff ff ff ff ff ff ff ff ff ff ff ff ff ff
e13153b0  00 00 00 00 00 00 00 00 00 00 00 00 00 00 00 00
e13153c0  ff ff ff ff ff ff ff ff ff ff ff ff ff ff ff ff
e13153d0  00 00 00 00 00 00 00 00 00 00 00 00 00 00 00 00
e13153e0  ff ff ff ff ff ff ff ff ff ff ff ff ff ff ff ff
e13153f0  00 00 00 00 00 00 00 00 00 00 00 00 00 00 00 00
e1315400  ff ff ff ff ff ff ff ff ff ff ff ff ff ff ff ff
e1315410  00 00 00 00 00 00 00 00 00 00 00 00 00 00 00 00
e1315420  ff ff ff ff ff ff ff ff ff ff ff ff ff ff ff ff
e1315430  00 00 00 00 00 00 00 00 00 00 00 00 00 00 00 00
e1315440  ff ff ff ff ff ff ff ff ff ff ff ff ff ff ff ff
e1315450  00 00 00 00 00 00 00 00 00 00 00 00 00 00 00 00
e1315460  ff ff ff ff ff ff ff ff ff ff ff ff ff ff ff ff
e1315470  00 00 00 00 00 00 00 00 00 00 00 00 00 00 00 00
e1315480  ff ff ff ff ff ff ff ff ff ff ff ff ff ff ff ff
e1315490  00 00 00 00 00 00 00 00 00 00 00 00 00 00 00 00
e13154a0  ff ff ff ff ff ff ff ff ff ff ff ff ff ff ff ff
e13154b0  00 00 00 00 00 00 00 00 00 00 00 00 00 00 00 00
e13154c0  ff ff ff ff ff ff ff ff ff ff ff ff ff ff ff ff
e13154d0  00 00 00 00 00 00 00 00 00 00 00 00 00 00 00 00
e13154e0  ff ff ff ff ff ff ff ff ff ff ff ff ff ff ff ff
e13154f0  00 00 00 00 00 00 00 00 00 00 00 00 00 00 00 00
e1315500  ff ff ff ff ff ff ff ff ff ff ff ff ff ff ff ff
e1315510  00 00 00 00 00 00 00 00 00 00 00 00 00 00 00 00
e1315520  ff ff ff ff ff ff ff ff ff ff ff ff ff ff ff ff
e1315530  00 00 00 00 00 00 00 00 00 00 00 00 00 00 00 00
e1315540  ff ff ff ff ff ff ff ff ff ff ff ff ff ff ff ff
e1315550  00 00 00 00 00 00 00 00 00 00 00 00 00 00 00 00
e1315560  ff ff ff ff ff ff ff ff ff ff ff ff ff ff ff ff
e1315570  00 00 00 00 00 00 00 00 00 00 00 00 00 00 00 00
e1315580  ff ff ff ff ff ff ff ff ff ff ff ff ff ff ff ff
e1315590  00 00 00 00 00 00 00 00 00 00 00 00 00 00 00 00
e13155a0  ff ff ff ff ff ff ff ff ff ff ff ff ff ff ff ff
e13155b0  00 00 00 00 00 00 00 00 00 00 00 00 00 00 00 00
e13155c0  ff ff ff ff ff ff ff ff ff ff ff ff ff ff ff ff
e13155d0  00 00 00 00 00 00 00 00 00 00 00 00 00 00 00 00
e13155e0  ff ff ff ff ff ff ff ff ff ff ff ff ff ff ff ff
e13155f0  00 00 00 00 00 00 00 00 00 00 00 00 00 00 00 00
e1315600  ff ff ff ff ff ff ff ff ff ff ff ff ff ff ff ff
e1315610  00 00 00 00 00 00 00 00 00 00 00 00 00 00 00 00
e1315620  ff ff ff ff ff ff ff ff ff ff ff ff ff ff ff ff
e1315630  00 00 00 00 00 00 00 00 00 00 00 00 00 00 00 00
e1315640  ff ff ff ff ff ff ff ff ff ff ff ff ff ff ff ff
e1315650  00 00 00 00 00 00 00 00 00 00 00 00 00 00 00 00
e1315660  ff ff ff ff ff ff ff ff ff ff ff ff ff ff ff ff
e1315670  00 00 00 00 00 00 00 00 00 00 00 00 00 00 00 00
e1315680  ff ff ff ff ff ff ff ff ff ff ff ff ff ff ff ff
e1315690  00 00 00 00 00 00 00 00 00 00 00 00 00 00 00 00
e13156a0  ff ff ff ff ff ff ff ff ff ff ff ff ff ff ff ff
e13156b0  00 00 00 00 00 00 00 00 00 00 00 00 00 00 00 00
e13156c0  ff ff ff ff ff ff ff ff ff ff ff ff ff ff ff ff
e13156d0  00 00 00 00 00 00 00 00 00 00 00 00 00 00 00 00
e13156e0  ff ff ff ff ff ff ff ff ff ff ff ff ff ff ff ff
e13156f0  00 00 00 00 00 00 00 00 00 00 00 00 00 00 00 00
e1315700  ff ff ff ff ff ff ff ff ff ff ff ff ff ff ff ff
e1315710  00 00 00 00 00 00 00 00 00 00 00 00 00 00 00 00
e1315720  ff ff ff ff ff ff ff ff ff ff ff ff ff ff ff ff
e1315730  00 00 00 00 00 00 00 00 00 00 00 00 00 00 00 00
e1315740  ff ff ff ff ff ff ff ff ff ff ff ff ff ff ff ff
e1315750  00 00 00 00 00 00 00 00 00 00 00 00 00 00 00 00
e1315760  ff ff ff ff ff ff ff ff ff ff ff ff ff ff ff ff
e1315770  00 00 00 00 00 00 00 00 00 00 00 00 00 00 00 00
e1315780  ff ff ff ff ff ff ff ff ff ff ff ff ff ff ff ff
e1315790  00 00 00 00 00 00 00 00 00 00 00 00 00 00 00 00
e13157a0  ff ff ff ff ff ff ff ff ff ff ff ff ff ff ff ff
e13157b0  00 00 00 00 00 00 00 00 00 00 00 00 00 00 00 00
e13157c0  ff ff ff ff ff ff ff ff ff ff ff ff ff ff ff ff
e13157d0  00 00 00 00 00 00 00 00 00 00 00 00 00 00 00 00
e13157e0  ff ff ff ff ff ff ff ff ff ff ff ff ff ff ff ff
e13157f0  00 00 00 00 00 00 00 00 00 00 00 00 00 00 00 00
e1315800  ff ff ff ff ff ff ff ff ff ff ff ff ff ff ff ff
e1315810  00 00 00 00 00 00 00 00 00 00 00 00 00 00 00 00
e1315820  ff ff ff ff ff ff ff ff ff ff ff ff ff ff ff ff
e1315830  00 00 00 00 00 00 00 00 00 00 00 00 00 00 00 00
e1315840  ff ff ff ff ff ff ff ff ff ff ff ff ff ff ff ff
e1315850  00 00 00 00 00 00 00 00 00 00 00 00 00 00 00 00
e1315860  ff ff ff ff ff ff ff ff ff ff ff ff ff ff ff ff
e1315870  00 00 00 00 00 00 00 00 00 00 00 00 00 00 00 00
e1315880  ff ff ff ff ff ff ff ff ff ff ff ff ff ff ff ff
e1315890  00 00 00 00 00 00 00 00 00 00 00 00 00 00 00 00
e13158a0  ff ff ff ff ff ff ff ff ff ff ff ff ff ff ff ff
e13158b0  00 00 00 00 00 00 00 00 00 00 00 00 00 00 00 00
e13158c0  ff ff ff ff ff ff ff ff ff ff ff ff ff ff ff ff
e13158d0  00 00 00 00 00 00 00 00 00 00 00 00 00 00 00 00
e13158e0  ff ff ff ff ff ff ff ff ff ff ff ff ff ff ff ff
e13158f0  00 00 00 00 00 00 00 00 00 00 00 00 00 00 00 00
e1315900  ff ff ff ff ff ff ff ff ff ff ff ff ff ff ff ff
e1315910  00 00 00 00 00 00 00 00 00 00 00 00 00 00 00 00
e1315920  ff ff ff ff ff ff ff ff ff ff ff ff ff ff ff ff
e1315930  00 00 00 00 00 00 00 00 00 00 00 00 00 00 00 00
e1315940  ff ff ff ff ff ff ff ff ff ff ff ff ff ff ff ff
e1315950  00 00 00 00 00 00 00 00 00 00 00 00 00 00 00 00
e1315960  ff ff ff ff ff ff ff ff ff ff ff ff ff ff ff ff
e1315970  00 00 00 00 00 00 00 00 00 00 00 00 00 00 00 00
e1315980  ff ff ff ff ff ff ff ff ff ff ff ff ff ff ff ff
e1315990  00 00 00 00 00 00 00 00 00 00 00 00 00 00 00 00
e13159a0  ff ff ff ff ff ff ff ff ff ff ff ff ff ff ff ff
e13159b0  00 00 00 00 00 00 00 00 00 00 00 00 00 00 00 00
e13159c0  ff ff ff ff ff ff ff ff ff ff ff ff ff ff ff ff
e13159d0  00 00 00 00 00 00 00 00 00 00 00 00 00 00 00 00
e13159e0  ff ff ff ff ff ff ff ff ff ff ff ff ff ff ff ff
e13159f0  00 00 00 00 00 00 00 00 00 00 00 00 00 00 00 00
e1315a00  ff ff ff ff ff ff ff ff ff ff ff ff ff ff ff ff
e1315a10  00 00 00 00 00 00 00 00 00 00 00 00 00 00 00 00
e1315a20  ff ff ff ff ff ff ff ff ff ff ff ff ff ff ff ff
e1315a30  00 00 00 00 00 00 00 00 00 00 00 00 00 00 00 00
e1315a40  ff ff ff ff ff ff ff ff ff ff ff ff ff ff ff ff
e1315a50  00 00 00 00 00 00 00 00 00 00 00 00 00 00 00 00
e1315a60  ff ff ff ff ff ff ff ff ff ff ff ff ff ff ff ff
e1315a70  00 00 00 00 00 00 00 00 00 00 00 00 00 00 00 00
e1315a80  ff ff ff ff ff ff ff ff ff ff ff ff ff ff ff ff
e1315a90  00 00 00 00 00 00 00 00 00 00 00 00 00 00 00 00
e1315aa0  ff ff ff ff ff ff ff ff ff ff ff ff ff ff ff ff
e1315ab0  00 00 00 00 00 00 00 00 00 00 00 00 00 00 00 00
e1315ac0  ff ff ff ff ff ff ff ff ff ff ff ff ff ff ff ff
e1315ad0  00 00 00 00 00 00 00 00 00 00 00 00 00 00 00 00
e1315ae0  ff ff ff ff ff ff ff ff ff ff ff ff ff ff ff ff
e1315af0  00 00 00 00 00 00 00 00 00 00 00 00 00 00 00 00
e1315b00  ff ff ff ff ff ff ff ff ff ff ff ff ff ff ff ff
e1315b10  00 00 00 00 00 00 00 00 00 00 00 00 00 00 00 00
e1315b20  ff ff ff ff ff ff ff ff ff ff ff ff ff ff ff ff
e1315b30  00 00 00 00 00 00 00 00 00 00 00 00 00 00 00 00
e1315b40  ff ff ff ff ff ff ff ff ff ff ff ff ff ff ff ff
e1315b50  00 00 00 00 00 00 00 00 00 00 00 00 00 00 00 00
e1315b60  ff ff ff ff ff ff ff ff ff ff ff ff ff ff ff ff
e1315b70  00 00 00 00 00 00 00 00 00 00 00 00 00 00 00 00
e1315b80  ff ff ff ff ff ff ff ff ff ff ff ff ff ff ff ff
e1315b90  00 00 00 00 00 00 00 00 00 00 00 00 00 00 00 00
e1315ba0  ff ff ff ff ff ff ff ff ff ff ff ff ff ff ff ff
e1315bb0  00 00 00 00 00 00 00 00 00 00 00 00 00 00 00 00
e1315bc0  ff ff ff ff ff ff ff ff ff ff ff ff ff ff ff ff
e1315bd0  00 00 00 00 00 00 00 00 00 00 00 00 00 00 00 00
e1315be0  ff ff ff ff ff ff ff ff ff ff ff ff ff ff ff ff
e1315bf0  00 00 00 00 00 00 00 00 00 00 00 00 00 00 00 00
e1315c00  ff ff ff ff ff ff ff ff ff ff ff ff ff ff ff ff
e1315c10  00 00 00 00 00 00 00 00 00 00 00 00 00 00 00 00
e1315c20  ff ff ff ff ff ff ff ff ff ff ff ff ff ff ff ff
e1315c30  00 00 00 00 00 00 00 00 00 00 00 00 00 00 00 00
e1315c40  ff ff ff ff ff ff ff ff ff ff ff ff ff ff ff ff
e1315c50  00 00 00 00 00 00 00 00 00 00 00 00 00 00 00 00
e1315c60  ff ff ff ff ff ff ff ff ff ff ff ff ff ff ff ff
e1315c70  00 00 00 00 00 00 00 00 00 00 00 00 00 00 00 00
e1315c80  ff ff ff ff ff ff ff ff ff ff ff ff ff ff ff ff
e1315c90  00 00 00 00 00 00 00 00 00 00 00 00 00 00 00 00
e1315ca0  ff ff ff ff ff ff ff ff ff ff ff ff ff ff ff ff
e1315cb0  00 00 00 00 00 00 00 00 00 00 00 00 00 00 00 00
e1315cc0  ff ff ff ff ff ff ff ff ff ff ff ff ff ff ff ff
e1315cd0  00 00 00 00 00 00 00 00 00 00 00 00 00 00 00 00
e1315ce0  ff ff ff ff ff ff ff ff ff ff ff ff ff ff ff ff
e1315cf0  00 00 00 00 00 00 00 00 00 00 00 00 00 00 00 00
e1315d00  ff ff ff ff ff ff ff ff ff ff ff ff ff ff ff ff
e1315d10  00 00 00 00 00 00 00 00 00 00 00 00 00 00 00 00
e1315d20  ff ff ff ff ff ff ff ff ff ff ff ff ff ff ff ff
e1315d30  00 00 00 00 00 00 00 00 00 00 00 00 00 00 00 00
e1315d40  ff ff ff ff ff ff ff ff ff ff ff ff ff ff ff ff
e1315d50  00 00 00 00 00 00 00 00 00 00 00 00 00 00 00 00
e1315d60  ff ff ff ff ff ff ff ff ff ff ff ff ff ff ff ff
e1315d70  00 00 00 00 00 00 00 00 00 00 00 00 00 00 00 00
e1315d80  ff ff ff ff ff ff ff ff ff ff ff ff ff ff ff ff
e1315d90  00 00 00 00 00 00 00 00 00 00 00 00 00 00 00 00
e1315da0  ff ff ff ff ff ff ff ff ff ff ff ff ff ff ff ff
e1315db0  00 00 00 00 00 00 00 00 00 00 00 00 00 00 00 00
e1315dc0  ff ff ff ff ff ff ff ff ff ff ff ff ff ff ff ff
e1315dd0  00 00 00 00 00 00 00 00 00 00 00 00 00 00 00 00
e1315de0  ff ff ff ff ff ff ff ff ff ff ff ff ff ff ff ff
e1315df0  00 00 00 00 00 00 00 00 00 00 00 00 00 00 00 00
e1315e00  ff ff ff ff ff ff ff ff ff ff ff ff ff ff ff ff
e1315e10  00 00 00 00 00 00 00 00 00 00 00 00 00 00 00 00
e1315e20  ff ff ff ff ff ff ff ff ff ff ff ff ff ff ff ff
e1315e30  00 00 00 00 00 00 00 00 00 00 00 00 00 00 00 00
e1315e40  ff ff ff ff ff ff ff ff ff ff ff ff ff ff ff ff
e1315e50  00 00 00 00 00 00 00 00 00 00 00 00 00 00 00 00
e1315e60  ff ff ff ff ff ff ff ff ff ff ff ff ff ff ff ff
e1315e70  00 00 00 00 00 00 00 00 00 00 00 00 00 00 00 00
e1315e80  ff ff ff ff ff ff ff ff ff ff ff ff ff ff ff ff
e1315e90  00 00 00 00 00 00 00 00 00 00 00 00 00 00 00 00
e1315ea0  ff ff ff ff ff ff ff ff ff ff ff ff ff ff ff ff
e1315eb0  00 00 00 00 00 00 00 00 00 00 00 00 00 00 00 00
e1315ec0  ff ff ff ff ff ff ff ff ff ff ff ff ff ff ff ff
e1315ed0  00 00 00 00 00 00 00 00 00 00 00 00 00 00 00 00
e1315ee0  ff ff ff ff ff ff ff ff ff ff ff ff ff ff ff ff
e1315ef0  00 00 00 00 00 00 00 00 00 00 00 00 00 00 00 00
e1315f00  ff ff ff ff ff ff ff ff ff ff ff ff ff ff ff ff
e1315f10  00 00 00 00 00 00 00 00 00 00 00 00 00 00 00 00
e1315f20  ff ff ff ff ff ff ff ff ff ff ff ff ff ff ff ff
e1315f30  00 00 00 00 00 00 00 00 00 00 00 00 00 00 00 00
e1315f40  ff ff ff ff ff ff ff ff ff ff ff ff ff ff ff ff
e1315f50  00 00 00 00 00 00 00 00 00 00 00 00 00 00 00 00
e1315f60  ff ff ff ff ff ff ff ff ff ff ff ff ff ff ff ff
e1315f70  00 00 00 00 00 00 00 00 00 00 00 00 00 00 00 00
e1315f80  ff ff ff ff ff ff ff ff ff ff ff ff ff ff ff ff
e1315f90  00 00 00 00 00 00 00 00 00 00 00 00 00 00 00 00
e1315fa0  ff ff ff ff ff ff ff ff ff ff ff ff ff ff ff ff
e1315fb0  00 00 00 00 00 00 00 00 00 00 00 00 00 00 00 00
e1315fc0  ff ff ff ff ff ff ff ff ff ff ff ff ff ff ff ff
e1315fd0  00 00 00 00 00 00 00 00 00 00 00 00 00 00 00 00
e1315fe0  ff ff ff ff ff ff ff ff ff ff ff ff ff ff ff ff
e1315ff0  00 00 00 00 00 00 00 00 00 00 00 00 00 00 00 00
e1316000  ff ff ff ff ff ff ff ff ff ff ff ff ff ff ff ff
e1316010  00 00 00 00 00 00 00 00 00 00 00 00 00 00 00 00
e1316020  ff ff ff ff ff ff ff ff ff ff ff ff ff ff ff ff
e1316030  00 00 00 00 00 00 00 00 00 00 00 00 00 00 00 00
e1316040  ff ff ff ff ff ff ff ff ff ff ff ff ff ff ff ff
e1316050  00 00 00 00 00 00 00 00 00 00 00 00 00 00 00 00
e1316060  ff ff ff ff ff ff ff ff ff ff ff ff ff ff ff ff
e1316070  00 00 00 00 00 00 00 00 00 00 00 00 00 00 00 00
e1316080  ff ff ff ff ff ff ff ff ff ff ff ff ff ff ff ff
e1316090  00 00 00 00 00 00 00 00 00 00 00 00 00 00 00 00
e13160a0  ff ff ff ff ff ff ff ff ff ff ff ff ff ff ff ff
e13160b0  00 00 00 00 00 00 00 00 00 00 00 00 00 00 00 00
e13160c0  ff ff ff ff ff ff ff ff ff ff ff ff ff ff ff ff
e13160d0  00 00 00 00 00 00 00 00 00 00 00 00 00 00 00 00
e13160e0  ff ff ff ff ff ff ff ff ff ff ff ff ff ff ff ff
e13160f0  00 00 00 00 00 00 00 00 00 00 00 00 00 00 00 00
e1316100  ff ff ff ff ff ff ff ff ff ff ff ff ff ff ff ff
e1316110  00 00 00 00 00 00 00 00 00 00 00 00 00 00 00 00
e1316120  ff ff ff ff ff ff ff ff ff ff ff ff ff ff ff ff
e1316130  00 00 00 00 00 00 00 00 00 00 00 00 00 00 00 00
e1316140  ff ff ff ff ff ff ff ff ff ff ff ff ff ff ff ff
e1316150  00 00 00 00 00 00 00 00 00 00 00 00 00 00 00 00
e1316160  ff ff ff ff ff ff ff ff ff ff ff ff ff ff ff ff
e1316170  00 00 00 00 00 00 00 00 00 00 00 00 00 00 00 00
e1316180  ff ff ff ff ff ff ff ff ff ff ff ff ff ff ff ff
e1316190  00 00 00 00 00 00 00 00 00 00 00 00 00 00 00 00
e13161a0  ff ff ff ff ff ff ff ff ff ff ff ff ff ff ff ff
e13161b0  00 00 00 00 00 00 00 00 00 00 00 00 00 00 00 00
e13161c0  ff ff ff ff ff ff ff ff ff ff ff ff ff ff ff ff
e13161d0  00 00 00 00 00 00 00 00 00 00 00 00 00 00 00 00
e13161e0  ff ff ff ff ff ff ff ff ff ff ff ff ff ff ff ff
e13161f0  00 00 00 00 00 00 00 00 00 00 00 00 00 00 00 00
e1316200  ff ff ff ff ff ff ff ff ff ff ff ff ff ff ff ff
e1316210  00 00 00 00 00 00 00 00 00 00 00 00 00 00 00 00
e1316220  ff ff ff ff ff ff ff ff ff ff ff ff ff ff ff ff
e1316230  00 00 00 00 00 00 00 00 00 00 00 00 00 00 00 00
e1316240  ff ff ff ff ff ff ff ff ff ff ff ff ff ff ff ff
e1316250  00 00 00 00 00 00 00 00 00 00 00 00 00 00 00 00
e1316260  ff ff ff ff ff ff ff ff ff ff ff ff ff ff ff ff
e1316270  00 00 00 00 00 00 00 00 00 00 00 00 00 00 00 00
e1316280  ff ff ff ff ff ff ff ff ff ff ff ff ff ff ff ff
e1316290  00 00 00 00 00 00 00 00 00 00 00 00 00 00 00 00
e13162a0  ff ff ff ff ff ff ff ff ff ff ff ff ff ff ff ff
e13162b0  00 00 00 00 00 00 00 00 00 00 00 00 00 00 00 00
e13162c0  ff ff ff ff ff ff ff ff ff ff ff ff ff ff ff ff
e13162d0  00 00 00 00 00 00 00 00 00 00 00 00 00 00 00 00
e13162e0  ff ff ff ff ff ff ff ff ff ff ff ff ff ff ff ff
e13162f0  00 00 00 00 00 00 00 00 00 00 00 00 00 00 00 00
e1316300  ff ff ff ff ff ff ff ff ff ff ff ff ff ff ff ff
e1316310  00 00 00 00 00 00 00 00 00 00 00 00 00 00 00 00
e1316320  ff ff ff ff ff ff ff ff ff ff ff ff ff ff ff ff
e1316330  00 00 00 00 00 00 00 00 00 00 00 00 00 00 00 00
e1316340  ff ff ff ff ff ff ff ff ff ff ff ff ff ff ff ff
e1316350  00 00 00 00 00 00 00 00 00 00 00 00 00 00 00 00
e1316360  ff ff ff ff ff ff ff ff ff ff ff ff ff ff ff ff
e1316370  00 00 00 00 00 00 00 00 00 00 00 00 00 00 00 00
e1316380  ff ff ff ff ff ff ff ff ff ff ff ff ff ff ff ff
e1316390  00 00 00 00 00 00 00 00 00 00 00 00 00 00 00 00
e13163a0  ff ff ff ff ff ff ff ff ff ff ff ff ff ff ff ff
e13163b0  00 00 00 00 00 00 00 00 00 00 00 00 00 00 00 00
e13163c0  ff ff ff ff ff ff ff ff ff ff ff ff ff ff ff ff
e13163d0  00 00 00 00 00 00 00 00 00 00 00 00 00 00 00 00
e13163e0  ff ff ff ff ff ff ff ff ff ff ff ff ff ff ff ff
e13163f0  00 00 00 00 00 00 00 00 00 00 00 00 00 00 00 00
e1316400  ff ff ff ff ff ff ff ff ff ff ff ff ff ff ff ff
e1316410  00 00 00 00 00 00 00 00 00 00 00 00 00 00 00 00
e1316420  ff ff ff ff ff ff ff ff ff ff ff ff ff ff ff ff
e1316430  00 00 00 00 00 00 00 00 00 00 00 00 00 00 00 00
e1316440  ff ff ff ff ff ff ff ff ff ff ff ff ff ff ff ff
e1316450  00 00 00 00 00 00 00 00 00 00 00 00 00 00 00 00
e1316460  ff ff ff ff ff ff ff ff ff ff ff ff ff ff ff ff
e1316470  00 00 00 00 00 00 00 00 00 00 00 00 00 00 00 00
e1316480  ff ff ff ff ff ff ff ff ff ff ff ff ff ff ff ff
e1316490  00 00 00 00 00 00 00 00 00 00 00 00 00 00 00 00
e13164a0  ff ff ff ff ff ff ff ff ff ff ff ff ff ff ff ff
e13164b0  00 00 00 00 00 00 00 00 00 00 00 00 00 00 00 00
e13164c0  ff ff ff ff ff ff ff ff ff ff ff ff ff ff ff ff
e13164d0  00 00 00 00 00 00 00 00 00 00 00 00 00 00 00 00
e13164e0  ff ff ff ff ff ff ff ff ff ff ff ff ff ff ff ff
e13164f0  00 00 00 00 00 00 00 00 00 00 00 00 00 00 00 00
e1316500  ff ff ff ff ff ff ff ff ff ff ff ff ff ff ff ff
e1316510  00 00 00 00 00 00 00 00 00 00 00 00 00 00 00 00
e1316520  ff ff ff ff ff ff ff ff ff ff ff ff ff ff ff ff
e1316530  00 00 00 00 00 00 00 00 00 00 00 00 00 00 00 00
e1316540  ff ff ff ff ff ff ff ff ff ff ff ff ff ff ff ff
e1316550  00 00 00 00 00 00 00 00 00 00 00 00 00 00 00 00
e1316560  ff ff ff ff ff ff ff ff ff ff ff ff ff ff ff ff
e1316570  00 00 00 00 00 00 00 00 00 00 00 00 00 00 00 00
e1316580  ff ff ff ff ff ff ff ff ff ff ff ff ff ff ff ff
e1316590  00 00 00 00 00 00 00 00 00 00 00 00 00 00 00 00
e13165a0  ff ff ff ff ff ff ff ff ff ff ff ff ff ff ff ff
e13165b0  00 00 00 00 00 00 00 00 00 00 00 00 00 00 00 00
e13165c0  ff ff ff ff ff ff ff ff ff ff ff ff ff ff ff ff
e13165d0  00 00 00 00 00 00 00 00 00 00 00 00 00 00 00 00
e13165e0  ff ff ff ff ff ff ff ff ff ff ff ff ff ff ff ff
e13165f0  00 00 00 00 00 00 00 00 00 00 00 00 00 00 00 00
e1316600  ff ff ff ff ff ff ff ff ff ff ff ff ff ff ff ff
e1316610  00 00 00 00 00 00 00 00 00 00 00 00 00 00 00 00
e1316620  ff ff ff ff ff ff ff ff ff ff ff ff ff ff ff ff
e1316630  00 00 00 00 00 00 00 00 00 00 00 00 00 00 00 00
e1316640  ff ff ff ff ff ff ff ff ff ff ff ff ff ff ff ff
e1316650  00 00 00 00 00 00 00 00 00 00 00 00 00 00 00 00
e1316660  ff ff ff ff ff ff ff ff ff ff ff ff ff ff ff ff
e1316670  00 00 00 00 00 00 00 00 00 00 00 00 00 00 00 00
e1316680  ff ff ff ff ff ff ff ff ff ff ff ff ff ff ff ff
e1316690  00 00 00 00 00 00 00 00 00 00 00 00 00 00 00 00
e13166a0  ff ff ff ff ff ff ff ff ff ff ff ff ff ff ff ff
e13166b0  00 00 00 00 00 00 00 00 00 00 00 00 00 00 00 00
e13166c0  ff ff ff ff ff ff ff ff ff ff ff ff ff ff ff ff
e13166d0  00 00 00 00 00 00 00 00 00 00 00 00 00 00 00 00
e13166e0  ff ff ff ff ff ff ff ff ff ff ff ff ff ff ff ff
e13166f0  00 00 00 00 00 00 00 00 00 00 00 00 00 00 00 00
e1316700  ff ff ff ff ff ff ff ff ff ff ff ff ff ff ff ff
e1316710  00 00 00 00 00 00 00 00 00 00 00 00 00 00 00 00
e1316720  ff ff ff ff ff ff ff ff ff ff ff ff ff ff ff ff
e1316730  00 00 00 00 00 00 00 00 00 00 00 00 00 00 00 00
e1316740  ff ff ff ff ff ff ff ff ff ff ff ff ff ff ff ff
e1316750  00 00 00 00 00 00 00 00 00 00 00 00 00 00 00 00
e1316760  ff ff ff ff ff ff ff ff ff ff ff ff ff ff ff ff
e1316770  00 00 00 00 00 00 00 00 00 00 00 00 00 00 00 00
e1316780  ff ff ff ff ff ff ff ff ff ff ff ff ff ff ff ff
e1316790  00 00 00 00 00 00 00 00 00 00 00 00 00 00 00 00
e13167a0  ff ff ff ff ff ff ff ff ff ff ff ff ff ff ff ff
e13167b0  00 00 00 00 00 00 00 00 00 00 00 00 00 00 00 00
e13167c0  ff ff ff ff ff ff ff ff ff ff ff ff ff ff ff ff
e13167d0  00 00 00 00 00 00 00 00 00 00 00 00 00 00 00 00
e13167e0  ff ff ff ff ff ff ff ff ff ff ff ff ff ff ff ff
e13167f0  00 00 00 00 00 00 00 00 00 00 00 00 00 00 00 00
e1316800  ff ff ff ff ff ff ff ff ff ff ff ff ff ff ff ff
e1316810  00 00 00 00 00 00 00 00 00 00 00 00 00 00 00 00
e1316820  ff ff ff ff ff ff ff ff ff ff ff ff ff ff ff ff
e1316830  00 00 00 00 00 00 00 00 00 00 00 00 00 00 00 00
e1316840  ff ff ff ff ff ff ff ff ff ff ff ff ff ff ff ff
e1316850  00 00 00 00 00 00 00 00 00 00 00 00 00 00 00 00
e1316860  ff ff ff ff ff ff ff ff ff ff ff ff ff ff ff ff
e1316870  00 00 00 00 00 00 00 00 00 00 00 00 00 00 00 00
e1316880  ff ff ff ff ff ff ff ff ff ff ff ff ff ff ff ff
e1316890  00 00 00 00 00 00 00 00 00 00 00 00 00 00 00 00
e13168a0  ff ff ff ff ff ff ff ff ff ff ff ff ff ff ff ff
e13168b0  00 00 00 00 00 00 00 00 00 00 00 00 00 00 00 00
e13168c0  ff ff ff ff ff ff ff ff ff ff ff ff ff ff ff ff
e13168d0  00 00 00 00 00 00 00 00 00 00 00 00 00 00 00 00
e13168e0  ff ff ff ff ff ff ff ff ff ff ff ff ff ff ff ff
e13168f0  00 00 00 00 00 00 00 00 00 00 00 00 00 00 00 00
e1316900  ff ff ff ff ff ff ff ff ff ff ff ff ff ff ff ff
e1316910  00 00 00 00 00 00 00 00 00 00 00 00 00 00 00 00
e1316920  ff ff ff ff ff ff ff ff ff ff ff ff ff ff ff ff
e1316930  00 00 00 00 00 00 00 00 00 00 00 00 00 00 00 00
e1316940  ff ff ff ff ff ff ff ff ff ff ff ff ff ff ff ff
e1316950  00 00 00 00 00 00 00 00 00 00 00 00 00 00 00 00
e1316960  ff ff ff ff ff ff ff ff ff ff ff ff ff ff ff ff
e1316970  00 00 00 00 00 00 00 00 00 00 00 00 00 00 00 00
e1316980  ff ff ff ff ff ff ff ff ff ff ff ff ff ff ff ff
e1316990  00 00 00 00 00 00 00 00 00 00 00 00 00 00 00 00
e13169a0  ff ff ff ff ff ff ff ff ff ff ff ff ff ff ff ff
e13169b0  00 00 00 00 00 00 00 00 00 00 00 00 00 00 00 00
e13169c0  ff ff ff ff ff ff ff ff ff ff ff ff ff ff ff ff
e13169d0  00 00 00 00 00 00 00 00 00 00 00 00 00 00 00 00
e13169e0  ff ff ff ff ff ff ff ff ff ff ff ff ff ff ff ff
e13169f0  00 00 00 00 00 00 00 00 00 00 00 00 00 00 00 00
e1316a00  ff ff ff ff ff ff ff ff ff ff ff ff ff ff ff ff
e1316a10  00 00 00 00 00 00 00 00 00 00 00 00 00 00 00 00
e1316a20  ff ff ff ff ff ff ff ff ff ff ff ff ff ff ff ff
e1316a30  00 00 00 00 00 00 00 00 00 00 00 00 00 00 00 00
e1316a40  ff ff ff ff ff ff ff ff ff ff ff ff ff ff ff ff
e1316a50  00 00 00 00 00 00 00 00 00 00 00 00 00 00 00 00
e1316a60  ff ff ff ff ff ff ff ff ff ff ff ff ff ff ff ff
e1316a70  00 00 00 00 00 00 00 00 00 00 00 00 00 00 00 00
e1316a80  ff ff ff ff ff ff ff ff ff ff ff ff ff ff ff ff
e1316a90  00 00 00 00 00 00 00 00 00 00 00 00 00 00 00 00
e1316aa0  ff ff ff ff ff ff ff ff ff ff ff ff ff ff ff ff
e1316ab0  00 00 00 00 00 00 00 00 00 00 00 00 00 00 00 00
e1316ac0  ff ff ff ff ff ff ff ff ff ff ff ff ff ff ff ff
e1316ad0  00 00 00 00 00 00 00 00 00 00 00 00 00 00 00 00
e1316ae0  ff ff ff ff ff ff ff ff ff ff ff ff ff ff ff ff
e1316af0  00 00 00 00 00 00 00 00 00 00 00 00 00 00 00 00
e1316b00  ff ff ff ff ff ff ff ff ff ff ff ff ff ff ff ff
e1316b10  00 00 00 00 00 00 00 00 00 00 00 00 00 00 00 00
e1316b20  ff ff ff ff ff ff ff ff ff ff ff ff ff ff ff ff
e1316b30  00 00 00 00 00 00 00 00 00 00 00 00 00 00 00 00
e1316b40  ff ff ff ff ff ff ff ff ff ff ff ff ff ff ff ff
e1316b50  00 00 00 00 00 00 00 00 00 00 00 00 00 00 00 00
e1316b60  ff ff ff ff ff ff ff ff ff ff ff ff ff ff ff ff
e1316b70  00 00 00 00 00 00 00 00 00 00 00 00 00 00 00 00
e1316b80  ff ff ff ff ff ff ff ff ff ff ff ff ff ff ff ff
e1316b90  00 00 00 00 00 00 00 00 00 00 00 00 00 00 00 00
e1316ba0  ff ff ff ff ff ff ff ff ff ff ff ff ff ff ff ff
e1316bb0  00 00 00 00 00 00 00 00 00 00 00 00 00 00 00 00
e1316bc0  ff ff ff ff ff ff ff ff ff ff ff ff ff ff ff ff
e1316bd0  00 00 00 00 00 00 00 00 00 00 00 00 00 00 00 00
e1316be0  ff ff ff ff ff ff ff ff ff ff ff ff ff ff ff ff
e1316bf0  00 00 00 00 00 00 00 00 00 00 00 00 00 00 00 00
e1316c00  ff ff ff ff ff ff ff ff ff ff ff ff ff ff ff ff
e1316c10  00 00 00 00 00 00 00 00 00 00 00 00 00 00 00 00
e1316c20  ff ff ff ff ff ff ff ff ff ff ff ff ff ff ff ff
e1316c30  00 00 00 00 00 00 00 00 00 00 00 00 00 00 00 00
e1316c40  ff ff ff ff ff ff ff ff ff ff ff ff ff ff ff ff
e1316c50  00 00 00 00 00 00 00 00 00 00 00 00 00 00 00 00
e1316c60  ff ff ff ff ff ff ff ff ff ff ff ff ff ff ff ff
e1316c70  00 00 00 00 00 00 00 00 00 00 00 00 00 00 00 00
e1316c80  ff ff ff ff ff ff ff ff ff ff ff ff ff ff ff ff
e1316c90  00 00 00 00 00 00 00 00 00 00 00 00 00 00 00 00
e1316ca0  ff ff ff ff ff ff ff ff ff ff ff ff ff ff ff ff
e1316cb0  00 00 00 00 00 00 00 00 00 00 00 00 00 00 00 00
e1316cc0  ff ff ff ff ff ff ff ff ff ff ff ff ff ff ff ff
e1316cd0  00 00 00 00 00 00 00 00 00 00 00 00 00 00 00 00
e1316ce0  ff ff ff ff ff ff ff ff ff ff ff ff ff ff ff ff
e1316cf0  00 00 00 00 00 00 00 00 00 00 00 00 00 00 00 00
e1316d00  ff ff ff ff ff ff ff ff ff ff ff ff ff ff ff ff
e1316d10  00 00 00 00 00 00 00 00 00 00 00 00 00 00 00 00
e1316d20  ff ff ff ff ff ff ff ff ff ff ff ff ff ff ff ff
e1316d30  00 00 00 00 00 00 00 00 00 00 00 00 00 00 00 00
e1316d40  ff ff ff ff ff ff ff ff ff ff ff ff ff ff ff ff
e1316d50  00 00 00 00 00 00 00 00 00 00 00 00 00 00 00 00
e1316d60  ff ff ff ff ff ff ff ff ff ff ff ff ff ff ff ff
e1316d70  00 00 00 00 00 00 00 00 00 00 00 00 00 00 00 00
e1316d80  ff ff ff ff ff ff ff ff ff ff ff ff ff ff ff ff
e1316d90  00 00 00 00 00 00 00 00 00 00 00 00 00 00 00 00
e1316da0  ff ff ff ff ff ff ff ff ff ff ff ff ff ff ff ff
e1316db0  00 00 00 00 00 00 00 00 00 00 00 00 00 00 00 00
e1316dc0  ff ff ff ff ff ff ff ff ff ff ff ff ff ff ff ff
e1316dd0  00 00 00 00 00 00 00 00 00 00 00 00 00 00 00 00
e1316de0  ff ff ff ff ff ff ff ff ff ff ff ff ff ff ff ff
e1316df0  00 00 00 00 00 00 00 00 00 00 00 00 00 00 00 00
e1316e00  ff ff ff ff ff ff ff ff ff ff ff ff ff ff ff ff
e1316e10  00 00 00 00 00 00 00 00 00 00 00 00 00 00 00 00
e1316e20  ff ff ff ff ff ff ff ff ff ff ff ff ff ff ff ff
e1316e30  00 00 00 00 00 00 00 00 00 00 00 00 00 00 00 00
e1316e40  ff ff ff ff ff ff ff ff ff ff ff ff ff ff ff ff
e1316e50  00 00 00 00 00 00 00 00 00 00 00 00 00 00 00 00
e1316e60  ff ff ff ff ff ff ff ff ff ff ff ff ff ff ff ff
e1316e70  00 00 00 00 00 00 00 00 00 00 00 00 00 00 00 00
e1316e80  ff ff ff ff ff ff ff ff ff ff ff ff ff ff ff ff
e1316e90  00 00 00 00 00 00 00 00 00 00 00 00 00 00 00 00
e1316ea0  ff ff ff ff ff ff ff ff ff ff ff ff ff ff ff ff
e1316eb0  00 00 00 00 00 00 00 00 00 00 00 00 00 00 00 00
e1316ec0  ff ff ff ff ff ff ff ff ff ff ff ff ff ff ff ff
e1316ed0  00 00 00 00 00 00 00 00 00 00 00 00 00 00 00 00
e1316ee0  ff ff ff ff ff ff ff ff ff ff ff ff ff ff ff ff
e1316ef0  00 00 00 00 00 00 00 00 00 00 00 00 00 00 00 00
e1316f00  ff ff ff ff ff ff ff ff ff ff ff ff ff ff ff ff
e1316f10  00 00 00 00 00 00 00 00 00 00 00 00 00 00 00 00
e1316f20  ff ff ff ff ff ff ff ff ff ff ff ff ff ff ff ff
e1316f30  00 00 00 00 00 00 00 00 00 00 00 00 00 00 00 00
e1316f40  ff ff ff ff ff ff ff ff ff ff ff ff ff ff ff ff
e1316f50  00 00 00 00 00 00 00 00 00 00 00 00 00 00 00 00
e1316f60  ff ff ff ff ff ff ff ff ff ff ff ff ff ff ff ff
e1316f70  00 00 00 00 00 00 00 00 00 00 00 00 00 00 00 00
e1316f80  ff ff ff ff ff ff ff ff ff ff ff ff ff ff ff ff
e1316f90  00 00 00 00 00 00 00 00 00 00 00 00 00 00 00 00
e1316fa0  ff ff ff ff ff ff ff ff ff ff ff ff ff ff ff ff
e1316fb0  00 00 00 00 00 00 00 00 00 00 00 00 00 00 00 00
e1316fc0  ff ff ff ff ff ff ff ff ff ff ff ff ff ff ff ff
e1316fd0  00 00 00 00 00 00 00 00 00 00 00 00 00 00 00 00
e1316fe0  ff ff ff ff ff ff ff ff ff ff ff ff ff ff ff ff
e1316ff0  00 00 00 00 00 00 00 00 00 00 00 00 00 00 00 00
e1317000  ff ff ff ff ff ff ff ff ff ff ff ff ff ff ff ff
e1317010  00 00 00 00 00 00 00 00 00 00 00 00 00 00 00 00
e1317020  ff ff ff ff ff ff ff ff ff ff ff ff ff ff ff ff
e1317030  00 00 00 00 00 00 00 00 00 00 00 00 00 00 00 00
e1317040  ff ff ff ff ff ff ff ff ff ff ff ff ff ff ff ff
e1317050  00 00 00 00 00 00 00 00 00 00 00 00 00 00 00 00
e1317060  ff ff ff ff ff ff ff ff ff ff ff ff ff ff ff ff
e1317070  00 00 00 00 00 00 00 00 00 00 00 00 00 00 00 00
e1317080  ff ff ff ff ff ff ff ff ff ff ff ff ff ff ff ff
e1317090  00 00 00 00 00 00 00 00 00 00 00 00 00 00 00 00
e13170a0  ff ff ff ff ff ff ff ff ff ff ff ff ff ff ff ff
e13170b0  00 00 00 00 00 00 00 00 00 00 00 00 00 00 00 00
e13170c0  ff ff ff ff ff ff ff ff ff ff ff ff ff ff ff ff
e13170d0  00 00 00 00 00 00 00 00 00 00 00 00 00 00 00 00
e13170e0  ff ff ff ff ff ff ff ff ff ff ff ff ff ff ff ff
e13170f0  00 00 00 00 00 00 00 00 00 00 00 00 00 00 00 00
e1317100  ff ff ff ff ff ff ff ff ff ff ff ff ff ff ff ff
e1317110  00 00 00 00 00 00 00 00 00 00 00 00 00 00 00 00
e1317120  ff ff ff ff ff ff ff ff ff ff ff ff ff ff ff ff
e1317130  00 00 00 00 00 00 00 00 00 00 00 00 00 00 00 00
e1317140  ff ff ff ff ff ff ff ff ff ff ff ff ff ff ff ff
e1317150  00 00 00 00 00 00 00 00 00 00 00 00 00 00 00 00
e1317160  ff ff ff ff ff ff ff ff ff ff ff ff ff ff ff ff
e1317170  00 00 00 00 00 00 00 00 00 00 00 00 00 00 00 00
e1317180  ff ff ff ff ff ff ff ff ff ff ff ff ff ff ff ff
e1317190  00 00 00 00 00 00 00 00 00 00 00 00 00 00 00 00
e13171a0  ff ff ff ff ff ff ff ff ff ff ff ff ff ff ff ff
e13171b0  00 00 00 00 00 00 00 00 00 00 00 00 00 00 00 00
e13171c0  ff ff ff ff ff ff ff ff ff ff ff ff ff ff ff ff
e13171d0  00 00 00 00 00 00 00 00 00 00 00 00 00 00 00 00
e13171e0  ff ff ff ff ff ff ff ff ff ff ff ff ff ff ff ff
e13171f0  00 00 00 00 00 00 00 00 00 00 00 00 00 00 00 00
e1317200  ff ff ff ff ff ff ff ff ff ff ff ff ff ff ff ff
e1317210  00 00 00 00 00 00 00 00 00 00 00 00 00 00 00 00
e1317220  ff ff ff ff ff ff ff ff ff ff ff ff ff ff ff ff
e1317230  00 00 00 00 00 00 00 00 00 00 00 00 00 00 00 00
e1317240  ff ff ff ff ff ff ff ff ff ff ff ff ff ff ff ff
e1317250  00 00 00 00 00 00 00 00 00 00 00 00 00 00 00 00
e1317260  ff ff ff ff ff ff ff ff ff ff ff ff ff ff ff ff
e1317270  00 00 00 00 00 00 00 00 00 00 00 00 00 00 00 00
e1317280  ff ff ff ff ff ff ff ff ff ff ff ff ff ff ff ff
e1317290  00 00 00 00 00 00 00 00 00 00 00 00 00 00 00 00
e13172a0  ff ff ff ff ff ff ff ff ff ff ff ff ff ff ff ff
e13172b0  00 00 00 00 00 00 00 00 00 00 00 00 00 00 00 00
e13172c0  ff ff ff ff ff ff ff ff ff ff ff ff ff ff ff ff
e13172d0  00 00 00 00 00 00 00 00 00 00 00 00 00 00 00 00
e13172e0  ff ff ff ff ff ff ff ff ff ff ff ff ff ff ff ff
e13172f0  00 00 00 00 00 00 00 00 00 00 00 00 00 00 00 00
e1317300  ff ff ff ff ff ff ff ff ff ff ff ff ff ff ff ff
e1317310  00 00 00 00 00 00 00 00 00 00 00 00 00 00 00 00
e1317320  ff ff ff ff ff ff ff ff ff ff ff ff ff ff ff ff
e1317330  00 00 00 00 00 00 00 00 00 00 00 00 00 00 00 00
e1317340  ff ff ff ff ff ff ff ff ff ff ff ff ff ff ff ff
e1317350  00 00 00 00 00 00 00 00 00 00 00 00 00 00 00 00
e1317360  ff ff ff ff ff ff ff ff ff ff ff ff ff ff ff ff
e1317370  00 00 00 00 00 00 00 00 00 00 00 00 00 00 00 00
e1317380  ff ff ff ff ff ff ff ff ff ff ff ff ff ff ff ff
e1317390  00 00 00 00 00 00 00 00 00 00 00 00 00 00 00 00
e13173a0  ff ff ff ff ff ff ff ff ff ff ff ff ff ff ff ff
e13173b0  00 00 00 00 00 00 00 00 00 00 00 00 00 00 00 00
e13173c0  ff ff ff ff ff ff ff ff ff ff ff ff ff ff ff ff
e13173d0  00 00 00 00 00 00 00 00 00 00 00 00 00 00 00 00
e13173e0  ff ff ff ff ff ff ff ff ff ff ff ff ff ff ff ff
e13173f0  00 00 00 00 00 00 00 00 00 00 00 00 00 00 00 00
e1317400  ff ff ff ff ff ff ff ff ff ff ff ff ff ff ff ff
e1317410  00 00 00 00 00 00 00 00 00 00 00 00 00 00 00 00
e1317420  ff ff ff ff ff ff ff ff ff ff ff ff ff ff ff ff
e1317430  00 00 00 00 00 00 00 00 00 00 00 00 00 00 00 00
e1317440  ff ff ff ff ff ff ff ff ff ff ff ff ff ff ff ff
e1317450  00 00 00 00 00 00 00 00 00 00 00 00 00 00 00 00
e1317460  ff ff ff ff ff ff ff ff ff ff ff ff ff ff ff ff
e1317470  00 00 00 00 00 00 00 00 00 00 00 00 00 00 00 00
e1317480  ff ff ff ff ff ff ff ff ff ff ff ff ff ff ff ff
e1317490  00 00 00 00 00 00 00 00 00 00 00 00 00 00 00 00
e13174a0  ff ff ff ff ff ff ff ff ff ff ff ff ff ff ff ff
e13174b0  00 00 00 00 00 00 00 00 00 00 00 00 00 00 00 00
e13174c0  ff ff ff ff ff ff ff ff ff ff ff ff ff ff ff ff
e13174d0  00 00 00 00 00 00 00 00 00 00 00 00 00 00 00 00
e13174e0  ff ff ff ff ff ff ff ff ff ff ff ff ff ff ff ff
e13174f0  00 00 00 00 00 00 00 00 00 00 00 00 00 00 00 00
e1317500  ff ff ff ff ff ff ff ff ff ff ff ff ff ff ff ff
e1317510  00 00 00 00 00 00 00 00 00 00 00 00 00 00 00 00
e1317520  ff ff ff ff ff ff ff ff ff ff ff ff ff ff ff ff
e1317530  00 00 00 00 00 00 00 00 00 00 00 00 00 00 00 00
e1317540  72

-------------------------------------------------------------------------------
     Signo   Sender     Addr    Owner Pool Req. Size Real Size
---------- -------- -------- -------- ---- --------- ---------
 210501779 00000019 00000019 00000019    4      1260      2000

Hex Addr  00 01 02 03 04 05 06 07 08 09 0a 0b 0c 0d 0e 0f
--------  -- -- -- -- -- -- -- -- -- -- -- -- -- -- -- --
e1317c48  0c 8c 00 93 00 ac 07 5f 1e 00 00 00 00 00 00 00
e1317c58  c0 7f 00 00 83 03 2c 01 64 00 2c 01 00 a0 2e 03
e1317c68  02 04 01 00 03 00 00 00 ff 00 0c 8c 00 93 00 ac
e1317c78  07 5f 1e 00 00 00 00 00 00 00 c0 7f 00 00 83 03
e1317c88  2c 01 64 00 2c 01 00 a0 2e 03 02 04 01 00 03 00
e1317c98  00 00 ff 00 0c 8c 00 93 00 ac 07 5f 1e 00 00 00
e1317ca8  00 00 00 00 c0 7f 00 00 83 03 2c 01 64 00 2c 01
e1317cb8  00 a0 2e 03 02 04 01 00 03 00 00 00 ff 00 0c 8c
e1317cc8  00 93 00 ac 07 5f 1e 00 00 00 00 00 00 00 c0 7f
e1317cd8  00 00 83 03 2c 01 64 00 2c 01 00 a0 2e 03 02 04
e1317ce8  01 00 03 00 00 00 ff 00 0c 8c 00 93 00 ac 07 5f
e1317cf8  1e 00 00 00 00 00 00 00 c0 7f 00 00 83 03 2c 01
e1317d08  64 00 2c 01 00 a0 2e 03 02 04 01 00 03 00 00 00
e1317d18  ff 00 0c 8c 00 93 00 ac 07 5f 1e 00 00 00 00 00
e1317d28  00 00 c0 7f 00 00 83 03 2c 01 64 00 2c 01 00 a0
e1317d38  2e 03 02 04 01 00 03 00 00 00 ff 00 0c 8c 00 93
e1317d48  00 ac 07 5f 1e 00 00 00 00 00 00 00 c0 7f 00 00
e1317d58  83 03 2c 01 64 00 2c 01 00 a0 2e 03 02 04 01 00
e1317d68  03 00 00 00 ff 00 0c 8c 00 93 00 ac 07 5f 1e 00
e1317d78  00 00 00 00 00 00 c0 7f 00 00 83 03 2c 01 64 00
e1317d88  2c 01 00 a0 2e 03 02 04 01 00 03 00 00 00 ff 00
e1317d98  0c 8c 00 93 00 ac 07 5f 1e 00 00 00 00 00 00 00
e1317da8  c0 7f 00 00 83 03 2c 01 64 00 2c 01 00 a0 2e 03
e1317db8  02 04 01 00 03 00 00 00 ff 00 0c 8c 00 93 00 ac
e1317dc8  07 5f 1e 00 00 00 00 00 00 00 c0 7f 00 00 83 03
e1317dd8  2c 01 64 00 2c 01 00 a0 2e 03 02 04 01 00 03 00
e1317de8  00 00 ff 00 0c 8c 00 93 00 ac 07 5f 1e 00 00 00
e1317df8  00 00 00 00 c0 7f 00 00 83 03 2c 01 64 00 2c 01
e1317e08  00 a0 2e 03 02 04 01 00 03 00 00 00 ff 00 0c 8c
e1317e18  00 93 00 ac 07 5f 1e 00 00 00 00 00 00 00 c0 7f
e1317e28  00 00 83 03 2c 01 64 00 2c 01 00 a0 2e 03 02 04
e1317e38  01 00 03 00 00 00 ff 00 0c 8c 00 93 00 ac 07 5f
e1317e48  1e 00 00 00 00 00 00 00 c0 7f 00 00 83 03 2c 01
e1317e58  64 00 2c 01 00 a0 2e 03 02 04 01 00 03 00 00 00
e1317e68  ff 00 0c 8c 00 93 00 ac 07 5f 1e 00 00 00 00 00
e1317e78  00 00 c0 7f 00 00 83 03 2c 01 64 00 2c 01 00 a0
e1317e88  2e 03 02 04 01 00 03 00 00 00 ff 00 0c 8c 00 93
e1317e98  00 ac 07 5f 1e 00 00 00 00 00 00 00 c0 7f 00 00
e1317ea8  83 03 2c 01 64 00 2c 01 00 a0 2e 03 02 04 01 00
e1317eb8  03 00 00 00 ff 00 0c 8c 00 93 00 ac 07 5f 1e 00
e1317ec8  00 00 00 00 00 00 c0 7f 00 00 83 03 2c 01 64 00
e1317ed8  2c 01 00 a0 2e 03 02 04 01 00 03 00 00 00 ff 00
e1317ee8  0c 8c 00 93 00 ac 07 5f 1e 00 00 00 00 00 00 00
e1317ef8  c0 7f 00 00 83 03 2c 01 64 00 2c 01 00 a0 2e 03
e1317f08  02 04 01 00 03 00 00 00 ff 00 0c 8c 00 93 00 ac
e1317f18  07 5f 1e 00 00 00 00 00 00 00 c0 7f 00 00 83 03
e1317f28  2c 01 64 00 2c 01 00 a0 2e 03 02 04 01 00 03 00
e1317f38  00 00 ff 00 0c 8c 00 93 00 ac 07 5f 1e 00 00 00
e1317f48  00 00 00 00 c0 7f 00 00 83 03 2c 01 64 00 2c 01
e1317f58  00 a0 2e 03 02 04 01 00 03 00 00 00 ff 00 0c 8c
e1317f68  00 93 00 ac 07 5f 1e 00 00 00 00 00 00 00 c0 7f
e1317f78  00 00 83 03 2c 01 64 00 2c 01 00 a0 2e 03 02 04
e1317f88  01 00 03 00 00 00 ff 00 0c 8c 00 93 00 ac 07 5f
e1317f98  1e 00 00 00 00 00 00 00 c0 7f 00 00 83 03 2c 01
e1317fa8  64 00 2c 01 00 a0 2e 03 02 04 01 00 03 00 00 00
e1317fb8  ff 00 0c 8c 00 93 00 ac 07 5f 1e 00 00 00 00 00
e1317fc8  00 00 c0 7f 00 00 83 03 2c 01 64 00 2c 01 00 a0
e1317fd8  2e 03 02 04 01 00 03 00 00 00 ff 00 0c 8c 00 93
e1317fe8  00 ac 07 5f 1e 00 00 00 00 00 00 00 c0 7f 00 00
e1317ff8  83 03 2c 01 64 00 2c 01 00 a0 2e 03 02 04 01 00
e1318008  03 00 00 00 ff 00 0c 8c 00 93 00 ac 07 5f 1e 00
e1318018  00 00 00 00 00 00 c0 7f 00 00 83 03 2c 01 64 00
e1318028  2c 01 00 a0 2e 03 02 04 01 00 03 00 00 00 ff 00
e1318038  0c 8c 00 93 00 ac 07 5f 1e 00 00 00 00 00 00 00
e1318048  c0 7f 00 00 83 03 2c 01 64 00 2c 01 00 a0 2e 03
e1318058  02 04 01 00 03 00 00 00 ff 00 0c 8c 00 93 00 ac
e1318068  07 5f 1e 00 00 00 00 00 00 00 c0 7f 00 00 83 03
e1318078  2c 01 64 00 2c 01 00 a0 2e 03 02 04 01 00 03 00
e1318088  00 00 ff 00 0c 8c 00 93 00 ac 07 5f 1e 00 00 00
e1318098  00 00 00 00 c0 7f 00 00 83 03 2c 01 64 00 2c 01
e13180a8  00 a0 2e 03 02 04 01 00 03 00 00 00 ff 00 0c 8c
e13180b8  00 93 00 ac 07 5f 1e 00 00 00 00 00 00 00 c0 7f
e13180c8  00 00 83 03 2c 01 64 00 2c 01 00 a0 2e 03 02 04
e13180d8  01 00 03 00 00 00 ff 00 0c 8c 00 93 00 ac 07 5f
e13180e8  1e 00 00 00 00 00 00 00 c0 7f 00 00 83 03 2c 01
e13180f8  64 00 2c 01 00 a0 2e 03 02 04 01 00 03 00 00 00
e1318108  ff 00 0c 8c 00 93 00 ac 07 5f 1e 00 00 00 00 00
e1318118  00 00 c0 7f 00 00 83 03 2c 01 64 00 2c 01 00 a0
e1318128  2e 03 02 04 01 00 03 00 00 00 ff 00 72

-------------------------------------------------------------------------------
     Signo   Sender     Addr    Owner Pool Req. Size Real Size
---------- -------- -------- -------- ---- --------- ---------
4294967295 00000019 00000019 00000019    4      2320      3072

Hex Addr  00 01 02 03 04 05 06 07 08 09 0a 0b 0c 0d 0e 0f
--------  -- -- -- -- -- -- -- -- -- -- -- -- -- -- -- --
e1318440  ff ff ff ff 00 00 00 00 00 00 00 00 00 00 00 00
e1318450  00 00 00 00 00 00 00 00 00 00 00 00 00 00 00 00
e1318460  00 00 00 00 00 00 00 00 00 00 00 00 00 00 00 00
e1318470  00 00 00 00 00 00 00 00 00 00 00 00 00 00 00 00
e1318480  00 00 00 00 00 00 00 00 00 00 00 00 00 00 00 00
e1318490  00 00 00 00 00 00 00 00 00 00 00 00 00 00 00 00
e13184a0  00 00 00 00 00 00 00 00 00 00 00 00 00 00 00 00
e13184b0  00 00 00 00 00 00 00 00 00 00 00 00 00 00 00 00
e13184c0  00 00 00 00 00 00 00 00 00 00 00 00 00 00 00 00
e13184d0  00 00 00 00 00 00 00 00 00 00 00 00 00 00 00 00
e13184e0  00 00 00 00 00 00 00 00 00 00 00 00 00 00 00 00
e13184f0  00 00 00 00 00 00 00 00 00 00 00 00 00 00 00 00
e1318500  00 00 00 00 00 00 00 00 00 00 00 00 00 00 00 00
e1318510  00 00 00 00 00 00 00 00 00 00 00 00 00 00 00 00
e1318520  00 00 00 00 00 00 00 00 00 00 00 00 00 00 00 00
e1318530  00 00 00 00 00 00 00 00 00 00 00 00 00 00 00 00
e1318540  00 00 00 00 00 00 00 00 00 00 00 00 00 00 00 00
e1318550  00 00 00 00 00 00 00 00 00 00 00 00 00 00 00 00
e1318560  00 00 00 00 00 00 00 00 00 00 00 00 00 00 00 00
e1318570  00 00 00 00 00 00 00 00 00 00 00 00 00 00 00 00
e1318580  00 00 00 00 00 00 00 00 00 00 00 00 00 00 00 00
e1318590  00 00 00 00 00 00 00 00 00 00 00 00 00 00 00 00
e13185a0  00 00 00 00 00 00 00 00 00 00 00 00 00 00 00 00
e13185b0  00 00 00 00 00 00 00 00 00 00 00 00 00 00 00 00
e13185c0  00 00 00 00 00 00 00 00 00 00 00 00 00 00 00 00
e13185d0  00 00 00 00 00 00 00 00 00 00 00 00 00 00 00 00
e13185e0  00 00 00 00 00 00 00 00 00 00 00 00 00 00 00 00
e13185f0  00 00 00 00 00 00 00 00 00 00 00 00 00 00 00 00
e1318600  00 00 00 00 00 00 00 00 00 00 00 00 00 00 00 00
e1318610  00 00 00 00 00 00 00 00 00 00 00 00 00 00 00 00
e1318620  00 00 00 00 00 00 00 00 00 00 00 00 00 00 00 00
e1318630  00 00 00 00 00 00 00 00 00 00 00 00 00 00 00 00
e1318640  00 00 00 00 00 00 00 00 00 00 00 00 00 00 00 00
e1318650  00 00 00 00 00 00 00 00 00 00 00 00 00 00 00 00
e1318660  00 00 00 00 00 00 00 00 00 00 00 00 00 00 00 00
e1318670  00 00 00 00 00 00 00 00 00 00 00 00 00 00 00 00
e1318680  00 00 00 00 00 00 00 00 00 00 00 00 00 00 00 00
e1318690  00 00 00 00 00 00 00 00 00 00 00 00 00 00 00 00
e13186a0  00 00 00 00 00 00 00 00 00 00 00 00 00 00 00 00
e13186b0  00 00 00 00 00 00 00 00 00 00 00 00 00 00 00 00
e13186c0  00 00 00 00 00 00 00 00 00 00 00 00 00 00 00 00
e13186d0  00 00 00 00 00 00 00 00 00 00 00 00 00 00 00 00
e13186e0  00 00 00 00 00 00 00 00 00 00 00 00 00 00 00 00
e13186f0  00 00 00 00 00 00 00 00 00 00 00 00 00 00 00 00
e1318700  00 00 00 00 00 00 00 00 00 00 00 00 00 00 00 00
e1318710  00 00 00 00 00 00 00 00 00 00 00 00 00 00 00 00
e1318720  00 00 00 00 00 00 00 00 00 00 00 00 00 00 00 00
e1318730  00 00 00 00 00 00 00 00 00 00 00 00 00 00 00 00
e1318740  00 00 00 00 00 00 00 00 00 00 00 00 00 00 00 00
e1318750  00 00 00 00 00 00 00 00 00 00 00 00 00 00 00 00
e1318760  00 00 00 00 00 00 00 00 00 00 00 00 00 00 00 00
e1318770  00 00 00 00 00 00 00 00 00 00 00 00 00 00 00 00
e1318780  00 00 00 00 00 00 00 00 00 00 00 00 00 00 00 00
e1318790  00 00 00 00 00 00 00 00 00 00 00 00 00 00 00 00
e13187a0  00 00 00 00 00 00 00 00 00 00 00 00 00 00 00 00
e13187b0  00 00 00 00 00 00 00 00 00 00 00 00 00 00 00 00
e13187c0  00 00 00 00 00 00 00 00 00 00 00 00 00 00 00 00
e13187d0  00 00 00 00 00 00 00 00 00 00 00 00 00 00 00 00
e13187e0  00 00 00 00 00 00 00 00 00 00 00 00 00 00 00 00
e13187f0  00 00 00 00 00 00 00 00 00 00 00 00 00 00 00 00
e1318800  00 00 00 00 00 00 00 00 00 00 00 00 00 00 00 00
e1318810  00 00 00 00 00 00 00 00 00 00 00 00 00 00 00 00
e1318820  00 00 00 00 00 00 00 00 00 00 00 00 00 00 00 00
e1318830  00 00 00 00 00 00 00 00 00 00 00 00 00 00 00 00
e1318840  00 00 00 00 00 00 00 00 00 00 00 00 00 00 00 00
e1318850  00 00 00 00 00 00 00 00 00 00 00 00 00 00 00 00
e1318860  00 00 00 00 00 00 00 00 00 00 00 00 00 00 00 00
e1318870  00 00 00 00 00 00 00 00 00 00 00 00 00 00 00 00
e1318880  00 00 00 00 00 00 00 00 00 00 00 00 00 00 00 00
e1318890  00 00 00 00 00 00 00 00 00 00 00 00 00 00 00 00
e13188a0  00 00 00 00 00 00 00 00 00 00 00 00 00 00 00 00
e13188b0  00 00 00 00 00 00 00 00 00 00 00 00 00 00 00 00
e13188c0  00 00 00 00 00 00 00 00 00 00 00 00 00 00 00 00
e13188d0  00 00 00 00 00 00 00 00 00 00 00 00 00 00 00 00
e13188e0  00 00 00 00 00 00 00 00 00 00 00 00 00 00 00 00
e13188f0  00 00 00 00 00 00 00 00 00 00 00 00 00 00 00 00
e1318900  00 00 00 00 00 00 00 00 00 00 00 00 00 00 00 00
e1318910  00 00 00 00 00 00 00 00 00 00 00 00 00 00 00 00
e1318920  00 00 00 00 00 00 00 00 00 00 00 00 00 00 00 00
e1318930  00 00 00 00 00 00 00 00 00 00 00 00 00 00 00 00
e1318940  00 00 00 00 00 00 00 00 00 00 00 00 00 00 00 00
e1318950  00 00 00 00 00 00 00 00 00 00 00 00 00 00 00 00
e1318960  00 00 00 00 00 00 00 00 00 00 00 00 00 00 00 00
e1318970  00 00 00 00 00 00 00 00 00 00 00 00 00 00 00 00
e1318980  00 00 00 00 00 00 00 00 00 00 00 00 00 00 00 00
e1318990  00 00 00 00 00 00 00 00 00 00 00 00 00 00 00 00
e13189a0  00 00 00 00 00 00 00 00 00 00 00 00 00 00 00 00
e13189b0  00 00 00 00 00 00 00 00 00 00 00 00 00 00 00 00
e13189c0  00 00 00 00 00 00 00 00 00 00 00 00 00 00 00 00
e13189d0  00 00 00 00 00 00 00 00 00 00 00 00 00 00 00 00
e13189e0  00 00 00 00 00 00 00 00 00 00 00 00 00 00 00 00
e13189f0  00 00 00 00 00 00 00 00 00 00 00 00 00 00 00 00
e1318a00  00 00 00 00 00 00 00 00 00 00 00 00 00 00 00 00
e1318a10  00 00 00 00 00 00 00 00 00 00 00 00 00 00 00 00
e1318a20  00 00 00 00 00 00 00 00 00 00 00 00 00 00 00 00
e1318a30  00 00 00 00 00 00 00 00 00 00 00 00 00 00 00 00
e1318a40  00 00 00 00 00 00 00 00 00 00 00 00 00 00 00 00
e1318a50  00 00 00 00 00 00 00 00 00 00 00 00 00 00 00 00
e1318a60  00 00 00 00 00 00 00 00 00 00 00 00 00 00 00 00
e1318a70  00 00 00 00 00 00 00 00 00 00 00 00 00 00 00 00
e1318a80  00 00 00 00 00 00 00 00 00 00 00 00 00 00 00 00
e1318a90  00 00 00 00 00 00 00 00 00 00 00 00 00 00 00 00
e1318aa0  00 00 00 00 00 00 00 00 00 00 00 00 00 00 00 00
e1318ab0  00 00 00 00 00 00 00 00 00 00 00 00 00 00 00 00
e1318ac0  00 00 00 00 00 00 00 00 00 00 00 00 00 00 00 00
e1318ad0  00 00 00 00 00 00 00 00 00 00 00 00 00 00 00 00
e1318ae0  00 00 00 00 00 00 00 00 00 00 00 00 00 00 00 00
e1318af0  00 00 00 00 00 00 00 00 00 00 00 00 00 00 00 00
e1318b00  00 00 00 00 00 00 00 00 00 00 00 00 00 00 00 00
e1318b10  00 00 00 00 00 00 00 00 00 00 00 00 00 00 00 00
e1318b20  00 00 00 00 00 00 00 00 00 00 00 00 00 00 00 00
e1318b30  00 00 00 00 00 00 00 00 00 00 00 00 00 00 00 00
e1318b40  00 00 00 00 00 00 00 00 00 00 00 00 00 00 00 00
e1318b50  00 00 00 00 00 00 00 00 00 00 00 00 00 00 00 00
e1318b60  00 00 00 00 00 00 00 00 00 00 00 00 00 00 00 00
e1318b70  00 00 00 00 00 00 00 00 00 00 00 00 00 00 00 00
e1318b80  00 00 00 00 00 00 00 00 00 00 00 00 00 00 00 00
e1318b90  00 00 00 00 00 00 00 00 00 00 00 00 00 00 00 00
e1318ba0  00 00 00 00 00 00 00 00 00 00 00 00 00 00 00 00
e1318bb0  00 00 00 00 00 00 00 00 00 00 00 00 00 00 00 00
e1318bc0  00 00 00 00 00 00 00 00 00 00 00 00 00 00 00 00
e1318bd0  00 00 00 00 00 00 00 00 00 00 00 00 00 00 00 00
e1318be0  00 00 00 00 00 00 00 00 00 00 00 00 00 00 00 00
e1318bf0  00 00 00 00 00 00 00 00 00 00 00 00 00 00 00 00
e1318c00  00 00 00 00 00 00 00 00 00 00 00 00 00 00 00 00
e1318c10  00 00 00 00 00 00 00 00 00 00 00 00 00 00 00 00
e1318c20  00 00 00 00 00 00 00 00 00 00 00 00 00 00 00 00
e1318c30  00 00 00 00 00 00 00 00 00 00 00 00 00 00 00 00
e1318c40  00 00 00 00 00 00 00 00 00 00 00 00 00 00 00 00
e1318c50  00 00 00 00 00 00 00 00 00 00 00 00 00 00 00 00
e1318c60  00 00 00 00 00 00 00 00 00 00 00 00 00 00 00 00
e1318c70  00 00 00 00 00 00 00 00 00 00 00 00 00 00 00 00
e1318c80  00 00 00 00 00 00 00 00 00 00 00 00 00 00 00 00
e1318c90  00 00 00 00 00 00 00 00 00 00 00 00 00 00 00 00
e1318ca0  00 00 00 00 00 00 00 00 00 00 00 00 00 00 00 00
e1318cb0  00 00 00 00 00 00 00 00 00 00 00 00 00 00 00 00
e1318cc0  00 00 00 00 00 00 00 00 00 00 00 00 00 00 00 00
e1318cd0  00 00 00 00 00 00 00 00 00 00 00 00 00 00 00 00
e1318ce0  00 00 00 00 00 00 00 00 00 00 00 00 00 00 00 00
e1318cf0  00 00 00 00 00 00 00 00 00 00 00 00 00 00 00 00
e1318d00  00 00 00 00 00 00 00 00 00 00 00 00 00 00 00 00
e1318d10  00 00 00 00 00 00 00 00 00 00 00 00 00 00 00 00
e1318d20  00 00 00 00 00 00 00 00 00 00 00 00 00 00 00 00
e1318d30  00 00 00 00 00 00 00 00 00 00 00 00 00 00 00 00
e1318d40  00 00 00 00 00 00 00 00 00 00 00 00 00 00 00 00
e1318d50  72

-------------------------------------------------------------------------------
     Signo   Sender     Addr    Owner Pool Req. Size Real Size
---------- -------- -------- -------- ---- --------- ---------
        71 00000019 00000019 00000019    4        32       128

Hex Addr  00 01 02 03 04 05 06 07 08 09 0a 0b 0c 0d 0e 0f
--------  -- -- -- -- -- -- -- -- -- -- -- -- -- -- -- --
e131aab0  00 00 00 47 00 00 00 01 00 01 00 00 00 00 1f ff
e131aac0  00 00 00 00 00 00 00 00 00 00 00 00 1f ff 00 00
e131aad0  72

-------------------------------------------------------------------------------
     Signo   Sender     Addr    Owner Pool Req. Size Real Size
---------- -------- -------- -------- ---- --------- ---------
         0 00000009 00000009 00000019    5        86       128

Hex Addr  00 01 02 03 04 05 06 07 08 09 0a 0b 0c 0d 0e 0f
--------  -- -- -- -- -- -- -- -- -- -- -- -- -- -- -- --
e4356848  00 00 00 00 e4 35 68 68 00 80 7b 80 44 45 46 41
e4356858  55 4c 54 00 00 00 00 00 e4 35 68 48 6d 61 69 6e
e4356868  00 00 50 9a 69 a3 42 03 04 01 00 60 81 00 0f a0
e4356878  89 11 46 30 80 08 f0 02 30 1e 72 00 7f ff 00 00
e4356888  00 06 00 00 00 05 00 01 03 ed 00 10 00 00 00 00
e4356898  00 0a 00 00 0d 80 72

-------------------------------------------------------------------------------

Signals in Signal Queues
------------------------

The process does not have any signals in its queue.

Summary
-------

Number of signal buffers: Owned = 8, Queue = 0, Total = 8

===============================================================================
Process: Pid = 0000001a, dss
Owned Signals
-------------

     Signo   Sender     Addr    Owner Pool Req. Size Real Size
---------- -------- -------- -------- ---- --------- ---------
   8422232 0000001a 0000001a 0000001a    0        28        48

Hex Addr  00 01 02 03 04 05 06 07 08 09 0a 0b 0c 0d 0e 0f
--------  -- -- -- -- -- -- -- -- -- -- -- -- -- -- -- --
  807ab8  00 80 83 58 00 80 82 58 00 00 0c c6 00 00 00 f0
  807ac8  00 2a cf 80 00 00 00 00 80 00 00 08 72

-------------------------------------------------------------------------------
     Signo   Sender     Addr    Owner Pool Req. Size Real Size
---------- -------- -------- -------- ---- --------- ---------
   8420024 0000001a 0000001a 0000001a    0        28        48

Hex Addr  00 01 02 03 04 05 06 07 08 09 0a 0b 0c 0d 0e 0f
--------  -- -- -- -- -- -- -- -- -- -- -- -- -- -- -- --
  813590  00 80 7d e8 00 80 83 58 00 00 12 16 00 00 07 d0
  8135a0  e0 fe d8 c0 00 84 57 0c 80 00 00 09 72

-------------------------------------------------------------------------------

Signals in Signal Queues
------------------------

The process does not have any signals in its queue.

Summary
-------

Number of signal buffers: Owned = 2, Queue = 0, Total = 2

===============================================================================
Process: Pid = 0000001b, dfa
Owned Signals
-------------

     Signo   Sender     Addr    Owner Pool Req. Size Real Size
---------- -------- -------- -------- ---- --------- ---------
        71 0000001b 0000001b 0000001b    4        40       128

Hex Addr  00 01 02 03 04 05 06 07 08 09 0a 0b 0c 0d 0e 0f
--------  -- -- -- -- -- -- -- -- -- -- -- -- -- -- -- --
e131b7e8  00 00 00 47 00 09 00 01 00 00 00 00 00 00 00 03
e131b7f8  00 00 00 42 00 0b 00 01 00 00 00 00 00 00 00 00
e131b808  00 00 00 60 00 00 00 00 72

-------------------------------------------------------------------------------

Signals in Signal Queues
------------------------

The process does not have any signals in its queue.

Summary
-------

Number of signal buffers: Owned = 1, Queue = 0, Total = 1

===============================================================================
Process: Pid = 0000001c, dms
Owned Signals
-------------

     Signo   Sender     Addr    Owner Pool Req. Size Real Size
---------- -------- -------- -------- ---- --------- ---------
1836348730 0000001c 0000001c 0000001c    0         8        24

Hex Addr  00 01 02 03 04 05 06 07 08 09 0a 0b 0c 0d 0e 0f
--------  -- -- -- -- -- -- -- -- -- -- -- -- -- -- -- --
  812900  6d 74 75 3a 37 35 30 00 72

-------------------------------------------------------------------------------
     Signo   Sender     Addr    Owner Pool Req. Size Real Size
---------- -------- -------- -------- ---- --------- ---------
   8391080 0000001c 0000001c 0000001c    0       286       512

Hex Addr  00 01 02 03 04 05 06 07 08 09 0a 0b 0c 0d 0e 0f
--------  -- -- -- -- -- -- -- -- -- -- -- -- -- -- -- --
  813668  00 80 09 a8 e4 35 c1 f8 10 00 02 03 00 00 00 05
  813678  00 00 06 1d 00 00 00 03 00 00 00 00 00 80 46 78
  813688  42 03 03 01 00 60 42 03 04 01 00 60 00 00 00 09
  813698  00 00 00 00 00 00 00 03 75 e1 8e 3a 00 00 02 ee
  8136a8  00 00 00 00 00 00 00 00 00 00 00 00 00 00 00 00
  8136b8  00 00 00 08 00 00 00 08 10 00 02 03 00 81 36 c4
  8136c8  00 81 36 c4 00 00 00 0d 00 00 00 0d 00 00 00 00
  8136d8  00 00 00 00 00 81 36 dc 00 81 36 dc 00 00 00 00
  8136e8  00 00 00 80 00 00 00 00 00 81 36 f0 00 81 36 f0
  8136f8  00 00 00 0e 00 81 36 fc 00 81 36 fc 00 00 00 0e
  813708  00 04 00 00 00 00 00 01 00 81 37 74 00 00 00 01
  813718  00 00 00 01 00 80 46 70 00 80 60 58 00 00 00 9d
  813728  00 00 00 a3 00 00 00 01 00 81 36 68 e1 0f 03 00
  813738  00 00 00 00 00 00 00 00 00 00 00 00 00 00 00 00
  813748  00 00 00 00 00 00 00 00 00 81 37 20 00 00 00 89
  813758  00 00 00 ed 00 00 00 01 00 81 36 68 e1 0f 08 80
  813768  12 00 00 00 00 00 03 e8 00 81 29 00 64 6d 73 5f
  813778  64 6d 73 5f 6c 69 6e 6b 5f 30 00 ff ff ff 72

-------------------------------------------------------------------------------
     Signo   Sender     Addr    Owner Pool Req. Size Real Size
---------- -------- -------- -------- ---- --------- ---------
         0 0000001c 0000001c 0000001c    4       424       512

Hex Addr  00 01 02 03 04 05 06 07 08 09 0a 0b 0c 0d 0e 0f
--------  -- -- -- -- -- -- -- -- -- -- -- -- -- -- -- --
e131c2b0  00 00 00 00 00 00 00 00 ff ff ff ff 00 00 00 00
e131c2c0  00 00 00 00 00 00 00 00 00 00 00 00 00 00 00 00
e131c2d0  ff ff ff ff 00 00 00 00 00 00 00 00 00 00 00 00
e131c2e0  00 00 00 00 00 00 00 00 00 00 00 00 00 00 00 00
e131c2f0  00 00 00 00 ff ff ff ff 00 00 00 00 00 00 00 00
e131c300  00 00 00 00 00 00 00 00 00 00 00 00 00 00 00 00
e131c310  00 00 00 00 00 00 00 00 ff ff ff ff 00 00 00 00
e131c320  00 00 00 00 00 00 00 00 00 00 00 00 00 00 00 00
e131c330  00 00 00 00 00 00 00 00 00 00 00 00 ff ff ff ff
e131c340  00 00 00 00 00 00 00 00 00 00 00 00 00 00 00 00
e131c350  00 00 00 00 00 00 00 00 00 00 00 00 00 00 00 00
e131c360  ff ff ff ff 00 00 00 00 00 00 00 00 00 00 00 00
e131c370  00 00 00 00 00 00 00 00 00 00 00 00 00 00 00 00
e131c380  00 00 00 00 ff ff ff ff 00 00 00 00 00 00 00 00
e131c390  00 00 00 00 00 00 00 00 00 00 00 00 00 00 00 00
e131c3a0  00 00 00 00 00 00 00 00 ff ff ff ff 00 00 00 00
e131c3b0  00 00 00 00 00 00 00 00 00 00 00 00 00 00 00 00
e131c3c0  00 00 00 00 00 00 00 00 00 00 00 00 ff ff ff ff
e131c3d0  00 00 00 00 00 00 00 00 00 00 00 00 00 00 00 00
e131c3e0  00 00 00 00 00 00 00 00 00 00 00 00 00 00 00 00
e131c3f0  ff ff ff ff 00 00 00 00 00 00 00 00 00 00 00 00
e131c400  00 00 00 00 00 00 00 00 00 00 00 00 00 00 00 00
e131c410  00 00 00 00 ff ff ff ff 00 00 00 00 00 00 00 00
e131c420  00 00 00 00 00 00 00 00 00 00 00 00 00 00 00 00
e131c430  00 00 00 00 00 00 00 00 ff ff ff ff 00 00 00 00
e131c440  00 00 00 00 00 00 00 00 00 00 00 00 00 00 00 00
e131c450  00 00 00 00 00 00 00 00 72

-------------------------------------------------------------------------------
     Signo   Sender     Addr    Owner Pool Req. Size Real Size
---------- -------- -------- -------- ---- --------- ---------
         0 0000001c 0000001c 0000001c    5        74       128

Hex Addr  00 01 02 03 04 05 06 07 08 09 0a 0b 0c 0d 0e 0f
--------  -- -- -- -- -- -- -- -- -- -- -- -- -- -- -- --
e435bf18  00 00 00 00 e4 35 bf 38 00 80 7f 20 00 00 72 00
e435bf28  00 00 00 00 00 00 00 00 e4 35 bf 18 00 00 72 00
e435bf38  42 03 03 01 00 60 42 03 04 01 00 60 81 00 0f a0
e435bf48  89 11 46 00 80 18 20 00 70 04 f0 00 7f ff 00 00
e435bf58  00 01 00 00 00 01 00 08 00 08 72

-------------------------------------------------------------------------------

Signals in Signal Queues
------------------------

The process does not have any signals in its queue.

Summary
-------

Number of signal buffers: Owned = 4, Queue = 0, Total = 4

===============================================================================
Process: Pid = 0000001d, dirt
Owned Signals
-------------

     Signo   Sender     Addr    Owner Pool Req. Size Real Size
---------- -------- -------- -------- ---- --------- ---------
   8437472 0000001d 0000001d 0000001d    0        28        48

Hex Addr  00 01 02 03 04 05 06 07 08 09 0a 0b 0c 0d 0e 0f
--------  -- -- -- -- -- -- -- -- -- -- -- -- -- -- -- --
  807de8  00 80 be e0 00 81 35 90 00 00 29 85 00 00 27 10
  807df8  e0 fb 8f 60 e1 31 ad f8 80 00 00 05 72

-------------------------------------------------------------------------------
     Signo   Sender     Addr    Owner Pool Req. Size Real Size
---------- -------- -------- -------- ---- --------- ---------
        29 0000001d 0000001d 0000001d    4      1308      2000

Hex Addr  00 01 02 03 04 05 06 07 08 09 0a 0b 0c 0d 0e 0f
--------  -- -- -- -- -- -- -- -- -- -- -- -- -- -- -- --
e131adf8  00 00 00 1d 00 00 00 00 00 00 00 44 00 10 00 00
e131ae08  00 01 00 01 00 0a 00 01 00 00 00 00 00 00 00 00
e131ae18  00 00 00 00 00 00 00 00 00 00 00 00 00 00 00 00
e131ae28  00 00 00 00 00 00 00 00 00 00 00 00 00 00 00 00
e131ae38  00 00 00 00 00 00 00 00 00 00 00 00 00 00 00 00
e131ae48  00 00 00 00 00 00 00 00 00 00 00 00 00 00 00 00
e131ae58  00 00 00 00 00 00 00 00 00 00 00 00 00 00 00 00
e131ae68  00 00 00 00 00 00 00 00 00 00 00 00 00 00 00 00
e131ae78  00 00 00 00 00 00 00 00 00 00 00 00 00 00 00 00
e131ae88  00 00 00 00 00 00 00 00 00 00 00 00 00 00 00 00
e131ae98  00 00 00 00 00 00 00 00 00 00 00 00 00 00 00 00
e131aea8  00 00 00 00 00 00 00 00 00 00 00 00 00 00 00 00
e131aeb8  00 00 00 00 00 00 00 00 00 00 00 00 00 00 00 00
e131aec8  00 00 00 00 00 00 00 00 00 00 00 00 00 00 00 00
e131aed8  00 00 00 00 00 00 00 00 00 00 00 00 00 00 00 00
e131aee8  00 00 00 00 00 00 00 00 00 00 00 00 00 00 00 00
e131aef8  00 00 00 00 00 00 00 00 00 00 00 00 00 00 00 00
e131af08  00 00 00 00 00 00 00 00 00 00 00 00 00 00 00 00
e131af18  00 00 00 00 00 00 00 00 00 00 00 00 00 00 00 00
e131af28  00 00 00 00 00 00 00 00 00 00 00 00 00 00 00 00
e131af38  00 00 00 00 00 00 00 00 00 00 00 00 00 00 00 00
e131af48  00 00 00 00 00 00 00 00 00 00 00 00 00 00 00 00
e131af58  00 00 00 00 00 00 00 00 00 00 00 00 00 00 00 00
e131af68  00 00 00 00 00 00 00 00 00 00 00 00 00 00 00 00
e131af78  00 00 00 00 00 00 00 00 00 00 00 00 00 00 00 00
e131af88  00 00 00 00 00 00 00 00 00 00 00 00 00 00 00 00
e131af98  00 00 00 00 00 00 00 00 00 00 00 00 00 00 00 00
e131afa8  00 00 00 00 00 00 00 00 00 00 00 00 00 00 00 00
e131afb8  00 00 00 00 00 00 00 00 00 00 00 00 00 00 00 00
e131afc8  00 00 00 00 00 00 00 00 00 00 00 00 00 00 00 00
e131afd8  00 00 00 00 00 00 00 00 00 00 00 00 00 00 00 00
e131afe8  00 00 00 00 00 00 00 00 00 00 00 00 00 00 00 00
e131aff8  00 00 00 00 00 00 00 00 00 00 00 00 00 00 00 00
e131b008  00 00 00 00 00 00 00 00 00 00 00 00 00 00 00 00
e131b018  00 00 00 00 00 00 00 00 00 00 00 00 00 00 00 00
e131b028  00 00 00 00 00 00 00 00 00 00 00 00 00 00 00 00
e131b038  00 00 00 00 00 00 00 00 00 00 00 00 00 00 00 00
e131b048  00 00 00 00 00 00 00 00 00 00 00 00 00 00 00 00
e131b058  00 00 00 00 00 00 00 00 00 00 00 00 00 00 00 00
e131b068  00 00 00 00 00 00 00 00 00 00 00 00 00 00 00 00
e131b078  00 00 00 00 00 00 00 00 00 00 00 00 00 00 00 00
e131b088  00 00 00 00 00 00 00 00 00 00 00 00 00 00 00 00
e131b098  00 00 00 00 00 00 00 00 00 00 00 00 00 00 00 00
e131b0a8  00 00 00 00 00 00 00 00 00 00 00 00 00 00 00 00
e131b0b8  00 00 00 00 00 00 00 00 00 00 00 00 00 00 00 00
e131b0c8  00 00 00 00 00 00 00 00 00 00 00 00 00 00 00 00
e131b0d8  00 00 00 00 00 00 00 00 00 00 00 00 00 00 00 00
e131b0e8  00 00 00 00 00 00 00 00 00 00 00 00 00 00 00 00
e131b0f8  00 00 00 00 00 00 00 00 00 00 00 00 00 00 00 00
e131b108  00 00 00 00 00 00 00 00 00 00 00 00 00 00 00 00
e131b118  00 00 00 00 00 00 00 00 00 00 00 00 00 00 00 00
e131b128  00 00 00 00 00 00 00 00 00 00 00 00 00 00 00 00
e131b138  00 00 00 00 00 00 00 00 00 00 00 00 00 00 00 00
e131b148  00 00 00 00 00 00 00 00 00 00 00 00 00 00 00 00
e131b158  00 00 00 00 00 00 00 00 00 00 00 00 00 00 00 00
e131b168  00 00 00 00 00 00 00 00 00 00 00 00 00 00 00 00
e131b178  00 00 00 00 00 00 00 00 00 00 00 00 00 00 00 00
e131b188  00 00 00 00 00 00 00 00 00 00 00 00 00 00 00 00
e131b198  00 00 00 00 00 00 00 00 00 00 00 00 00 00 00 00
e131b1a8  00 00 00 00 00 00 00 00 00 00 00 00 00 00 00 00
e131b1b8  00 00 00 00 00 00 00 00 00 00 00 00 00 00 00 00
e131b1c8  00 00 00 00 00 00 00 00 00 00 00 00 00 00 00 00
e131b1d8  00 00 00 00 00 00 00 00 00 00 00 00 00 00 00 00
e131b1e8  00 00 00 00 00 00 00 00 00 00 00 00 00 00 00 00
e131b1f8  00 00 00 00 00 00 00 00 00 00 00 00 00 00 00 00
e131b208  00 00 00 00 00 00 00 00 00 00 00 00 00 00 00 00
e131b218  00 00 00 00 00 00 00 00 00 00 00 00 00 00 00 00
e131b228  00 00 00 00 00 00 00 00 00 00 00 00 00 00 00 00
e131b238  00 00 00 00 00 00 00 00 00 00 00 00 00 00 00 00
e131b248  00 00 00 00 00 00 00 00 00 00 00 00 00 00 00 00
e131b258  00 00 00 00 00 00 00 00 00 00 00 00 00 00 00 00
e131b268  00 00 00 00 00 00 00 00 00 00 00 00 00 00 00 00
e131b278  00 00 00 00 00 00 00 00 00 00 00 00 00 00 00 00
e131b288  00 00 00 00 00 00 00 00 00 00 00 00 00 00 00 00
e131b298  00 00 00 00 00 00 00 00 00 00 00 00 00 00 00 00
e131b2a8  00 00 00 00 00 00 00 00 00 00 00 00 00 00 00 00
e131b2b8  00 00 00 00 00 00 00 00 00 00 00 00 00 00 00 00
e131b2c8  00 00 00 00 00 00 00 00 00 00 00 00 00 00 00 00
e131b2d8  00 00 00 00 00 00 00 00 00 00 00 00 00 00 00 00
e131b2e8  00 00 00 00 00 00 00 00 00 00 00 00 00 00 00 00
e131b2f8  00 00 00 00 00 00 00 00 00 00 00 00 00 00 00 00
e131b308  00 00 00 00 00 00 00 00 00 00 00 00 72

-------------------------------------------------------------------------------

Signals in Signal Queues
------------------------

The process does not have any signals in its queue.

Summary
-------

Number of signal buffers: Owned = 2, Queue = 0, Total = 2

===============================================================================
Process: Pid = 0000001e, das
Owned Signals
-------------

     Signo   Sender     Addr    Owner Pool Req. Size Real Size
---------- -------- -------- -------- ---- --------- ---------
   8467728 0000001e 0000001e 0000001e    0        28        48

Hex Addr  00 01 02 03 04 05 06 07 08 09 0a 0b 0c 0d 0e 0f
--------  -- -- -- -- -- -- -- -- -- -- -- -- -- -- -- --
  813408  00 81 35 10 00 80 2e a8 00 00 0c cf 00 00 00 0a
  813418  e0 fb dc 00 00 00 00 00 80 00 00 06 72

-------------------------------------------------------------------------------

Signals in Signal Queues
------------------------

The process does not have any signals in its queue.

Summary
-------

Number of signal buffers: Owned = 1, Queue = 0, Total = 1

===============================================================================
Process: Pid = 0000001f, master
Owned Signals
-------------

     Signo   Sender     Addr    Owner Pool Req. Size Real Size
---------- -------- -------- -------- ---- --------- ---------
   8421976 0000001f 0000001f 0000001f    0        28        48

Hex Addr  00 01 02 03 04 05 06 07 08 09 0a 0b 0c 0d 0e 0f
--------  -- -- -- -- -- -- -- -- -- -- -- -- -- -- -- --
  813510  00 80 82 58 00 81 34 08 00 00 0c d0 00 00 00 0a
  813520  00 21 c5 3a 00 00 00 00 80 00 00 07 72

-------------------------------------------------------------------------------
     Signo   Sender     Addr    Owner Pool Req. Size Real Size
---------- -------- -------- -------- ---- --------- ---------
   2469068 0000001f 0000001f 0000001f    4      1280      2000

Hex Addr  00 01 02 03 04 05 06 07 08 09 0a 0b 0c 0d 0e 0f
--------  -- -- -- -- -- -- -- -- -- -- -- -- -- -- -- --
e131b890  00 25 ac cc 00 00 00 00 00 25 ac cc 00 00 00 00
e131b8a0  00 25 ac cc 00 00 00 00 00 25 ac cc 00 00 00 00
e131b8b0  00 25 ac cc 00 00 00 00 00 25 ac cc 00 00 00 00
e131b8c0  00 25 ac cc 00 00 00 00 00 25 ac cc 00 00 00 00
e131b8d0  00 25 ac cc 00 00 00 00 00 25 ac cc 00 00 00 00
e131b8e0  00 25 ac cc 00 00 00 00 00 25 ac cc 00 00 00 00
e131b8f0  00 25 ac cc 00 00 00 00 00 25 ac cc 00 00 00 00
e131b900  00 25 ac cc 00 00 00 00 00 25 ac cc 00 00 00 00
e131b910  00 25 ac cc 00 00 00 00 00 25 ac cc 00 00 00 00
e131b920  00 25 ac cc 00 00 00 00 00 25 ac cc 00 00 00 00
e131b930  00 25 ac cc 00 00 00 00 00 25 ac cc 00 00 00 00
e131b940  00 25 ac cc 00 00 00 00 00 25 ac cc 00 00 00 00
e131b950  00 25 ac cc 00 00 00 00 00 25 ac cc 00 00 00 00
e131b960  00 25 ac cc 00 00 00 00 00 25 ac cc 00 00 00 00
e131b970  00 25 ac cc 00 00 00 00 00 25 ac cc 00 00 00 00
e131b980  00 25 ac cc 00 00 00 00 00 25 ac cc 00 00 00 00
e131b990  00 25 ac cc 00 00 00 00 00 25 ac cc 00 00 00 00
e131b9a0  00 25 ac cc 00 00 00 00 00 25 ac cc 00 00 00 00
e131b9b0  00 25 ac cc 00 00 00 00 00 25 ac cc 00 00 00 00
e131b9c0  00 25 ac cc 00 00 00 00 00 25 ac cc 00 00 00 00
e131b9d0  00 25 ac cc 00 00 00 00 00 25 ac cc 00 00 00 00
e131b9e0  00 25 ac cc 00 00 00 00 00 25 ac cc 00 00 00 00
e131b9f0  00 25 ac cc 00 00 00 00 00 25 ac cc 00 00 00 00
e131ba00  00 25 ac cc 00 00 00 00 00 25 ac cc 00 00 00 00
e131ba10  00 25 ac cc 00 00 00 00 00 25 ac cc 00 00 00 00
e131ba20  00 25 ac cc 00 00 00 00 00 25 ac cc 00 00 00 00
e131ba30  00 25 ac cc 00 00 00 00 00 25 ac cc 00 00 00 00
e131ba40  00 25 ac cc 00 00 00 00 00 25 ac cc 00 00 00 00
e131ba50  00 25 ac cc 00 00 00 00 00 25 ac cc 00 00 00 00
e131ba60  00 25 ac cc 00 00 00 00 00 25 ac cc 00 00 00 00
e131ba70  00 25 ac cc 00 00 00 00 00 25 ac cc 00 00 00 00
e131ba80  00 25 ac cc 00 00 00 00 00 25 ac cc 00 00 00 00
e131ba90  00 25 ac cc 00 00 00 00 00 25 ac cc 00 00 00 00
e131baa0  00 25 ac cc 00 00 00 00 00 25 ac cc 00 00 00 00
e131bab0  00 25 ac cc 00 00 00 00 00 25 ac cc 00 00 00 00
e131bac0  00 25 ac cc 00 00 00 00 00 25 ac cc 00 00 00 00
e131bad0  00 25 ac cc 00 00 00 00 00 25 ac cc 00 00 00 00
e131bae0  00 25 ac cc 00 00 00 00 00 25 ac cc 00 00 00 00
e131baf0  00 25 ac cc 00 00 00 00 00 25 ac cc 00 00 00 00
e131bb00  00 25 ac cc 00 00 00 00 00 25 ac cc 00 00 00 00
e131bb10  00 25 ac cc 00 00 00 00 00 25 ac cc 00 00 00 00
e131bb20  00 25 ac cc 00 00 00 00 00 25 ac cc 00 00 00 00
e131bb30  00 25 ac cc 00 00 00 00 00 25 ac cc 00 00 00 00
e131bb40  00 25 ac cc 00 00 00 00 00 25 ac cc 00 00 00 00
e131bb50  00 25 ac cc 00 00 00 00 00 25 ac cc 00 00 00 00
e131bb60  00 25 ac cc 00 00 00 00 00 25 ac cc 00 00 00 00
e131bb70  00 25 ac cc 00 00 00 00 00 25 ac cc 00 00 00 00
e131bb80  00 25 ac cc 00 00 00 00 00 25 ac cc 00 00 00 00
e131bb90  00 25 ac cc 00 00 00 00 00 25 ac cc 00 00 00 00
e131bba0  00 25 ac cc 00 00 00 00 00 25 ac cc 00 00 00 00
e131bbb0  00 25 ac cc 00 00 00 00 00 25 ac cc 00 00 00 00
e131bbc0  00 25 ac cc 00 00 00 00 00 25 ac cc 00 00 00 00
e131bbd0  00 25 ac cc 00 00 00 00 00 25 ac cc 00 00 00 00
e131bbe0  00 25 ac cc 00 00 00 00 00 25 ac cc 00 00 00 00
e131bbf0  00 25 ac cc 00 00 00 00 00 25 ac cc 00 00 00 00
e131bc00  00 25 ac cc 00 00 00 00 00 25 ac cc 00 00 00 00
e131bc10  00 25 ac cc 00 00 00 00 00 25 ac cc 00 00 00 00
e131bc20  00 25 ac cc 00 00 00 00 00 25 ac cc 00 00 00 00
e131bc30  00 25 ac cc 00 00 00 00 00 25 ac cc 00 00 00 00
e131bc40  00 25 ac cc 00 00 00 00 00 25 ac cc 00 00 00 00
e131bc50  00 25 ac cc 00 00 00 00 00 25 ac cc 00 00 00 00
e131bc60  00 25 ac cc 00 00 00 00 00 25 ac cc 00 00 00 00
e131bc70  00 25 ac cc 00 00 00 00 00 25 ac cc 00 00 00 00
e131bc80  00 25 ac cc 00 00 00 00 00 25 ac cc 00 00 00 00
e131bc90  00 25 ac cc 00 00 00 00 00 25 ac cc 00 00 00 00
e131bca0  00 25 ac cc 00 00 00 00 00 25 ac cc 00 00 00 00
e131bcb0  00 25 ac cc 00 00 00 00 00 25 ac cc 00 00 00 00
e131bcc0  00 25 ac cc 00 00 00 00 00 25 ac cc 00 00 00 00
e131bcd0  00 25 ac cc 00 00 00 00 00 25 ac cc 00 00 00 00
e131bce0  00 25 ac cc 00 00 00 00 00 25 ac cc 00 00 00 00
e131bcf0  00 25 ac cc 00 00 00 00 00 25 ac cc 00 00 00 00
e131bd00  00 25 ac cc 00 00 00 00 00 25 ac cc 00 00 00 00
e131bd10  00 25 ac cc 00 00 00 00 00 25 ac cc 00 00 00 00
e131bd20  00 25 ac cc 00 00 00 00 00 25 ac cc 00 00 00 00
e131bd30  00 25 ac cc 00 00 00 00 00 25 ac cc 00 00 00 00
e131bd40  00 25 ac cc 00 00 00 00 00 25 ac cc 00 00 00 00
e131bd50  00 25 ac cc 00 00 00 00 00 25 ac cc 00 00 00 00
e131bd60  00 25 ac cc 00 00 00 00 00 25 ac cc 00 00 00 00
e131bd70  00 25 ac cc 00 00 00 00 00 25 ac cc 00 00 00 00
e131bd80  00 25 ac cc 00 00 00 00 00 25 ac cc 00 00 00 00
e131bd90  72

-------------------------------------------------------------------------------

Signals in Signal Queues
------------------------

The process does not have any signals in its queue.

Summary
-------

Number of signal buffers: Owned = 2, Queue = 0, Total = 2

===============================================================================
Process: Pid = 00000020, sgw
Owned Signals
-------------

     Signo   Sender     Addr    Owner Pool Req. Size Real Size
---------- -------- -------- -------- ---- --------- ---------
         0 00000020 00000020 00000020    4       208       512

Hex Addr  00 01 02 03 04 05 06 07 08 09 0a 0b 0c 0d 0e 0f
--------  -- -- -- -- -- -- -- -- -- -- -- -- -- -- -- --
e131c088  00 00 00 00 00 00 00 00 00 00 00 00 00 00 00 00
e131c098  00 00 00 00 00 00 00 00 00 00 00 00 00 00 00 00
e131c0a8  00 00 00 00 00 00 00 00 00 00 00 00 00 00 00 00
e131c0b8  00 00 00 00 00 00 00 00 00 00 00 00 00 00 00 00
e131c0c8  00 00 00 00 00 00 00 00 00 00 00 00 00 00 00 00
e131c0d8  00 00 00 00 00 00 00 00 00 00 00 00 00 00 00 00
e131c0e8  00 00 00 00 00 00 00 00 00 00 00 00 00 00 00 00
e131c0f8  00 00 00 00 00 00 00 00 00 00 00 00 00 00 00 00
e131c108  00 00 00 00 00 00 00 00 00 00 00 00 00 00 00 00
e131c118  00 00 00 00 00 00 00 00 00 00 00 00 00 00 00 00
e131c128  00 00 00 00 00 00 00 00 00 00 00 00 00 00 00 00
e131c138  00 00 00 00 00 00 00 00 00 00 00 00 00 00 00 00
e131c148  00 00 00 00 00 00 00 00 00 00 00 00 00 00 00 00
e131c158  72

-------------------------------------------------------------------------------

Signals in Signal Queues
------------------------

The process does not have any signals in its queue.

Summary
-------

Number of signal buffers: Owned = 1, Queue = 0, Total = 1

===============================================================================
Process: Pid = 00000021, dtt
Owned Signals
-------------

     Signo   Sender     Addr    Owner Pool Req. Size Real Size
---------- -------- -------- -------- ---- --------- ---------
         0 00000021 00000021 00000021    4        16       128

Hex Addr  00 01 02 03 04 05 06 07 08 09 0a 0b 0c 0d 0e 0f
--------  -- -- -- -- -- -- -- -- -- -- -- -- -- -- -- --
e131b5f0  00 00 00 00 00 00 00 00 00 00 00 21 00 00 00 00
e131b600  72

-------------------------------------------------------------------------------

Signals in Signal Queues
------------------------

The process does not have any signals in its queue.

Summary
-------

Number of signal buffers: Owned = 1, Queue = 0, Total = 1

===============================================================================
Process: Pid = 00000022, tcp_fwd
Owned Signals
-------------

The process does not own any signals.

Signals in Signal Queues
------------------------

The process does not have any signals in its queue.

Summary
-------

Number of signal buffers: Owned = 0, Queue = 0, Total = 0

===============================================================================
Process: Pid = 00000023, dus
Owned Signals
-------------

The process does not own any signals.

Signals in Signal Queues
------------------------

The process does not have any signals in its queue.

Summary
-------

Number of signal buffers: Owned = 0, Queue = 0, Total = 0


8. Saved Registers and Stack Content
====================================

===============================================================================
Process: Pid = 00000000, p_idle
Stack Content
-------------

Stack size = 2048 storage units

Hex Addr  00 01 02 03 04 05 06 07 08 09 0a 0b 0c 0d 0e 0f
--------  -- -- -- -- -- -- -- -- -- -- -- -- -- -- -- --
  8010d8  2a 42 42 42 42 42 42 42 42 42 42 42 42 42 42 42
  8010e8  42 42 42 42 42 42 42 42 42 42 42 42 42 42 42 42
  8010f8  42 42 42 42 42 42 42 42 42 42 42 42 42 42 42 42
  801108  42 42 42 42 42 42 42 42 42 42 42 42 42 42 42 42
  801118  42 42 42 42 42 42 42 42 42 42 42 42 42 42 42 42
  801128  42 42 42 42 42 42 42 42 42 42 42 42 42 42 42 42
  801138  42 42 42 42 42 42 42 42 42 42 42 42 42 42 42 42
  801148  42 42 42 42 42 42 42 42 42 42 42 42 42 42 42 42
  801158  42 42 42 42 42 42 42 42 42 42 42 42 42 42 42 42
  801168  42 42 42 42 42 42 42 42 42 42 42 42 42 42 42 42
  801178  42 42 42 42 42 42 42 42 42 42 42 42 42 42 42 42
  801188  42 42 42 42 42 42 42 42 42 42 42 42 42 42 42 42
  801198  42 42 42 42 42 42 42 42 42 42 42 42 42 42 42 42
  8011a8  42 42 42 42 42 42 42 42 42 42 42 42 42 42 42 42
  8011b8  42 42 42 42 42 42 42 42 42 42 42 42 42 42 42 42
  8011c8  42 42 42 42 42 42 42 42 42 42 42 42 42 42 42 42
  8011d8  42 42 42 42 42 42 42 42 42 42 42 42 42 42 42 42
  8011e8  42 42 42 42 42 42 42 42 42 42 42 42 42 42 42 42
  8011f8  42 42 42 42 42 42 42 42 42 42 42 42 42 42 42 42
  801208  42 42 42 42 42 42 42 42 42 42 42 42 42 42 42 42
  801218  42 42 42 42 42 42 42 42 42 42 42 42 42 42 42 42
  801228  42 42 42 42 42 42 42 42 42 42 42 42 42 42 42 42
  801238  42 42 42 42 42 42 42 42 42 42 42 42 42 42 42 42
  801248  42 42 42 42 42 42 42 42 42 42 42 42 42 42 42 42
  801258  42 42 42 42 42 42 42 42 42 42 42 42 42 42 42 42
  801268  42 42 42 42 42 42 42 42 42 42 42 42 42 42 42 42
  801278  42 42 42 42 42 42 42 42 42 42 42 42 42 42 42 42
  801288  42 42 42 42 42 42 42 42 42 42 42 42 42 42 42 42
  801298  42 42 42 42 42 42 42 42 42 42 42 42 42 42 42 42
  8012a8  42 42 42 42 42 42 42 42 42 42 42 42 42 42 42 42
  8012b8  42 42 42 42 42 42 42 42 42 42 42 42 42 42 42 42
  8012c8  42 42 42 42 42 42 42 42 42 42 42 42 42 42 42 42
  8012d8  42 42 42 42 42 42 42 42 42 42 42 42 42 42 42 42
  8012e8  42 42 42 42 42 42 42 42 42 42 42 42 42 42 42 42
  8012f8  42 42 42 42 42 42 42 42 42 42 42 42 42 42 42 42
  801308  42 42 42 42 42 42 42 42 42 42 42 42 42 42 42 42
  801318  42 42 42 42 42 42 42 42 42 42 42 42 42 42 42 42
  801328  42 42 42 42 42 42 42 42 42 42 42 42 42 42 42 42
  801338  42 42 42 42 42 42 42 42 42 42 42 42 42 42 42 42
  801348  42 42 42 42 42 42 42 42 42 42 42 42 42 42 42 42
  801358  42 42 42 42 42 42 42 42 42 42 42 42 42 42 42 42
  801368  42 42 42 42 42 42 42 42 42 42 42 42 42 42 42 42
  801378  42 42 42 42 42 42 42 42 42 42 42 42 42 42 42 42
  801388  42 42 42 42 42 42 42 42 42 42 42 42 42 42 42 42
  801398  42 42 42 42 42 42 42 42 42 42 42 42 42 42 42 42
  8013a8  42 42 42 42 42 42 42 42 42 42 42 42 42 42 42 42
  8013b8  42 42 42 42 42 42 42 42 42 42 42 42 42 42 42 42
  8013c8  42 42 42 42 42 42 42 42 42 42 42 42 42 42 42 42
  8013d8  42 42 42 42 42 42 42 42 42 42 42 42 42 42 42 42
  8013e8  42 42 42 42 42 42 42 42 42 42 42 42 42 42 42 42
  8013f8  42 42 42 42 42 42 42 42 42 42 42 42 42 42 42 42
  801408  42 42 42 42 42 42 42 42 42 42 42 42 42 42 42 42
  801418  00 00 00 0a 00 80 14 9c 00 80 14 b0 00 00 00 00
  801428  e1 0f 40 8c 00 80 14 4c 00 80 16 ad 42 42 42 42
  801438  00 80 14 b0 42 42 42 42 00 80 14 9c 00 00 00 00
  801448  00 00 00 00 00 80 14 b2 00 00 00 00 00 00 00 00
  801458  00 80 16 dc 42 42 42 42 e1 0f 46 38 00 00 00 00
  801468  e1 10 5c f0 00 00 00 25 00 80 18 08 00 80 04 88
  801478  e1 0f 38 a0 e1 0f 38 a0 00 80 16 e0 e1 0f 37 a0
  801488  e1 10 5c f0 00 00 00 25 00 80 16 dc 00 80 18 10
  801498  00 00 00 21 00 00 00 00 00 00 00 00 ff ff ff ff
  8014a8  00 00 00 16 00 00 00 00 30 00 20 20 20 20 20 20
  8014b8  20 20 20 20 20 20 20 20 20 20 20 20 20 20 20 20
  8014c8  20 20 20 20 20 20 20 20 20 20 20 20 20 20 20 20
  8014d8  20 20 20 20 20 20 20 20 20 20 20 20 20 20 20 20
  8014e8  20 20 20 20 00 80 18 68 00 00 00 1f 00 00 00 00
  8014f8  00 00 00 00 ff ff ff ff 00 20 20 20 20 20 20 20
  801508  20 20 20 20 20 20 20 20 20 20 20 20 20 20 20 20
  801518  20 20 20 20 20 20 20 20 20 20 20 20 20 20 20 20
  801528  20 20 20 20 20 20 20 20 20 20 20 20 20 20 20 20
  801538  20 20 20 20 20 20 20 20 20 20 20 20 20 20 20 20
  801548  20 20 20 20 20 20 20 20 20 20 20 20 20 20 20 20
  801558  20 20 20 20 20 20 20 20 20 20 20 20 20 20 20 20
  801568  20 20 20 20 20 20 20 20 20 20 20 20 20 20 20 20
  801578  20 20 20 20 20 20 20 20 20 20 20 20 20 20 20 20
  801588  20 20 20 20 20 20 20 20 20 20 20 20 20 20 20 20
  801598  20 20 20 20 20 20 20 20 20 20 20 20 20 20 20 20
  8015a8  20 20 20 20 20 20 20 20 20 20 20 20 20 20 20 20
  8015b8  20 20 20 20 20 20 20 20 20 20 20 20 20 20 20 20
  8015c8  20 20 20 20 20 20 20 20 20 20 20 20 20 20 20 20
  8015d8  20 20 20 20 20 20 20 20 20 20 20 20 20 20 20 20
  8015e8  20 20 20 20 20 20 20 20 20 20 20 20 20 20 20 20
  8015f8  20 20 20 20 20 20 20 20 20 20 20 20 20 20 20 20
  801608  20 20 20 20 20 20 20 20 20 20 20 20 20 20 20 20
  801618  20 20 20 20 20 20 20 20 20 20 20 20 20 20 20 20
  801628  20 20 20 20 20 20 20 20 20 20 20 20 20 20 20 20
  801638  20 20 20 20 20 20 20 20 20 20 20 20 20 20 20 20
  801648  20 20 20 20 20 20 20 20 20 20 20 20 20 20 20 20
  801658  20 20 20 20 20 20 20 20 20 20 20 20 20 20 20 20
  801668  20 20 20 20 20 20 20 20 20 20 20 20 20 20 20 20
  801678  20 20 20 20 20 20 20 20 20 20 20 20 20 20 20 20
  801688  20 20 20 20 20 20 20 20 20 20 20 20 20 20 20 20
  801698  20 20 20 20 20 20 20 20 20 20 20 20 20 20 20 20
  8016a8  20 20 20 20 30 00 20 20 20 20 20 20 20 20 20 20
  8016b8  00 00 00 00 20 20 20 20 00 80 04 70 00 80 04 68
  8016c8  00 20 d6 88 00 00 00 05 e1 0b 9a 0e 00 80 04 74
  8016d8  00 00 01 00 e1 10 5d 12 00 80 17 21 00 00 00 ff
  8016e8  e1 10 d4 78 e1 10 4e 7e 00 20 d6 88 00 00 00 05
  8016f8  e1 10 d1 c8 20 20 20 20 62 6f 61 72 64 5f 69 6e
  801708  69 74 32 3a 20 62 73 70 00 00 00 00 74 69 6d 65
  801718  00 80 04 70 00 80 04 68 00 20 d6 88 ef 6d 00 00
  801728  e1 0b 9a 0e 00 80 04 74 00 00 01 00 e1 19 f3 c6
  801738  00 80 17 77 00 00 00 ff ef 73 00 00 00 2b cd 90
  801748  00 20 d6 88 ef 6d 00 00 00 00 00 05 00 80 2b fc
  801758  53 54 41 52 54 55 50 3a 20 44 50 20 63 6f 6e 66
  801768  00 00 00 00 00 00 00 59 00 2b a5 98 00 80 04 74
  801778  00 80 10 64 00 81 16 d8 00 80 05 40 80 cd 00 02
  801788  00 85 12 8c 00 00 02 00 00 80 0f 00 10 00 02 02
  801798  00 00 00 00 07 00 00 1d e1 0e 7d 04 00 00 00 20
  8017a8  00 00 00 00 00 00 00 0f 00 00 00 00 00 00 00 00
  8017b8  00 00 00 00 00 80 2c dc 00 01 00 65 00 00 00 72
  8017c8  00 20 5e 80 00 00 00 70 00 80 79 20 00 00 00 7e
  8017d8  00 00 02 00 00 00 04 00 00 00 00 00 00 00 00 00
  8017e8  00 00 10 00 00 00 00 90 00 00 00 00 00 00 00 00
  8017f8  00 00 00 00 00 00 00 91 00 00 00 00 00 00 00 00
  801808  00 00 00 00 7f ff ff ff 47 0b d8 0c 00 80 04 66
  801818  00 00 00 20 00 00 00 00 00 00 00 00 e4 35 8e c0
  801828  00 00 00 01 00 00 00 00 00 00 00 00 64 69 61 67
  801838  00 00 00 00 00 00 00 00 00 00 00 5f 00 80 18 70
  801848  10 00 00 02 00 00 00 00 73 74 61 72 00 00 00 00
  801858  07 00 00 1d 00 80 05 48 00 00 00 00 00 00 00 00
  801868  10 00 02 03 00 00 00 00 00 00 00 00 00 00 00 00
  801878  e1 0e 7c 8e 00 00 00 00 00 00 00 00 00 00 00 00
  801888  80 cd 00 02 00 00 00 00 00 00 00 56 ff ff ff ff
  801898  80 cd 00 01 00 00 00 00 00 00 00 00 00 00 00 00
  8018a8  00 00 00 00 00 80 10 64 00 80 10 64 e1 19 e8 00
  8018b8  00 00 00 00 e1 19 e8 00 00 80 04 c8 00 80 10 64
  8018c8  00 80 10 c0 00 00 00 10 00 80 10 c0 42 42 42 42

===============================================================================
Process: Pid = 00000001, ose_rlnh
Saved Registers
---------------

Process swapped out inside kernel. (small context)
Only PC (inside the kernel) and stack pointer shown.

  PC: 0x002047ca          SP: 0x008020d0

Stack Content
-------------

Stack size = 2016 storage units

Hex Addr  00 01 02 03 04 05 06 07 08 09 0a 0b 0c 0d 0e 0f
--------  -- -- -- -- -- -- -- -- -- -- -- -- -- -- -- --
  8019e8  2a 42 42 42 42 42 42 42 42 42 42 42 42 42 42 42
  8019f8  42 42 42 42 42 42 42 42 42 42 42 42 42 42 42 42
  801a08  42 42 42 42 42 42 42 42 42 42 42 42 42 42 42 42
  801a18  42 42 42 42 42 42 42 42 42 42 42 42 42 42 42 42
  801a28  42 42 42 42 42 42 42 42 42 42 42 42 42 42 42 42
  801a38  42 42 42 42 42 42 42 42 42 42 42 42 42 42 42 42
  801a48  42 42 42 42 42 42 42 42 42 42 42 42 42 42 42 42
  801a58  42 42 42 42 42 42 42 42 42 42 42 42 42 42 42 42
  801a68  42 42 42 42 42 42 42 42 42 42 42 42 42 42 42 42
  801a78  42 42 42 42 42 42 42 42 42 42 42 42 42 42 42 42
  801a88  42 42 42 42 42 42 42 42 42 42 42 42 42 42 42 42
  801a98  42 42 42 42 42 42 42 42 42 42 42 42 42 42 42 42
  801aa8  42 42 42 42 42 42 42 42 42 42 42 42 42 42 42 42
  801ab8  42 42 42 42 42 42 42 42 42 42 42 42 42 42 42 42
  801ac8  42 42 42 42 42 42 42 42 42 42 42 42 42 42 42 42
  801ad8  42 42 42 42 42 42 42 42 42 42 42 42 42 42 42 42
  801ae8  42 42 42 42 42 42 42 42 42 42 42 42 42 42 42 42
  801af8  42 42 42 42 42 42 42 42 42 42 42 42 42 42 42 42
  801b08  42 42 42 42 42 42 42 42 42 42 42 42 42 42 42 42
  801b18  42 42 42 42 42 42 42 42 42 42 42 42 42 42 42 42
  801b28  42 42 42 42 42 42 42 42 42 42 42 42 42 42 42 42
  801b38  42 42 42 42 42 42 42 42 42 42 42 42 42 42 42 42
  801b48  42 42 42 42 42 42 42 42 42 42 42 42 42 42 42 42
  801b58  42 42 42 42 42 42 42 42 42 42 42 42 42 42 42 42
  801b68  42 42 42 42 42 42 42 42 42 42 42 42 42 42 42 42
  801b78  42 42 42 42 42 42 42 42 42 42 42 42 42 42 42 42
  801b88  42 42 42 42 42 42 42 42 42 42 42 42 42 42 42 42
  801b98  42 42 42 42 42 42 42 42 42 42 42 42 42 42 42 42
  801ba8  42 42 42 42 42 42 42 42 42 42 42 42 42 42 42 42
  801bb8  42 42 42 42 42 42 42 42 42 42 42 42 42 42 42 42
  801bc8  42 42 42 42 42 42 42 42 42 42 42 42 42 42 42 42
  801bd8  42 42 42 42 42 42 42 42 42 42 42 42 42 42 42 42
  801be8  42 42 42 42 42 42 42 42 42 42 42 42 42 42 42 42
  801bf8  42 42 42 42 42 42 42 42 42 42 42 42 42 42 42 42
  801c08  42 42 42 42 42 42 42 42 42 42 42 42 42 42 42 42
  801c18  42 42 42 42 42 42 42 42 42 42 42 42 42 42 42 42
  801c28  42 42 42 42 42 42 42 42 42 42 42 42 42 42 42 42
  801c38  42 42 42 42 42 42 42 42 42 42 42 42 42 42 42 42
  801c48  42 42 42 42 42 42 42 42 42 42 42 42 42 42 42 42
  801c58  42 42 42 42 42 42 42 42 42 42 42 42 42 42 42 42
  801c68  42 42 42 42 42 42 42 42 42 42 42 42 42 42 42 42
  801c78  42 42 42 42 42 42 42 42 42 42 42 42 42 42 42 42
  801c88  42 42 42 42 42 42 42 42 42 42 42 42 42 42 42 42
  801c98  42 42 42 42 42 42 42 42 42 42 42 42 42 42 42 42
  801ca8  42 42 42 42 42 42 42 42 42 42 42 42 42 42 42 42
  801cb8  42 42 42 42 42 42 42 42 42 42 42 42 42 42 42 42
  801cc8  42 42 42 42 42 42 42 42 42 42 42 42 42 42 42 42
  801cd8  42 42 42 42 42 42 42 42 42 42 42 42 42 42 42 42
  801ce8  42 42 42 42 42 42 42 42 42 42 42 42 42 42 42 42
  801cf8  42 42 42 42 42 42 42 42 42 42 42 42 42 42 42 42
  801d08  42 42 42 42 42 42 42 42 42 42 42 42 42 42 42 42
  801d18  42 42 42 42 42 42 42 42 42 42 42 42 42 42 42 42
  801d28  42 42 42 42 42 42 42 42 42 42 42 42 42 42 42 42
  801d38  42 42 42 42 42 42 42 42 42 42 42 42 42 42 42 42
  801d48  42 42 42 42 42 42 42 42 42 42 42 42 42 42 42 42
  801d58  42 42 42 42 42 42 42 42 42 42 42 42 42 42 42 42
  801d68  42 42 42 42 42 42 42 42 42 42 42 42 42 42 42 42
  801d78  42 42 42 42 42 42 42 42 42 42 42 42 42 42 42 42
  801d88  42 42 42 42 42 42 42 42 42 42 42 42 42 42 42 42
  801d98  42 42 42 42 42 42 42 42 42 42 42 42 42 42 42 42
  801da8  42 42 42 42 42 42 42 42 42 42 42 42 42 42 42 42
  801db8  42 42 42 42 42 42 42 42 42 42 42 42 42 42 42 42
  801dc8  42 42 42 42 42 42 42 42 42 42 42 42 42 42 42 42
  801dd8  42 42 42 42 42 42 42 42 42 42 42 42 42 42 42 42
  801de8  42 42 42 42 42 42 42 42 42 42 42 42 42 42 42 42
  801df8  42 42 42 42 42 42 42 42 42 42 42 42 42 42 42 42
  801e08  42 42 42 42 42 42 42 42 42 42 42 42 42 42 42 42
  801e18  42 42 42 42 42 42 42 42 42 42 42 42 42 42 42 42
  801e28  42 42 42 42 42 42 42 42 42 42 42 42 42 42 42 42
  801e38  42 42 42 42 42 42 42 42 42 42 42 42 42 42 42 42
  801e48  42 42 42 42 42 42 42 42 42 42 42 42 42 42 42 42
  801e58  42 42 42 42 42 42 42 42 42 42 42 42 42 42 42 42
  801e68  42 42 42 42 42 42 42 42 42 42 42 42 42 42 42 42
  801e78  42 42 42 42 42 42 42 42 42 42 42 42 42 42 42 42
  801e88  42 42 42 42 42 42 42 42 42 42 42 42 42 42 42 42
  801e98  42 42 42 42 42 42 42 42 42 42 42 42 42 42 42 42
  801ea8  42 42 42 42 42 42 42 42 42 42 42 42 42 42 42 42
  801eb8  42 42 42 42 42 42 42 42 42 42 42 42 42 42 42 42
  801ec8  42 42 42 42 42 42 42 42 42 42 42 42 42 42 42 42
  801ed8  42 42 42 42 42 42 42 42 42 42 42 42 42 42 42 42
  801ee8  42 42 42 42 42 42 42 42 42 42 42 42 42 42 42 42
  801ef8  42 42 42 42 42 42 42 42 42 42 42 42 42 42 42 42
  801f08  42 42 42 42 42 42 42 42 42 42 42 42 42 42 42 42
  801f18  42 42 42 42 42 42 42 42 42 42 42 42 42 42 42 42
  801f28  42 42 42 42 42 42 42 42 42 42 42 42 42 42 42 42
  801f38  42 42 42 42 42 42 42 42 42 42 42 42 42 42 42 42
  801f48  42 42 42 42 42 42 42 42 42 42 42 42 42 42 42 42
  801f58  42 42 42 42 42 42 42 42 42 42 42 42 42 42 42 42
  801f68  42 42 42 42 10 00 02 02 00 00 00 00 07 00 00 1d
  801f78  00 20 29 58 00 00 00 20 00 00 00 00 00 00 02 0f
  801f88  00 00 00 00 00 00 00 00 00 00 00 00 42 42 42 42
  801f98  e4 35 9e 48 00 00 00 00 00 20 c9 40 10 00 02 02
  801fa8  00 00 00 94 00 00 00 02 00 00 02 00 00 00 04 00
  801fb8  00 00 00 00 00 00 00 00 00 00 10 00 00 00 00 90
  801fc8  00 00 00 00 00 00 00 00 00 00 00 00 00 00 00 91
  801fd8  00 00 00 00 00 00 00 00 00 00 00 00 7f ff ff ff
  801fe8  47 0b d8 0c 80 00 00 00 00 00 00 20 00 00 00 00
  801ff8  00 84 2f 4c 00 00 00 00 00 00 00 01 f0 00 00 00
  802008  00 00 00 00 00 00 00 00 64 70 5f 6d 61 69 6e 00
  802018  00 80 7d fc e4 35 9f b8 00 00 00 00 00 80 04 a0
  802028  6d 70 5f 6d 00 00 00 00 00 00 00 72 00 00 02 2b
  802038  00 00 02 ea 00 00 00 05 00 00 00 07 10 00 02 02
  802048  00 00 00 00 07 00 00 1d 00 84 27 d4 10 00 02 02
  802058  00 00 00 00 07 00 00 1d 00 20 46 48 00 00 00 20
  802068  00 00 00 00 00 00 02 0f 00 00 00 00 00 00 00 00
  802078  00 00 00 00 00 83 9f 80 e4 35 69 98 00 00 00 00
  802088  00 20 45 80 10 00 02 02 00 00 00 94 00 00 00 04
  802098  00 00 02 00 00 00 04 00 00 00 00 00 00 00 00 00
  8020a8  00 00 10 00 00 00 00 90 00 00 00 00 00 00 00 00
  8020b8  00 00 00 00 00 00 00 91 00 00 00 00 00 00 00 00
  8020c8  00 00 00 00 7f ff ff ff 47 0b d8 0c 80 00 00 00
  8020d8  00 00 00 20 10 00 02 02 00 00 00 00 07 00 00 1d
  8020e8  00 20 47 ca 00 00 00 20 00 00 00 00 00 00 02 0f
  8020f8  00 00 00 00 00 00 00 00 00 00 00 00 00 00 00 05
  802108  e1 10 e5 18 00 00 00 00 e1 0e 85 fc 00 80 19 34
  802118  00 20 38 60 00 80 05 44 00 80 05 40 00 80 21 fc
  802128  00 00 06 04 00 00 00 04 00 80 0f 00 00 00 00 00
  802138  00 00 00 00 00 80 19 34 e4 35 a0 00 00 80 19 34
  802148  00 80 09 94 00 00 00 00 e4 35 a1 80 00 80 09 a8
  802158  00 80 09 a8 00 00 00 1c e4 35 c1 f8 ff ff ff ff
  802168  e4 35 a0 00 e4 35 c0 4c 00 00 06 02 00 00 00 00
  802178  00 00 00 00 e1 10 e4 d8 00 00 00 00 00 00 00 01
  802188  00 20 25 28 00 00 00 00 00 80 04 70 00 80 04 68
  802198  00 80 05 4a 00 80 04 88 00 80 04 e0 00 80 19 34
  8021a8  00 2b a5 98 00 80 04 74 00 80 19 34 00 80 19 34
  8021b8  00 80 19 d0 00 00 00 04 00 80 19 d0 42 42 42 42

===============================================================================
Process: Pid = 00000004, dp_main
Saved Registers
---------------

Process swapped out inside kernel. (small context)
Only PC (inside the kernel) and stack pointer shown.

  PC: 0x002047ca          SP: 0xe4354e50

Stack Content
-------------

Stack size = 4112 storage units

Hex Addr  00 01 02 03 04 05 06 07 08 09 0a 0b 0c 0d 0e 0f
--------  -- -- -- -- -- -- -- -- -- -- -- -- -- -- -- --
e4354078  2a 42 42 42 42 42 42 42 42 42 42 42 42 42 42 42
e4354088  42 42 42 42 42 42 42 42 42 42 42 42 42 42 42 42
e4354098  42 42 42 42 42 42 42 42 42 42 42 42 42 42 42 42
e43540a8  42 42 42 42 42 42 42 42 42 42 42 42 42 42 42 42
e43540b8  42 42 42 42 42 42 42 42 42 42 42 42 42 42 42 42
e43540c8  42 42 42 42 42 42 42 42 42 42 42 42 42 42 42 42
e43540d8  42 42 42 42 42 42 42 42 42 42 42 42 42 42 42 42
e43540e8  42 42 42 42 42 42 42 42 42 42 42 42 42 42 42 42
e43540f8  42 42 42 42 42 42 42 42 42 42 42 42 42 42 42 42
e4354108  42 42 42 42 42 42 42 42 42 42 42 42 42 42 42 42
e4354118  42 42 42 42 42 42 42 42 42 42 42 42 42 42 42 42
e4354128  42 42 42 42 42 42 42 42 42 42 42 42 42 42 42 42
e4354138  42 42 42 42 42 42 42 42 42 42 42 42 42 42 42 42
e4354148  42 42 42 42 42 42 42 42 42 42 42 42 42 42 42 42
e4354158  42 42 42 42 42 42 42 42 42 42 42 42 42 42 42 42
e4354168  42 42 42 42 42 42 42 42 42 42 42 42 42 42 42 42
e4354178  42 42 42 42 42 42 42 42 42 42 42 42 42 42 42 42
e4354188  42 42 42 42 42 42 42 42 42 42 42 42 42 42 42 42
e4354198  42 42 42 42 42 42 42 42 42 42 42 42 42 42 42 42
e43541a8  42 42 42 42 42 42 42 42 42 42 42 42 42 42 42 42
e43541b8  42 42 42 42 42 42 42 42 42 42 42 42 42 42 42 42
e43541c8  42 42 42 42 42 42 42 42 42 42 42 42 42 42 42 42
e43541d8  42 42 42 42 42 42 42 42 42 42 42 42 42 42 42 42
e43541e8  42 42 42 42 42 42 42 42 42 42 42 42 42 42 42 42
e43541f8  42 42 42 42 42 42 42 42 42 42 42 42 42 42 42 42
e4354208  42 42 42 42 42 42 42 42 42 42 42 42 42 42 42 42
e4354218  42 42 42 42 42 42 42 42 42 42 42 42 42 42 42 42
e4354228  42 42 42 42 42 42 42 42 42 42 42 42 42 42 42 42
e4354238  42 42 42 42 42 42 42 42 42 42 42 42 42 42 42 42
e4354248  42 42 42 42 42 42 42 42 42 42 42 42 42 42 42 42
e4354258  42 42 42 42 42 42 42 42 42 42 42 42 42 42 42 42
e4354268  42 42 42 42 42 42 42 42 42 42 42 42 42 42 42 42
e4354278  42 42 42 42 42 42 42 42 42 42 42 42 42 42 42 42
e4354288  42 42 42 42 42 42 42 42 42 42 42 42 42 42 42 42
e4354298  42 42 42 42 42 42 42 42 42 42 42 42 42 42 42 42
e43542a8  42 42 42 42 42 42 42 42 42 42 42 42 42 42 42 42
e43542b8  42 42 42 42 42 42 42 42 42 42 42 42 42 42 42 42
e43542c8  42 42 42 42 42 42 42 42 42 42 42 42 42 42 42 42
e43542d8  42 42 42 42 42 42 42 42 42 42 42 42 42 42 42 42
e43542e8  42 42 42 42 42 42 42 42 42 42 42 42 42 42 42 42
e43542f8  42 42 42 42 42 42 42 42 42 42 42 42 42 42 42 42
e4354308  42 42 42 42 42 42 42 42 42 42 42 42 42 42 42 42
e4354318  42 42 42 42 42 42 42 42 42 42 42 42 42 42 42 42
e4354328  42 42 42 42 42 42 42 42 42 42 42 42 42 42 42 42
e4354338  42 42 42 42 42 42 42 42 42 42 42 42 42 42 42 42
e4354348  42 42 42 42 42 42 42 42 42 42 42 42 42 42 42 42
e4354358  42 42 42 42 42 42 42 42 42 42 42 42 42 42 42 42
e4354368  42 42 42 42 42 42 42 42 42 42 42 42 42 42 42 42
e4354378  42 42 42 42 42 42 42 42 42 42 42 42 42 42 42 42
e4354388  42 42 42 42 42 42 42 42 42 42 42 42 42 42 42 42
e4354398  42 42 42 42 42 42 42 42 42 42 42 42 42 42 42 42
e43543a8  42 42 42 42 42 42 42 42 42 42 42 42 42 42 42 42
e43543b8  42 42 42 42 42 42 42 42 42 42 42 42 42 42 42 42
e43543c8  42 42 42 42 42 42 42 42 42 42 42 42 42 42 42 42
e43543d8  42 42 42 42 42 42 42 42 42 42 42 42 42 42 42 42
e43543e8  42 42 42 42 42 42 42 42 42 42 42 42 42 42 42 42
e43543f8  42 42 42 42 42 42 42 42 42 42 42 42 42 42 42 42
e4354408  42 42 42 42 42 42 42 42 42 42 42 42 42 42 42 42
e4354418  42 42 42 42 42 42 42 42 42 42 42 42 42 42 42 42
e4354428  42 42 42 42 42 42 42 42 42 42 42 42 42 42 42 42
e4354438  42 42 42 42 42 42 42 42 42 42 42 42 42 42 42 42
e4354448  42 42 42 42 42 42 42 42 42 42 42 42 42 42 42 42
e4354458  42 42 42 42 42 42 42 42 42 42 42 42 42 42 42 42
e4354468  42 42 42 42 42 42 42 42 42 42 42 42 42 42 42 42
e4354478  42 42 42 42 42 42 42 42 42 42 42 42 42 42 42 42
e4354488  42 42 42 42 42 42 42 42 42 42 42 42 42 42 42 42
e4354498  42 42 42 42 42 42 42 42 42 42 42 42 42 42 42 42
e43544a8  42 42 42 42 42 42 42 42 42 42 42 42 42 42 42 42
e43544b8  42 42 42 42 42 42 42 42 42 42 42 42 42 42 42 42
e43544c8  42 42 42 42 42 42 42 42 42 42 42 42 42 42 42 42
e43544d8  42 42 42 42 42 42 42 42 42 42 42 42 42 42 42 42
e43544e8  42 42 42 42 42 42 42 42 42 42 42 42 42 42 42 42
e43544f8  42 42 42 42 42 42 42 42 42 42 42 42 42 42 42 42
e4354508  42 42 42 42 42 42 42 42 42 42 42 42 42 42 42 42
e4354518  42 42 42 42 42 42 42 42 42 42 42 42 42 42 42 42
e4354528  42 42 42 42 42 42 42 42 42 42 42 42 42 42 42 42
e4354538  42 42 42 42 42 42 42 42 42 42 42 42 42 42 42 42
e4354548  42 42 42 42 42 42 42 42 42 42 42 42 42 42 42 42
e4354558  42 42 42 42 42 42 42 42 42 42 42 42 42 42 42 42
e4354568  42 42 42 42 42 42 42 42 42 42 42 42 42 42 42 42
e4354578  42 42 42 42 42 42 42 42 42 42 42 42 42 42 42 42
e4354588  42 42 42 42 42 42 42 42 42 42 42 42 42 42 42 42
e4354598  42 42 42 42 42 42 42 42 42 42 42 42 42 42 42 42
e43545a8  42 42 42 42 42 42 42 42 42 42 42 42 42 42 42 42
e43545b8  42 42 42 42 42 42 42 42 42 42 42 42 42 42 42 42
e43545c8  42 42 42 42 42 42 42 42 42 42 42 42 42 42 42 42
e43545d8  42 42 42 42 42 42 42 42 42 42 42 42 42 42 42 42
e43545e8  42 42 42 42 42 42 42 42 42 42 42 42 42 42 42 42
e43545f8  42 42 42 42 42 42 42 42 42 42 42 42 42 42 42 42
e4354608  42 42 42 42 42 42 42 42 42 42 42 42 42 42 42 42
e4354618  42 42 42 42 42 42 42 42 42 42 42 42 42 42 42 42
e4354628  42 42 42 42 42 42 42 42 42 42 42 42 42 42 42 42
e4354638  42 42 42 42 42 42 42 42 42 42 42 42 42 42 42 42
e4354648  42 42 42 42 42 42 42 42 42 42 42 42 42 42 42 42
e4354658  42 42 42 42 42 42 42 42 42 42 42 42 42 42 42 42
e4354668  42 42 42 42 42 42 42 42 42 42 42 42 42 42 42 42
e4354678  42 42 42 42 42 42 42 42 42 42 42 42 42 42 42 42
e4354688  42 42 42 42 42 42 42 42 42 42 42 42 42 42 42 42
e4354698  42 42 42 42 42 42 42 42 42 42 42 42 42 42 42 42
e43546a8  42 42 42 42 42 42 42 42 42 42 42 42 42 42 42 42
e43546b8  42 42 42 42 42 42 42 42 42 42 42 42 42 42 42 42
e43546c8  42 42 42 42 42 42 42 42 42 42 42 42 42 42 42 42
e43546d8  42 42 42 42 42 42 42 42 42 42 42 42 42 42 42 42
e43546e8  42 42 42 42 42 42 42 42 42 42 42 42 42 42 42 42
e43546f8  42 42 42 42 42 42 42 42 42 42 42 42 42 42 42 42
e4354708  42 42 42 42 42 42 42 42 42 42 42 42 42 42 42 42
e4354718  42 42 42 42 42 42 42 42 42 42 42 42 42 42 42 42
e4354728  42 42 42 42 42 42 42 42 42 42 42 42 42 42 42 42
e4354738  42 42 42 42 42 42 42 42 42 42 42 42 42 42 42 42
e4354748  42 42 42 42 42 42 42 42 42 42 42 42 42 42 42 42
e4354758  42 42 42 42 42 42 42 42 42 42 42 42 42 42 42 42
e4354768  42 42 42 42 42 42 42 42 42 42 42 42 42 42 42 42
e4354778  42 42 42 42 42 42 42 42 42 42 42 42 42 42 42 42
e4354788  42 42 42 42 42 42 42 42 42 42 42 42 42 42 42 42
e4354798  42 42 42 42 42 42 42 42 42 42 42 42 42 42 42 42
e43547a8  42 42 42 42 42 42 42 42 42 42 42 42 42 42 42 42
e43547b8  42 42 42 42 42 42 42 42 42 42 42 42 42 42 42 42
e43547c8  42 42 42 42 42 42 42 42 42 42 42 42 42 42 42 42
e43547d8  42 42 42 42 42 42 42 42 42 42 42 42 42 42 42 42
e43547e8  42 42 42 42 42 42 42 42 42 42 42 42 42 42 42 42
e43547f8  42 42 42 42 42 42 42 42 42 42 42 42 42 42 42 42
e4354808  42 42 42 42 42 42 42 42 42 42 42 42 42 42 42 42
e4354818  42 42 42 42 42 42 42 42 42 42 42 42 42 42 42 42
e4354828  42 42 42 42 42 42 42 42 42 42 42 42 42 42 42 42
e4354838  42 42 42 42 42 42 42 42 42 42 42 42 42 42 42 42
e4354848  42 42 42 42 42 42 42 42 42 42 42 42 42 42 42 42
e4354858  42 42 42 42 42 42 42 42 42 42 42 42 42 42 42 42
e4354868  42 42 42 42 42 42 42 42 42 42 42 42 42 42 42 42
e4354878  42 42 42 42 42 42 42 42 42 42 42 42 42 42 42 42
e4354888  42 42 42 42 42 42 42 42 42 42 42 42 42 42 42 42
e4354898  42 42 42 42 42 42 42 42 42 42 42 42 42 42 42 42
e43548a8  42 42 42 42 42 42 42 42 42 42 42 42 42 42 42 42
e43548b8  42 42 42 42 42 42 42 42 42 42 42 42 42 42 42 42
e43548c8  42 42 42 42 42 42 42 42 42 42 42 42 42 42 42 42
e43548d8  42 42 42 42 42 42 42 42 42 42 42 42 42 42 42 42
e43548e8  42 42 42 42 42 42 42 42 42 42 42 42 42 42 42 42
e43548f8  42 42 42 42 42 42 42 42 42 42 42 42 42 42 42 42
e4354908  42 42 42 42 42 42 42 42 42 42 42 42 42 42 42 42
e4354918  42 42 42 42 42 42 42 42 42 42 42 42 42 42 42 42
e4354928  42 42 42 42 10 00 02 02 00 00 00 00 07 00 00 1d
e4354938  e1 0f 47 a4 00 00 00 20 00 00 00 00 00 00 02 0d
e4354948  00 00 00 00 00 00 00 00 00 00 00 00 42 42 42 42
e4354958  00 00 00 58 00 00 00 08 00 00 00 78 00 00 00 70
e4354968  00 00 00 84 00 00 00 10 00 00 01 d4 00 00 01 f4
e4354978  00 00 00 00 00 00 00 00 00 00 10 00 00 00 00 90
e4354988  00 00 00 00 00 00 00 00 00 00 00 00 00 00 00 91
e4354998  00 00 00 00 00 00 00 00 00 00 00 00 7f ff ff ff
e43549a8  47 0b d8 0c 00 80 04 66 00 00 00 20 00 00 00 00
e43549b8  00 00 00 0a e4 35 4a 3c e4 35 4a 50 00 00 00 00
e43549c8  e1 0f 40 8c e4 35 49 ec e4 35 4c 4d 00 00 00 30
e43549d8  e4 35 4a 50 00 00 00 00 e4 35 4a 3c 00 00 00 00
e43549e8  00 00 00 00 e4 35 4a 52 00 00 00 00 00 00 00 00
e43549f8  e4 35 4c 7c 00 00 00 04 00 00 00 00 00 00 00 00
e4354a08  00 00 ac 10 00 00 00 25 e4 35 4c 7c e4 35 4c 80
e4354a18  e1 10 ac 10 00 00 00 25 00 00 00 00 e1 0f 37 60
e4354a28  e1 0f 36 a0 e1 0f 36 e0 00 01 40 0c e4 35 4c a8
e4354a38  00 00 00 14 00 00 00 00 00 00 00 00 ff ff ff ff
e4354a48  00 35 4c b4 e4 35 4c b8 30 00 20 20 20 20 20 20
e4354a58  20 20 20 20 20 20 20 20 20 20 20 20 20 20 20 20
e4354a68  20 20 20 20 20 20 20 20 20 20 20 20 20 20 20 20
e4354a78  20 20 20 20 20 20 20 20 20 20 20 20 20 20 20 20
e4354a88  20 20 20 20 20 20 20 20 20 20 20 20 20 20 20 20
e4354a98  20 20 20 20 20 20 20 20 20 20 20 20 20 20 20 20
e4354aa8  20 20 20 20 20 20 20 20 20 20 20 20 20 20 20 20
e4354ab8  20 20 20 20 20 20 20 20 20 20 20 20 20 20 20 20
e4354ac8  20 20 20 20 20 20 20 20 20 20 20 20 20 20 20 20
e4354ad8  20 20 20 20 20 20 20 20 20 20 20 20 20 20 20 20
e4354ae8  20 20 20 20 20 20 20 20 20 20 20 20 20 20 20 20
e4354af8  20 20 20 20 20 20 20 20 20 20 20 20 20 20 20 20
e4354b08  20 20 20 20 20 20 20 20 20 20 20 20 20 20 20 20
e4354b18  20 20 20 20 20 20 20 20 20 20 20 20 20 20 20 20
e4354b28  20 20 20 20 20 20 20 20 20 20 20 20 20 20 20 20
e4354b38  20 20 20 20 20 20 20 20 00 00 00 60 00 00 00 00
e4354b48  00 00 00 02 00 00 00 00 00 00 00 00 00 00 00 0f
e4354b58  e1 0f 72 c8 20 20 20 20 00 00 00 05 e1 0f 67 60
e4354b68  e4 35 4b a4 00 00 00 70 00 00 00 0a e4 35 4b f4
e4354b78  e4 35 4c 08 e4 35 4e f8 00 00 00 25 00 00 00 00
e4354b88  00 00 00 00 ff ff ff ff 00 35 4c 08 e4 35 4e 99
e4354b98  e4 35 4b f4 00 00 00 00 00 00 00 00 e4 35 4c 0a
e4354ba8  00 00 00 00 00 00 00 00 e4 35 4e 34 00 00 00 00
e4354bb8  e1 0f 46 38 00 00 00 00 e1 10 ab aa 00 00 00 25
e4354bc8  e4 35 4e 50 00 01 40 0c e1 0f 37 60 e1 0f 37 60
e4354bd8  e4 35 4e 38 e1 0f 36 e0 e1 10 ab aa 00 00 00 25
e4354be8  e4 35 4e 34 e4 35 4e 5c 00 00 00 09 00 00 00 00
e4354bf8  00 00 00 00 ff ff ff ff 00 00 00 00 00 00 00 00
e4354c08  31 00 20 20 20 20 20 20 20 20 20 20 20 20 20 20
e4354c18  20 20 20 20 20 20 20 20 20 20 20 20 20 20 20 20
e4354c28  20 20 20 20 20 20 20 20 20 20 20 20 20 20 20 20
e4354c38  20 20 20 20 e4 35 4e f8 00 00 00 1b 00 00 00 00
e4354c48  00 00 00 00 ff ff ff ff 00 00 00 04 00 00 00 00
e4354c58  00 00 00 00 00 00 00 05 e1 0f 73 b8 20 20 20 20
e4354c68  00 00 00 01 e1 0f 67 60 00 00 00 34 00 00 00 70
e4354c78  e1 0f 70 54 e4 35 4c a0 e1 0f 67 12 00 84 e4 54
e4354c88  00 00 00 01 e1 0f 67 40 00 2b cf f0 e1 0f 67 40
e4354c98  e1 0f 67 40 e4 35 4e 81 e4 35 4e 60 e1 10 ab b2
e4354ca8  00 00 00 09 00 00 00 00 ff ff ff ff 00 00 00 00
e4354cb8  00 00 00 00 00 00 00 00 00 00 00 00 00 00 00 00
e4354cc8  00 00 00 00 00 00 00 00 00 00 00 00 00 00 00 00
e4354cd8  00 00 00 00 00 00 00 00 00 00 00 00 00 00 00 00
e4354ce8  00 00 00 00 00 00 00 00 00 00 00 00 00 00 00 00
e4354cf8  00 00 00 00 00 00 00 00 00 00 00 00 00 00 00 00
e4354d08  00 00 00 00 00 00 00 00 00 00 00 00 00 00 00 00
e4354d18  00 00 00 00 20 20 20 20 34 30 30 33 00 20 20 20
e4354d28  20 20 20 20 20 20 20 20 20 20 20 20 20 20 20 20
e4354d38  20 20 20 20 20 20 20 20 20 20 20 20 20 20 20 20
e4354d48  20 20 20 20 20 20 20 20 20 20 20 20 20 20 20 20
e4354d58  20 20 20 20 20 20 20 20 20 20 20 20 10 00 02 02
e4354d68  00 00 00 00 07 00 00 1d 00 20 38 7a 00 00 00 20
e4354d78  00 00 00 00 00 00 02 0f 00 00 00 00 00 00 00 00
e4354d88  00 00 00 00 20 20 20 20 00 00 0e 00 10 00 02 02
e4354d98  00 00 00 00 07 00 00 1d 00 00 00 00 10 00 02 02
e4354da8  00 01 40 1b e4 35 69 98 00 01 40 1c 00 00 00 00
e4354db8  00 84 27 d4 00 80 7b f0 00 20 73 c4 e1 10 3e 50
e4354dc8  00 20 97 16 00 80 0b 60 00 20 a4 c4 00 80 c9 a4
e4354dd8  00 80 7b f0 00 80 0b 60 e4 35 9e a0 00 80 05 44
e4354de8  00 80 45 30 00 80 2f 18 20 01 40 12 00 00 00 0c
e4354df8  e1 0f 0c 44 e4 35 9e a0 00 00 00 05 00 80 5f a0
e4354e08  00 80 7b 80 0a 00 21 fc 00 00 00 0c 00 80 46 70
e4354e18  e1 0e d7 58 00 00 00 32 00 00 00 00 00 00 00 14
e4354e28  00 00 00 05 00 00 00 01 00 00 00 0c 00 00 00 00
e4354e38  00 80 04 6e 00 80 04 7c 00 00 00 00 00 00 00 01
e4354e48  00 00 7f ff 00 00 00 01 00 00 00 00 10 00 02 02
e4354e58  e1 0e 92 7c 10 00 02 02 00 00 00 00 07 00 00 1d
e4354e68  00 20 47 ca 00 00 00 20 00 00 00 00 00 00 02 0f
e4354e78  00 00 00 00 00 00 00 00 00 00 00 00 00 00 00 1a
e4354e88  e4 35 4f 20 00 00 00 00 e1 0a d2 04 00 80 2c dc
e4354e98  00 20 38 60 00 80 05 44 00 80 05 40 00 80 da 6c
e4354ea8  00 01 00 68 00 00 00 04 00 80 0f 00 00 80 84 7c
e4354eb8  00 00 00 00 00 80 2c dc 00 01 40 1c 00 80 2c dc
e4354ec8  00 84 e4 54 00 00 00 04 00 01 40 0c e4 35 9f 28
e4354ed8  00 84 e1 94 e4 35 69 98 00 01 40 1b e4 35 69 98
e4354ee8  00 01 40 1c 00 00 00 00 00 84 e5 18 e1 10 3e 51
e4354ef8  00 10 00 00 42 42 42 42 42 42 42 42 e4 35 50 2a
e4354f08  42 42 42 42 00 00 00 00 00 00 00 00 42 42 42 42
e4354f18  00 00 00 00 42 42 42 42 00 00 00 00 42 42 42 42
e4354f28  65 74 68 30 5f 76 6c 61 6e 5f 6c 69 6e 6b 30 2f
e4354f38  64 6d 70 5f 6d 61 69 6e 00 00 00 00 00 00 00 00
e4354f48  00 00 00 00 00 00 00 00 00 00 00 00 00 00 00 00
e4354f58  00 00 00 00 00 00 00 00 00 00 00 00 00 00 00 00
e4354f68  00 00 00 00 00 00 00 00 00 00 00 00 00 00 00 00
e4354f78  00 00 00 00 00 00 00 00 00 00 00 00 00 00 00 00
e4354f88  00 00 00 00 00 00 00 00 00 00 00 00 00 00 00 00
e4354f98  00 00 00 00 00 00 00 00 00 00 00 00 00 00 00 00
e4354fa8  00 00 00 00 00 00 00 00 00 00 00 00 00 00 00 00
e4354fb8  00 00 00 00 00 00 00 00 00 00 00 00 00 00 00 00
e4354fc8  00 00 00 00 00 00 00 00 00 00 00 00 00 00 00 00
e4354fd8  00 00 00 00 00 00 00 00 00 00 00 00 00 00 00 00
e4354fe8  00 00 00 00 00 00 00 00 00 00 00 00 00 00 00 00
e4354ff8  00 00 00 00 00 00 00 00 00 00 00 00 00 00 00 00
e4355008  00 00 00 00 00 00 00 00 00 00 00 00 00 00 00 00
e4355018  00 00 00 00 00 00 00 00 00 00 00 00 00 00 00 00
e4355028  31 36 00 42 10 00 02 03 00 00 00 00 07 00 00 1d
e4355038  e4 35 69 d0 00 01 40 1e 00 00 00 00 00 00 00 01
e4355048  00 20 25 28 00 00 00 00 00 80 04 90 00 80 2c dc
e4355058  00 80 05 4a 00 80 04 88 00 80 17 f0 00 80 2c dc
e4355068  e1 0f 23 08 00 80 04 74 00 80 2c dc 00 80 2c dc
e4355078  e4 35 40 60 00 00 00 04 e4 35 40 60 42 42 42 42

===============================================================================
Process: Pid = 00000005, ose_sysd
Saved Registers
---------------

Process swapped out inside kernel. (small context)
Only PC (inside the kernel) and stack pointer shown.

  PC: 0x002047ca          SP: 0x008029d0

Stack Content
-------------

Stack size = 2016 storage units

Hex Addr  00 01 02 03 04 05 06 07 08 09 0a 0b 0c 0d 0e 0f
--------  -- -- -- -- -- -- -- -- -- -- -- -- -- -- -- --
  8022b0  2a 42 42 42 42 42 42 42 42 42 42 42 42 42 42 42
  8022c0  42 42 42 42 42 42 42 42 42 42 42 42 42 42 42 42
  8022d0  42 42 42 42 42 42 42 42 42 42 42 42 42 42 42 42
  8022e0  42 42 42 42 42 42 42 42 42 42 42 42 42 42 42 42
  8022f0  42 42 42 42 42 42 42 42 42 42 42 42 42 42 42 42
  802300  42 42 42 42 42 42 42 42 42 42 42 42 42 42 42 42
  802310  42 42 42 42 42 42 42 42 42 42 42 42 42 42 42 42
  802320  42 42 42 42 42 42 42 42 42 42 42 42 42 42 42 42
  802330  42 42 42 42 42 42 42 42 42 42 42 42 42 42 42 42
  802340  42 42 42 42 42 42 42 42 42 42 42 42 42 42 42 42
  802350  42 42 42 42 42 42 42 42 42 42 42 42 42 42 42 42
  802360  42 42 42 42 42 42 42 42 42 42 42 42 42 42 42 42
  802370  42 42 42 42 42 42 42 42 42 42 42 42 42 42 42 42
  802380  42 42 42 42 42 42 42 42 42 42 42 42 42 42 42 42
  802390  42 42 42 42 42 42 42 42 42 42 42 42 42 42 42 42
  8023a0  42 42 42 42 42 42 42 42 42 42 42 42 42 42 42 42
  8023b0  42 42 42 42 42 42 42 42 42 42 42 42 42 42 42 42
  8023c0  42 42 42 42 42 42 42 42 42 42 42 42 42 42 42 42
  8023d0  42 42 42 42 42 42 42 42 42 42 42 42 42 42 42 42
  8023e0  42 42 42 42 42 42 42 42 42 42 42 42 42 42 42 42
  8023f0  42 42 42 42 42 42 42 42 42 42 42 42 42 42 42 42
  802400  42 42 42 42 42 42 42 42 42 42 42 42 42 42 42 42
  802410  42 42 42 42 42 42 42 42 42 42 42 42 42 42 42 42
  802420  42 42 42 42 42 42 42 42 42 42 42 42 42 42 42 42
  802430  42 42 42 42 42 42 42 42 42 42 42 42 42 42 42 42
  802440  42 42 42 42 42 42 42 42 42 42 42 42 42 42 42 42
  802450  42 42 42 42 42 42 42 42 42 42 42 42 42 42 42 42
  802460  42 42 42 42 42 42 42 42 42 42 42 42 42 42 42 42
  802470  42 42 42 42 42 42 42 42 42 42 42 42 42 42 42 42
  802480  42 42 42 42 42 42 42 42 42 42 42 42 42 42 42 42
  802490  42 42 42 42 42 42 42 42 42 42 42 42 42 42 42 42
  8024a0  42 42 42 42 42 42 42 42 42 42 42 42 42 42 42 42
  8024b0  42 42 42 42 42 42 42 42 42 42 42 42 42 42 42 42
  8024c0  42 42 42 42 42 42 42 42 42 42 42 42 42 42 42 42
  8024d0  42 42 42 42 42 42 42 42 42 42 42 42 42 42 42 42
  8024e0  42 42 42 42 42 42 42 42 42 42 42 42 42 42 42 42
  8024f0  42 42 42 42 42 42 42 42 42 42 42 42 42 42 42 42
  802500  42 42 42 42 42 42 42 42 42 42 42 42 42 42 42 42
  802510  42 42 42 42 42 42 42 42 42 42 42 42 42 42 42 42
  802520  42 42 42 42 42 42 42 42 42 42 42 42 42 42 42 42
  802530  42 42 42 42 42 42 42 42 42 42 42 42 42 42 42 42
  802540  42 42 42 42 42 42 42 42 42 42 42 42 42 42 42 42
  802550  42 42 42 42 42 42 42 42 42 42 42 42 42 42 42 42
  802560  42 42 42 42 42 42 42 42 42 42 42 42 42 42 42 42
  802570  42 42 42 42 42 42 42 42 42 42 42 42 42 42 42 42
  802580  42 42 42 42 42 42 42 42 42 42 42 42 42 42 42 42
  802590  42 42 42 42 42 42 42 42 42 42 42 42 42 42 42 42
  8025a0  42 42 42 42 42 42 42 42 42 42 42 42 42 42 42 42
  8025b0  42 42 42 42 42 42 42 42 42 42 42 42 42 42 42 42
  8025c0  42 42 42 42 42 42 42 42 42 42 42 42 42 42 42 42
  8025d0  42 42 42 42 42 42 42 42 42 42 42 42 42 42 42 42
  8025e0  42 42 42 42 42 42 42 42 42 42 42 42 42 42 42 42
  8025f0  42 42 42 42 42 42 42 42 42 42 42 42 42 42 42 42
  802600  42 42 42 42 42 42 42 42 42 42 42 42 42 42 42 42
  802610  42 42 42 42 42 42 42 42 42 42 42 42 42 42 42 42
  802620  42 42 42 42 42 42 42 42 42 42 42 42 42 42 42 42
  802630  42 42 42 42 42 42 42 42 42 42 42 42 42 42 42 42
  802640  42 42 42 42 42 42 42 42 42 42 42 42 42 42 42 42
  802650  42 42 42 42 42 42 42 42 42 42 42 42 42 42 42 42
  802660  42 42 42 42 42 42 42 42 42 42 42 42 42 42 42 42
  802670  42 42 42 42 42 42 42 42 42 42 42 42 42 42 42 42
  802680  42 42 42 42 42 42 42 42 42 42 42 42 42 42 42 42
  802690  42 42 42 42 42 42 42 42 42 42 42 42 42 42 42 42
  8026a0  42 42 42 42 42 42 42 42 42 42 42 42 42 42 42 42
  8026b0  42 42 42 42 42 42 42 42 42 42 42 42 42 42 42 42
  8026c0  42 42 42 42 42 42 42 42 42 42 42 42 42 42 42 42
  8026d0  42 42 42 42 42 42 42 42 42 42 42 42 42 42 42 42
  8026e0  42 42 42 42 42 42 42 42 42 42 42 42 42 42 42 42
  8026f0  42 42 42 42 42 42 42 42 42 42 42 42 42 42 42 42
  802700  42 42 42 42 42 42 42 42 42 42 42 42 42 42 42 42
  802710  42 42 42 42 42 42 42 42 42 42 42 42 42 42 42 42
  802720  42 42 42 42 42 42 42 42 42 42 42 42 42 42 42 42
  802730  42 42 42 42 42 42 42 42 42 42 42 42 42 42 42 42
  802740  42 42 42 42 42 42 42 42 42 42 42 42 42 42 42 42
  802750  42 42 42 42 42 42 42 42 42 42 42 42 42 42 42 42
  802760  42 42 42 42 42 42 42 42 42 42 42 42 42 42 42 42
  802770  42 42 42 42 42 42 42 42 42 42 42 42 42 42 42 42
  802780  42 42 42 42 42 42 42 42 42 42 42 42 42 42 42 42
  802790  42 42 42 42 42 42 42 42 42 42 42 42 42 42 42 42
  8027a0  42 42 42 42 42 42 42 42 42 42 42 42 42 42 42 42
  8027b0  42 42 42 42 42 42 42 42 42 42 42 42 42 42 42 42
  8027c0  42 42 42 42 42 42 42 42 42 42 42 42 42 42 42 42
  8027d0  42 42 42 42 42 42 42 42 42 42 42 42 42 42 42 42
  8027e0  42 42 42 42 42 42 42 42 42 42 42 42 42 42 42 42
  8027f0  42 42 42 42 42 42 42 42 42 42 42 42 42 42 42 42
  802800  42 42 42 42 42 42 42 42 42 42 42 42 42 42 42 42
  802810  42 42 42 42 42 42 42 42 42 42 42 42 42 42 42 42
  802820  42 42 42 42 42 42 42 42 42 42 42 42 42 42 42 42
  802830  42 42 42 42 42 42 42 42 42 42 42 42 42 42 42 42
  802840  42 42 42 42 42 42 42 42 42 42 42 42 42 42 42 42
  802850  42 42 42 42 42 42 42 42 42 42 42 42 42 42 42 42
  802860  42 42 42 42 42 42 42 42 42 42 42 42 42 42 42 42
  802870  42 42 42 42 42 42 42 42 42 42 42 42 42 42 42 42
  802880  42 42 42 42 42 42 42 42 42 42 42 42 42 42 42 42
  802890  42 42 42 42 42 42 42 42 42 42 42 42 42 42 42 42
  8028a0  42 42 42 42 42 42 42 42 42 42 42 42 42 42 42 42
  8028b0  42 42 42 42 42 42 42 42 42 42 42 42 42 42 42 42
  8028c0  42 42 42 42 42 42 42 42 42 42 42 42 42 42 42 42
  8028d0  42 42 42 42 42 42 42 42 42 42 42 42 42 42 42 42
  8028e0  42 42 42 42 42 42 42 42 42 42 42 42 42 42 42 42
  8028f0  42 42 42 42 42 42 42 42 42 42 42 42 42 42 42 42
  802900  42 42 42 42 42 42 42 42 42 42 42 42 10 00 02 02
  802910  00 00 00 00 07 00 00 1d 00 20 1c 0c 00 00 00 20
  802920  00 00 00 00 00 00 02 0f 00 00 00 00 00 00 00 00
  802930  00 00 00 00 10 00 02 02 e4 35 a1 80 00 00 00 02
  802940  e1 0f 32 e0 10 00 02 02 00 00 00 94 00 00 00 13
  802950  00 00 02 00 00 00 04 00 00 00 00 00 00 00 00 00
  802960  00 00 10 00 00 00 00 90 00 00 00 00 00 00 00 00
  802970  00 00 00 00 00 00 00 91 00 00 00 00 e1 0e 2e 60
  802980  00 00 00 3c 7f ff ff ff 00 00 00 00 80 00 00 00
  802990  00 00 00 20 00 00 00 00 00 84 2f 4c 00 00 00 00
  8029a0  00 00 02 0f 10 00 02 02 00 00 00 00 07 00 00 1d
  8029b0  00 20 47 ca 00 00 00 20 00 00 00 00 00 00 02 0f
  8029c0  00 00 00 00 00 00 00 00 00 00 00 00 00 00 00 01
  8029d0  00 80 04 70 00 80 04 68 00 2b a5 98 10 00 02 02
  8029e0  00 00 00 00 07 00 00 1d 00 20 47 ca 00 00 00 20
  8029f0  00 00 00 00 00 00 02 0f 00 00 00 00 00 00 00 00
  802a00  00 00 00 00 00 00 00 00 00 2b cc 98 00 00 00 00
  802a10  00 20 18 40 00 80 21 fc 00 20 38 60 00 80 05 44
  802a20  00 80 05 40 00 80 10 64 00 80 05 4a 00 00 00 04
  802a30  00 80 0f 00 00 80 04 68 00 00 00 00 00 80 21 fc
  802a40  00 80 04 f8 00 80 21 fc 00 80 04 74 00 00 00 1c
  802a50  00 80 04 88 00 00 00 00 00 80 22 98 00 2b cc 98
  802a60  00 80 04 70 00 80 04 68 00 80 04 f8 00 80 21 fc
  802a70  00 2b a5 98 00 80 fd e8 00 80 04 f8 00 80 21 fc
  802a80  00 80 22 98 00 00 00 04 00 80 22 98 42 42 42 42

===============================================================================
Process: Pid = 00000006, dp_text
Saved Registers
---------------

Process swapped out inside kernel. (small context)
Only PC (inside the kernel) and stack pointer shown.

  PC: 0x002047ca          SP: 0xe4355818

Stack Content
-------------

Stack size = 2064 storage units

Hex Addr  00 01 02 03 04 05 06 07 08 09 0a 0b 0c 0d 0e 0f
--------  -- -- -- -- -- -- -- -- -- -- -- -- -- -- -- --
e4355130  2a 42 42 42 42 42 42 42 42 42 42 42 42 42 42 42
e4355140  42 42 42 42 42 42 42 42 42 42 42 42 42 42 42 42
e4355150  42 42 42 42 42 42 42 42 42 42 42 42 42 42 42 42
e4355160  42 42 42 42 42 42 42 42 42 42 42 42 42 42 42 42
e4355170  42 42 42 42 42 42 42 42 42 42 42 42 42 42 42 42
e4355180  42 42 42 42 42 42 42 42 42 42 42 42 42 42 42 42
e4355190  42 42 42 42 42 42 42 42 42 42 42 42 42 42 42 42
e43551a0  42 42 42 42 42 42 42 42 42 42 42 42 42 42 42 42
e43551b0  42 42 42 42 42 42 42 42 42 42 42 42 42 42 42 42
e43551c0  42 42 42 42 42 42 42 42 42 42 42 42 42 42 42 42
e43551d0  42 42 42 42 42 42 42 42 42 42 42 42 42 42 42 42
e43551e0  42 42 42 42 42 42 42 42 42 42 42 42 42 42 42 42
e43551f0  42 42 42 42 42 42 42 42 42 42 42 42 42 42 42 42
e4355200  42 42 42 42 42 42 42 42 42 42 42 42 42 42 42 42
e4355210  42 42 42 42 42 42 42 42 42 42 42 42 42 42 42 42
e4355220  42 42 42 42 42 42 42 42 42 42 42 42 42 42 42 42
e4355230  42 42 42 42 42 42 42 42 42 42 42 42 42 42 42 42
e4355240  42 42 42 42 42 42 42 42 42 42 42 42 42 42 42 42
e4355250  42 42 42 42 42 42 42 42 42 42 42 42 42 42 42 42
e4355260  42 42 42 42 42 42 42 42 42 42 42 42 42 42 42 42
e4355270  42 42 42 42 42 42 42 42 42 42 42 42 42 42 42 42
e4355280  42 42 42 42 42 42 42 42 42 42 42 42 42 42 42 42
e4355290  42 42 42 42 42 42 42 42 42 42 42 42 42 42 42 42
e43552a0  42 42 42 42 42 42 42 42 42 42 42 42 42 42 42 42
e43552b0  42 42 42 42 42 42 42 42 42 42 42 42 42 42 42 42
e43552c0  42 42 42 42 42 42 42 42 42 42 42 42 42 42 42 42
e43552d0  42 42 42 42 42 42 42 42 42 42 42 42 42 42 42 42
e43552e0  42 42 42 42 42 42 42 42 42 42 42 42 42 42 42 42
e43552f0  42 42 42 42 42 42 42 42 42 42 42 42 42 42 42 42
e4355300  42 42 42 42 42 42 42 42 42 42 42 42 42 42 42 42
e4355310  42 42 42 42 42 42 42 42 42 42 42 42 42 42 42 42
e4355320  42 42 42 42 42 42 42 42 42 42 42 42 42 42 42 42
e4355330  42 42 42 42 42 42 42 42 42 42 42 42 42 42 42 42
e4355340  42 42 42 42 42 42 42 42 42 42 42 42 42 42 42 42
e4355350  42 42 42 42 42 42 42 42 42 42 42 42 42 42 42 42
e4355360  42 42 42 42 42 42 42 42 42 42 42 42 42 42 42 42
e4355370  42 42 42 42 42 42 42 42 42 42 42 42 42 42 42 42
e4355380  42 42 42 42 42 42 42 42 42 42 42 42 42 42 42 42
e4355390  42 42 42 42 42 42 42 42 42 42 42 42 42 42 42 42
e43553a0  42 42 42 42 42 42 42 42 42 42 42 42 42 42 42 42
e43553b0  42 42 42 42 42 42 42 42 42 42 42 42 42 42 42 42
e43553c0  42 42 42 42 42 42 42 42 42 42 42 42 42 42 42 42
e43553d0  42 42 42 42 42 42 42 42 42 42 42 42 42 42 42 42
e43553e0  42 42 42 42 42 42 42 42 42 42 42 42 42 42 42 42
e43553f0  42 42 42 42 42 42 42 42 42 42 42 42 42 42 42 42
e4355400  42 42 42 42 42 42 42 42 42 42 42 42 42 42 42 42
e4355410  42 42 42 42 42 42 42 42 42 42 42 42 42 42 42 42
e4355420  42 42 42 42 42 42 42 42 42 42 42 42 42 42 42 42
e4355430  42 42 42 42 42 42 42 42 42 42 42 42 42 42 42 42
e4355440  42 42 42 42 42 42 42 42 42 42 42 42 42 42 42 42
e4355450  42 42 42 42 42 42 42 42 42 42 42 42 42 42 42 42
e4355460  42 42 42 42 42 42 42 42 42 42 42 42 42 42 42 42
e4355470  42 42 42 42 42 42 42 42 42 42 42 42 42 42 42 42
e4355480  42 42 42 42 42 42 42 42 42 42 42 42 42 42 42 42
e4355490  42 42 42 42 42 42 42 42 42 42 42 42 42 42 42 42
e43554a0  42 42 42 42 42 42 42 42 42 42 42 42 42 42 42 42
e43554b0  42 42 42 42 42 42 42 42 42 42 42 42 42 42 42 42
e43554c0  42 42 42 42 42 42 42 42 42 42 42 42 42 42 42 42
e43554d0  42 42 42 42 42 42 42 42 42 42 42 42 42 42 42 42
e43554e0  42 42 42 42 42 42 42 42 42 42 42 42 42 42 42 42
e43554f0  42 42 42 42 42 42 42 42 42 42 42 42 42 42 42 42
e4355500  42 42 42 42 42 42 42 42 42 42 42 42 42 42 42 42
e4355510  42 42 42 42 42 42 42 42 42 42 42 42 42 42 42 42
e4355520  42 42 42 42 42 42 42 42 42 42 42 42 42 42 42 42
e4355530  42 42 42 42 42 42 42 42 42 42 42 42 42 42 42 42
e4355540  42 42 42 42 42 42 42 42 42 42 42 42 42 42 42 42
e4355550  42 42 42 42 42 42 42 42 42 42 42 42 42 42 42 42
e4355560  42 42 42 42 42 42 42 42 42 42 42 42 42 42 42 42
e4355570  42 42 42 42 42 42 42 42 42 42 42 42 42 42 42 42
e4355580  42 42 42 42 42 42 42 42 42 42 42 42 42 42 42 42
e4355590  42 42 42 42 42 42 42 42 42 42 42 42 42 42 42 42
e43555a0  42 42 42 42 42 42 42 42 42 42 42 42 42 42 42 42
e43555b0  42 42 42 42 42 42 42 42 42 42 42 42 42 42 42 42
e43555c0  42 42 42 42 42 42 42 42 42 42 42 42 42 42 42 42
e43555d0  42 42 42 42 42 42 42 42 42 42 42 42 42 42 42 42
e43555e0  42 42 42 42 42 42 42 42 42 42 42 42 42 42 42 42
e43555f0  42 42 42 42 42 42 42 42 42 42 42 42 42 42 42 42
e4355600  42 42 42 42 42 42 42 42 42 42 42 42 42 42 42 42
e4355610  42 42 42 42 42 42 42 42 42 42 42 42 42 42 42 42
e4355620  42 42 42 42 42 42 42 42 42 42 42 42 42 42 42 42
e4355630  42 42 42 42 42 42 42 42 42 42 42 42 42 42 42 42
e4355640  42 42 42 42 42 42 42 42 42 42 42 42 42 42 42 42
e4355650  42 42 42 42 42 42 42 42 42 42 42 42 42 42 42 42
e4355660  42 42 42 42 42 42 42 42 42 42 42 42 42 42 42 42
e4355670  42 42 42 42 42 42 42 42 42 42 42 42 42 42 42 42
e4355680  42 42 42 42 42 42 42 42 42 42 42 42 42 42 42 42
e4355690  42 42 42 42 42 42 42 42 42 42 42 42 42 42 42 42
e43556a0  42 42 42 42 42 42 42 42 42 42 42 42 42 42 42 42
e43556b0  42 42 42 42 42 42 42 42 42 42 42 42 42 42 42 42
e43556c0  42 42 42 42 42 42 42 42 42 42 42 42 42 42 42 42
e43556d0  42 42 42 42 42 42 42 42 42 42 42 42 42 42 42 42
e43556e0  42 42 42 42 42 42 42 42 42 42 42 42 42 42 42 42
e43556f0  42 42 42 42 42 42 42 42 42 42 42 42 42 42 42 42
e4355700  42 42 42 42 42 42 42 42 42 42 42 42 42 42 42 42
e4355710  42 42 42 42 42 42 42 42 42 42 42 42 42 42 42 42
e4355720  42 42 42 42 42 42 42 42 42 42 42 42 42 42 42 42
e4355730  42 42 42 42 42 42 42 42 42 42 42 42 42 42 42 42
e4355740  42 42 42 42 42 42 42 42 42 42 42 42 42 42 42 42
e4355750  42 42 42 42 42 42 42 42 42 42 42 42 42 42 42 42
e4355760  42 42 42 42 42 42 42 42 42 42 42 42 42 42 42 42
e4355770  42 42 42 42 42 42 42 42 42 42 42 42 42 42 42 42
e4355780  42 42 42 42 42 42 42 42 42 42 42 42 42 42 42 42
e4355790  42 42 42 42 42 42 42 42 42 42 42 42 42 42 42 42
e43557a0  42 42 42 42 42 42 42 42 42 42 42 42 42 42 42 42
e43557b0  42 42 42 42 42 42 42 42 42 42 42 42 42 42 42 42
e43557c0  42 42 42 42 42 42 42 42 42 42 42 42 42 42 42 42
e43557d0  42 42 42 42 42 42 42 42 42 42 42 42 42 42 42 42
e43557e0  42 42 42 42 42 42 42 42 42 42 42 42 10 00 02 02
e43557f0  00 00 00 00 10 00 02 02 00 00 00 00 07 00 00 1d
e4355800  00 20 47 ca 00 00 00 20 00 00 00 00 00 00 00 01
e4355810  00 00 00 00 00 00 00 00 00 00 00 00 00 00 00 04
e4355820  00 80 04 90 10 00 02 02 00 00 00 00 07 00 00 1d
e4355830  00 20 47 ca 00 00 00 20 00 00 00 00 00 00 00 01
e4355840  00 00 00 00 00 00 00 00 00 00 00 00 00 00 00 12
e4355850  e4 35 58 d0 00 00 00 00 e1 0a c0 c0 00 80 2d bc
e4355860  00 20 38 60 00 80 05 44 00 80 05 40 00 80 a3 8c
e4355870  00 80 05 4a 00 00 00 04 00 80 0f 00 00 00 00 01
e4355880  00 00 00 00 00 80 2d bc 00 00 08 a6 00 80 2d bc
e4355890  00 80 04 74 00 00 00 01 00 80 04 88 00 00 00 00
e43558a0  00 00 08 54 00 01 40 07 00 80 04 90 00 00 41 01
e43558b0  00 00 08 a6 00 00 00 32 e1 0f 23 08 42 42 42 42
e43558c0  42 42 42 42 42 42 42 42 42 42 42 42 00 00 00 00
e43558d0  00 00 00 00 42 42 42 42 42 42 42 42 42 42 42 42
e43558e0  42 42 42 42 10 00 02 03 00 00 00 00 07 00 00 1d
e43558f0  00 20 24 e0 00 00 00 20 00 00 00 00 00 00 00 01
e4355900  00 00 00 00 00 00 00 00 00 00 00 00 42 42 42 42
e4355910  00 80 04 90 00 80 2d bc 00 80 2d bc 00 80 04 74
e4355920  00 80 04 90 00 80 2d bc e4 35 4e b8 00 80 2d bc
e4355930  e4 35 51 18 00 00 00 04 e4 35 51 18 42 42 42 42

===============================================================================
Process: Pid = 00000009, rlnh_cm_rx_proc
Saved Registers
---------------

Process swapped out inside kernel. (small context)
Only PC (inside the kernel) and stack pointer shown.

  PC: 0x002047ca          SP: 0x00805e88

Stack Content
-------------

Stack size = 4112 storage units

Hex Addr  00 01 02 03 04 05 06 07 08 09 0a 0b 0c 0d 0e 0f
--------  -- -- -- -- -- -- -- -- -- -- -- -- -- -- -- --
  804f30  2a 42 42 42 42 42 42 42 42 42 42 42 42 42 42 42
  804f40  42 42 42 42 42 42 42 42 42 42 42 42 42 42 42 42
  804f50  42 42 42 42 42 42 42 42 42 42 42 42 42 42 42 42
  804f60  42 42 42 42 42 42 42 42 42 42 42 42 42 42 42 42
  804f70  42 42 42 42 42 42 42 42 42 42 42 42 42 42 42 42
  804f80  42 42 42 42 42 42 42 42 42 42 42 42 42 42 42 42
  804f90  42 42 42 42 42 42 42 42 42 42 42 42 42 42 42 42
  804fa0  42 42 42 42 42 42 42 42 42 42 42 42 42 42 42 42
  804fb0  42 42 42 42 42 42 42 42 42 42 42 42 42 42 42 42
  804fc0  42 42 42 42 42 42 42 42 42 42 42 42 42 42 42 42
  804fd0  42 42 42 42 42 42 42 42 42 42 42 42 42 42 42 42
  804fe0  42 42 42 42 42 42 42 42 42 42 42 42 42 42 42 42
  804ff0  42 42 42 42 42 42 42 42 42 42 42 42 42 42 42 42
  805000  42 42 42 42 42 42 42 42 42 42 42 42 42 42 42 42
  805010  42 42 42 42 42 42 42 42 42 42 42 42 42 42 42 42
  805020  42 42 42 42 42 42 42 42 42 42 42 42 42 42 42 42
  805030  42 42 42 42 42 42 42 42 42 42 42 42 42 42 42 42
  805040  42 42 42 42 42 42 42 42 42 42 42 42 42 42 42 42
  805050  42 42 42 42 42 42 42 42 42 42 42 42 42 42 42 42
  805060  42 42 42 42 42 42 42 42 42 42 42 42 42 42 42 42
  805070  42 42 42 42 42 42 42 42 42 42 42 42 42 42 42 42
  805080  42 42 42 42 42 42 42 42 42 42 42 42 42 42 42 42
  805090  42 42 42 42 42 42 42 42 42 42 42 42 42 42 42 42
  8050a0  42 42 42 42 42 42 42 42 42 42 42 42 42 42 42 42
  8050b0  42 42 42 42 42 42 42 42 42 42 42 42 42 42 42 42
  8050c0  42 42 42 42 42 42 42 42 42 42 42 42 42 42 42 42
  8050d0  42 42 42 42 42 42 42 42 42 42 42 42 42 42 42 42
  8050e0  42 42 42 42 42 42 42 42 42 42 42 42 42 42 42 42
  8050f0  42 42 42 42 42 42 42 42 42 42 42 42 42 42 42 42
  805100  42 42 42 42 42 42 42 42 42 42 42 42 42 42 42 42
  805110  42 42 42 42 42 42 42 42 42 42 42 42 42 42 42 42
  805120  42 42 42 42 42 42 42 42 42 42 42 42 42 42 42 42
  805130  42 42 42 42 42 42 42 42 42 42 42 42 42 42 42 42
  805140  42 42 42 42 42 42 42 42 42 42 42 42 42 42 42 42
  805150  42 42 42 42 42 42 42 42 42 42 42 42 42 42 42 42
  805160  42 42 42 42 42 42 42 42 42 42 42 42 42 42 42 42
  805170  42 42 42 42 42 42 42 42 42 42 42 42 42 42 42 42
  805180  42 42 42 42 42 42 42 42 42 42 42 42 42 42 42 42
  805190  42 42 42 42 42 42 42 42 42 42 42 42 42 42 42 42
  8051a0  42 42 42 42 42 42 42 42 42 42 42 42 42 42 42 42
  8051b0  42 42 42 42 42 42 42 42 42 42 42 42 42 42 42 42
  8051c0  42 42 42 42 42 42 42 42 42 42 42 42 42 42 42 42
  8051d0  42 42 42 42 42 42 42 42 42 42 42 42 42 42 42 42
  8051e0  42 42 42 42 42 42 42 42 42 42 42 42 42 42 42 42
  8051f0  42 42 42 42 42 42 42 42 42 42 42 42 42 42 42 42
  805200  42 42 42 42 42 42 42 42 42 42 42 42 42 42 42 42
  805210  42 42 42 42 42 42 42 42 42 42 42 42 42 42 42 42
  805220  42 42 42 42 42 42 42 42 42 42 42 42 42 42 42 42
  805230  42 42 42 42 42 42 42 42 42 42 42 42 42 42 42 42
  805240  42 42 42 42 42 42 42 42 42 42 42 42 42 42 42 42
  805250  42 42 42 42 42 42 42 42 42 42 42 42 42 42 42 42
  805260  42 42 42 42 42 42 42 42 42 42 42 42 42 42 42 42
  805270  42 42 42 42 42 42 42 42 42 42 42 42 42 42 42 42
  805280  42 42 42 42 42 42 42 42 42 42 42 42 42 42 42 42
  805290  42 42 42 42 42 42 42 42 42 42 42 42 42 42 42 42
  8052a0  42 42 42 42 42 42 42 42 42 42 42 42 42 42 42 42
  8052b0  42 42 42 42 42 42 42 42 42 42 42 42 42 42 42 42
  8052c0  42 42 42 42 42 42 42 42 42 42 42 42 42 42 42 42
  8052d0  42 42 42 42 42 42 42 42 42 42 42 42 42 42 42 42
  8052e0  42 42 42 42 42 42 42 42 42 42 42 42 42 42 42 42
  8052f0  42 42 42 42 42 42 42 42 42 42 42 42 42 42 42 42
  805300  42 42 42 42 42 42 42 42 42 42 42 42 42 42 42 42
  805310  42 42 42 42 42 42 42 42 42 42 42 42 42 42 42 42
  805320  42 42 42 42 42 42 42 42 42 42 42 42 42 42 42 42
  805330  42 42 42 42 42 42 42 42 42 42 42 42 42 42 42 42
  805340  42 42 42 42 42 42 42 42 42 42 42 42 42 42 42 42
  805350  42 42 42 42 42 42 42 42 42 42 42 42 42 42 42 42
  805360  42 42 42 42 42 42 42 42 42 42 42 42 42 42 42 42
  805370  42 42 42 42 42 42 42 42 42 42 42 42 42 42 42 42
  805380  42 42 42 42 42 42 42 42 42 42 42 42 42 42 42 42
  805390  42 42 42 42 42 42 42 42 42 42 42 42 42 42 42 42
  8053a0  42 42 42 42 42 42 42 42 42 42 42 42 42 42 42 42
  8053b0  42 42 42 42 42 42 42 42 42 42 42 42 42 42 42 42
  8053c0  42 42 42 42 42 42 42 42 42 42 42 42 42 42 42 42
  8053d0  42 42 42 42 42 42 42 42 42 42 42 42 42 42 42 42
  8053e0  42 42 42 42 42 42 42 42 42 42 42 42 42 42 42 42
  8053f0  42 42 42 42 42 42 42 42 42 42 42 42 42 42 42 42
  805400  42 42 42 42 42 42 42 42 42 42 42 42 42 42 42 42
  805410  42 42 42 42 42 42 42 42 42 42 42 42 42 42 42 42
  805420  42 42 42 42 42 42 42 42 42 42 42 42 42 42 42 42
  805430  42 42 42 42 42 42 42 42 42 42 42 42 42 42 42 42
  805440  42 42 42 42 42 42 42 42 42 42 42 42 42 42 42 42
  805450  42 42 42 42 42 42 42 42 42 42 42 42 42 42 42 42
  805460  42 42 42 42 42 42 42 42 42 42 42 42 42 42 42 42
  805470  42 42 42 42 42 42 42 42 42 42 42 42 42 42 42 42
  805480  42 42 42 42 42 42 42 42 42 42 42 42 42 42 42 42
  805490  42 42 42 42 42 42 42 42 42 42 42 42 42 42 42 42
  8054a0  42 42 42 42 42 42 42 42 42 42 42 42 42 42 42 42
  8054b0  42 42 42 42 42 42 42 42 42 42 42 42 42 42 42 42
  8054c0  42 42 42 42 42 42 42 42 42 42 42 42 42 42 42 42
  8054d0  42 42 42 42 42 42 42 42 42 42 42 42 42 42 42 42
  8054e0  42 42 42 42 42 42 42 42 42 42 42 42 42 42 42 42
  8054f0  42 42 42 42 42 42 42 42 42 42 42 42 42 42 42 42
  805500  42 42 42 42 42 42 42 42 42 42 42 42 42 42 42 42
  805510  42 42 42 42 42 42 42 42 42 42 42 42 42 42 42 42
  805520  42 42 42 42 42 42 42 42 42 42 42 42 42 42 42 42
  805530  42 42 42 42 42 42 42 42 42 42 42 42 42 42 42 42
  805540  42 42 42 42 42 42 42 42 42 42 42 42 42 42 42 42
  805550  42 42 42 42 42 42 42 42 42 42 42 42 42 42 42 42
  805560  42 42 42 42 42 42 42 42 42 42 42 42 42 42 42 42
  805570  42 42 42 42 42 42 42 42 42 42 42 42 42 42 42 42
  805580  42 42 42 42 42 42 42 42 42 42 42 42 42 42 42 42
  805590  42 42 42 42 42 42 42 42 42 42 42 42 42 42 42 42
  8055a0  42 42 42 42 42 42 42 42 42 42 42 42 42 42 42 42
  8055b0  42 42 42 42 42 42 42 42 42 42 42 42 42 42 42 42
  8055c0  42 42 42 42 42 42 42 42 42 42 42 42 42 42 42 42
  8055d0  42 42 42 42 42 42 42 42 42 42 42 42 42 42 42 42
  8055e0  42 42 42 42 42 42 42 42 42 42 42 42 42 42 42 42
  8055f0  42 42 42 42 42 42 42 42 42 42 42 42 42 42 42 42
  805600  42 42 42 42 42 42 42 42 42 42 42 42 42 42 42 42
  805610  42 42 42 42 42 42 42 42 42 42 42 42 42 42 42 42
  805620  42 42 42 42 42 42 42 42 42 42 42 42 42 42 42 42
  805630  42 42 42 42 42 42 42 42 42 42 42 42 42 42 42 42
  805640  42 42 42 42 42 42 42 42 42 42 42 42 42 42 42 42
  805650  42 42 42 42 42 42 42 42 42 42 42 42 42 42 42 42
  805660  42 42 42 42 42 42 42 42 42 42 42 42 42 42 42 42
  805670  42 42 42 42 42 42 42 42 42 42 42 42 42 42 42 42
  805680  42 42 42 42 42 42 42 42 42 42 42 42 42 42 42 42
  805690  42 42 42 42 42 42 42 42 42 42 42 42 42 42 42 42
  8056a0  42 42 42 42 42 42 42 42 42 42 42 42 42 42 42 42
  8056b0  42 42 42 42 42 42 42 42 42 42 42 42 42 42 42 42
  8056c0  42 42 42 42 42 42 42 42 42 42 42 42 42 42 42 42
  8056d0  42 42 42 42 42 42 42 42 42 42 42 42 42 42 42 42
  8056e0  42 42 42 42 42 42 42 42 42 42 42 42 42 42 42 42
  8056f0  42 42 42 42 42 42 42 42 42 42 42 42 42 42 42 42
  805700  42 42 42 42 42 42 42 42 42 42 42 42 42 42 42 42
  805710  42 42 42 42 42 42 42 42 42 42 42 42 42 42 42 42
  805720  42 42 42 42 42 42 42 42 42 42 42 42 42 42 42 42
  805730  42 42 42 42 42 42 42 42 42 42 42 42 42 42 42 42
  805740  42 42 42 42 42 42 42 42 42 42 42 42 42 42 42 42
  805750  42 42 42 42 42 42 42 42 42 42 42 42 42 42 42 42
  805760  42 42 42 42 42 42 42 42 42 42 42 42 42 42 42 42
  805770  42 42 42 42 42 42 42 42 42 42 42 42 42 42 42 42
  805780  42 42 42 42 42 42 42 42 42 42 42 42 42 42 42 42
  805790  42 42 42 42 42 42 42 42 42 42 42 42 42 42 42 42
  8057a0  42 42 42 42 42 42 42 42 42 42 42 42 42 42 42 42
  8057b0  42 42 42 42 42 42 42 42 42 42 42 42 42 42 42 42
  8057c0  42 42 42 42 42 42 42 42 42 42 42 42 42 42 42 42
  8057d0  42 42 42 42 42 42 42 42 42 42 42 42 42 42 42 42
  8057e0  42 42 42 42 42 42 42 42 42 42 42 42 42 42 42 42
  8057f0  42 42 42 42 42 42 42 42 42 42 42 42 42 42 42 42
  805800  42 42 42 42 42 42 42 42 42 42 42 42 42 42 42 42
  805810  42 42 42 42 42 42 42 42 42 42 42 42 42 42 42 42
  805820  42 42 42 42 42 42 42 42 42 42 42 42 42 42 42 42
  805830  42 42 42 42 42 42 42 42 42 42 42 42 42 42 42 42
  805840  42 42 42 42 42 42 42 42 42 42 42 42 42 42 42 42
  805850  42 42 42 42 42 42 42 42 42 42 42 42 42 42 42 42
  805860  42 42 42 42 42 42 42 42 42 42 42 42 42 42 42 42
  805870  42 42 42 42 42 42 42 42 42 42 42 42 42 42 42 42
  805880  42 42 42 42 42 42 42 42 42 42 42 42 42 42 42 42
  805890  42 42 42 42 42 42 42 42 42 42 42 42 42 42 42 42
  8058a0  42 42 42 42 42 42 42 42 42 42 42 42 42 42 42 42
  8058b0  42 42 42 42 42 42 42 42 42 42 42 42 42 42 42 42
  8058c0  42 42 42 42 42 42 42 42 42 42 42 42 42 42 42 42
  8058d0  42 42 42 42 42 42 42 42 42 42 42 42 42 42 42 42
  8058e0  42 42 42 42 42 42 42 42 42 42 42 42 42 42 42 42
  8058f0  42 42 42 42 42 42 42 42 42 42 42 42 42 42 42 42
  805900  42 42 42 42 42 42 42 42 42 42 42 42 42 42 42 42
  805910  42 42 42 42 42 42 42 42 42 42 42 42 42 42 42 42
  805920  42 42 42 42 42 42 42 42 42 42 42 42 42 42 42 42
  805930  42 42 42 42 42 42 42 42 42 42 42 42 42 42 42 42
  805940  42 42 42 42 42 42 42 42 42 42 42 42 42 42 42 42
  805950  42 42 42 42 42 42 42 42 42 42 42 42 42 42 42 42
  805960  42 42 42 42 42 42 42 42 42 42 42 42 42 42 42 42
  805970  42 42 42 42 42 42 42 42 42 42 42 42 42 42 42 42
  805980  42 42 42 42 42 42 42 42 42 42 42 42 42 42 42 42
  805990  42 42 42 42 42 42 42 42 42 42 42 42 42 42 42 42
  8059a0  42 42 42 42 42 42 42 42 42 42 42 42 42 42 42 42
  8059b0  42 42 42 42 42 42 42 42 42 42 42 42 42 42 42 42
  8059c0  42 42 42 42 42 42 42 42 42 42 42 42 42 42 42 42
  8059d0  42 42 42 42 42 42 42 42 42 42 42 42 42 42 42 42
  8059e0  42 42 42 42 42 42 42 42 42 42 42 42 42 42 42 42
  8059f0  42 42 42 42 42 42 42 42 42 42 42 42 42 42 42 42
  805a00  42 42 42 42 42 42 42 42 42 42 42 42 42 42 42 42
  805a10  42 42 42 42 42 42 42 42 42 42 42 42 42 42 42 42
  805a20  42 42 42 42 42 42 42 42 42 42 42 42 42 42 42 42
  805a30  42 42 42 42 42 42 42 42 42 42 42 42 42 42 42 42
  805a40  42 42 42 42 42 42 42 42 42 42 42 42 42 42 42 42
  805a50  42 42 42 42 42 42 42 42 42 42 42 42 42 42 42 42
  805a60  42 42 42 42 42 42 42 42 42 42 42 42 42 42 42 42
  805a70  42 42 42 42 42 42 42 42 42 42 42 42 42 42 42 42
  805a80  42 42 42 42 42 42 42 42 42 42 42 42 42 42 42 42
  805a90  42 42 42 42 42 42 42 42 42 42 42 42 42 42 42 42
  805aa0  42 42 42 42 42 42 42 42 42 42 42 42 42 42 42 42
  805ab0  42 42 42 42 42 42 42 42 42 42 42 42 42 42 42 42
  805ac0  42 42 42 42 42 42 42 42 42 42 42 42 42 42 42 42
  805ad0  42 42 42 42 42 42 42 42 42 42 42 42 42 42 42 42
  805ae0  42 42 42 42 42 42 42 42 42 42 42 42 42 42 42 42
  805af0  42 42 42 42 42 42 42 42 42 42 42 42 42 42 42 42
  805b00  42 42 42 42 42 42 42 42 42 42 42 42 42 42 42 42
  805b10  42 42 42 42 42 42 42 42 42 42 42 42 42 42 42 42
  805b20  42 42 42 42 42 42 42 42 42 42 42 42 42 42 42 42
  805b30  42 42 42 42 42 42 42 42 42 42 42 42 42 42 42 42
  805b40  42 42 42 42 42 42 42 42 42 42 42 42 42 42 42 42
  805b50  42 42 42 42 42 42 42 42 42 42 42 42 42 42 42 42
  805b60  42 42 42 42 42 42 42 42 42 42 42 42 42 42 42 42
  805b70  42 42 42 42 42 42 42 42 42 42 42 42 42 42 42 42
  805b80  42 42 42 42 42 42 42 42 42 42 42 42 42 42 42 42
  805b90  42 42 42 42 42 42 42 42 42 42 42 42 42 42 42 42
  805ba0  42 42 42 42 42 42 42 42 42 42 42 42 42 42 42 42
  805bb0  42 42 42 42 42 42 42 42 42 42 42 42 42 42 42 42
  805bc0  42 42 42 42 42 42 42 42 42 42 42 42 42 42 42 42
  805bd0  42 42 42 42 42 42 42 42 42 42 42 42 42 42 42 42
  805be0  42 42 42 42 42 42 42 42 42 42 42 42 42 42 42 42
  805bf0  42 42 42 42 42 42 42 42 42 42 42 42 42 42 42 42
  805c00  42 42 42 42 42 42 42 42 42 42 42 42 42 42 42 42
  805c10  42 42 42 42 42 42 42 42 42 42 42 42 42 42 42 42
  805c20  42 42 42 42 42 42 42 42 42 42 42 42 42 42 42 42
  805c30  42 42 42 42 42 42 42 42 42 42 42 42 42 42 42 42
  805c40  42 42 42 42 42 42 42 42 42 42 42 42 42 42 42 42
  805c50  42 42 42 42 42 42 42 42 42 42 42 42 42 42 42 42
  805c60  42 42 42 42 42 42 42 42 42 42 42 42 42 42 42 42
  805c70  42 42 42 42 42 42 42 42 42 42 42 42 42 42 42 42
  805c80  42 42 42 42 42 42 42 42 42 42 42 42 42 42 42 42
  805c90  42 42 42 42 42 42 42 42 42 42 42 42 42 42 42 42
  805ca0  42 42 42 42 42 42 42 42 42 42 42 42 42 42 42 42
  805cb0  42 42 42 42 42 42 42 42 42 42 42 42 42 42 42 42
  805cc0  42 42 42 42 42 42 42 42 42 42 42 42 42 42 42 42
  805cd0  42 42 42 42 42 42 42 42 42 42 42 42 10 00 02 02
  805ce0  00 00 00 00 07 00 00 1d 00 20 46 f8 00 00 00 20
  805cf0  00 00 00 00 10 00 02 02 00 00 00 00 10 00 02 02
  805d00  00 00 00 00 07 00 00 1d 00 20 1a 68 00 00 00 20
  805d10  00 00 00 00 00 00 02 0f 00 00 00 00 10 00 02 02
  805d20  00 00 00 00 07 00 00 1d 00 20 1c 0c 00 00 00 20
  805d30  00 00 00 00 00 00 02 0f 00 00 00 00 00 00 00 00
  805d40  00 00 00 00 10 00 02 02 00 00 10 00 e4 35 c3 e6
  805d50  ff ff ff ff 00 84 0f 80 00 00 00 94 00 00 00 01
  805d60  00 00 02 00 00 00 04 00 00 00 00 00 00 00 00 00
  805d70  00 00 10 00 00 00 00 90 00 00 00 00 00 00 00 00
  805d80  00 00 00 00 00 00 00 91 00 00 00 00 00 00 00 00
  805d90  00 00 00 00 7f ff ff ff 47 0b d8 0c 80 00 00 00
  805da0  00 00 00 20 00 00 00 00 00 84 2f 4c 00 00 7f ff
  805db0  00 00 02 0f 00 00 00 00 00 00 46 00 46 00 00 44
  805dc0  00 00 00 00 00 2b 7a b1 00 00 00 00 00 80 82 94
  805dd0  00 00 00 01 00 20 00 00 00 80 05 4c 00 40 00 00
  805de0  00 80 05 4c 00 00 00 01 00 00 00 09 00 80 a4 6c
  805df0  00 60 01 00 10 00 02 03 00 00 00 0a 00 00 00 00
  805e00  00 20 1b f8 00 00 00 00 00 00 00 00 00 00 00 00
  805e10  00 00 00 13 00 00 00 00 00 80 05 40 e1 0e a6 30
  805e20  e4 35 be 50 00 00 00 00 00 00 00 13 00 84 5d d8
  805e30  00 00 00 0c 00 00 00 03 e4 35 70 38 00 00 00 00
  805e40  00 80 7b 80 00 80 0b 60 00 80 7b 80 00 00 00 03
  805e50  00 00 00 03 00 00 00 03 e1 0e ef 48 e4 35 be 70
  805e60  00 00 00 00 00 80 2f 18 00 00 00 03 00 80 4e 7c
  805e70  00 00 00 03 00 00 00 30 00 84 5d e8 00 84 0f a6
  805e80  e1 0e cb d4 00 80 5f a0 00 00 00 00 00 00 00 01
  805e90  00 80 5f a0 10 00 02 02 00 00 00 00 07 00 00 1d
  805ea0  00 20 47 ca 00 00 00 20 00 00 00 00 00 00 02 0f
  805eb0  00 00 00 00 00 00 00 00 00 00 00 00 00 00 00 13
  805ec0  00 80 04 90 00 80 4e 7c e1 0f 23 08 00 80 4e 7c
  805ed0  00 20 5b 08 00 80 05 44 00 80 05 40 00 80 a4 6c
  805ee0  00 84 5d e8 00 84 5d e8 00 80 0f 00 00 84 5d e8
  805ef0  00 84 5d d0 00 80 7b 80 00 00 00 56 00 80 46 70
  805f00  00 00 00 ff 00 84 5d d0 e1 0e e2 b8 e1 10 e6 20
  805f10  00 80 04 90 00 80 4e 7c 00 80 4e 7c 00 80 04 74
  805f20  e4 35 4d 88 00 80 4e 7c e1 0f 23 08 00 80 04 74
  805f30  00 80 4f 18 00 00 00 04 00 80 4f 18 42 42 42 42

===============================================================================
Process: Pid = 0000000c, dp_sup
Saved Registers
---------------

Process swapped out inside kernel. (small context)
Only PC (inside the kernel) and stack pointer shown.

  PC: 0x002047ca          SP: 0xe4357da0

Stack Content
-------------

Stack size = 2064 storage units

Hex Addr  00 01 02 03 04 05 06 07 08 09 0a 0b 0c 0d 0e 0f
--------  -- -- -- -- -- -- -- -- -- -- -- -- -- -- -- --
e43576e0  2a 42 42 42 42 42 42 42 42 42 42 42 42 42 42 42
e43576f0  42 42 42 42 42 42 42 42 42 42 42 42 42 42 42 42
e4357700  42 42 42 42 42 42 42 42 42 42 42 42 42 42 42 42
e4357710  42 42 42 42 42 42 42 42 42 42 42 42 42 42 42 42
e4357720  42 42 42 42 42 42 42 42 42 42 42 42 42 42 42 42
e4357730  42 42 42 42 42 42 42 42 42 42 42 42 42 42 42 42
e4357740  42 42 42 42 42 42 42 42 42 42 42 42 42 42 42 42
e4357750  42 42 42 42 42 42 42 42 42 42 42 42 42 42 42 42
e4357760  42 42 42 42 42 42 42 42 42 42 42 42 42 42 42 42
e4357770  42 42 42 42 42 42 42 42 42 42 42 42 42 42 42 42
e4357780  42 42 42 42 42 42 42 42 42 42 42 42 42 42 42 42
e4357790  42 42 42 42 42 42 42 42 42 42 42 42 42 42 42 42
e43577a0  42 42 42 42 42 42 42 42 42 42 42 42 42 42 42 42
e43577b0  42 42 42 42 42 42 42 42 42 42 42 42 42 42 42 42
e43577c0  42 42 42 42 42 42 42 42 42 42 42 42 42 42 42 42
e43577d0  42 42 42 42 42 42 42 42 42 42 42 42 42 42 42 42
e43577e0  42 42 42 42 42 42 42 42 42 42 42 42 42 42 42 42
e43577f0  42 42 42 42 42 42 42 42 42 42 42 42 42 42 42 42
e4357800  42 42 42 42 42 42 42 42 42 42 42 42 42 42 42 42
e4357810  42 42 42 42 42 42 42 42 42 42 42 42 42 42 42 42
e4357820  42 42 42 42 42 42 42 42 42 42 42 42 42 42 42 42
e4357830  42 42 42 42 42 42 42 42 42 42 42 42 42 42 42 42
e4357840  42 42 42 42 42 42 42 42 42 42 42 42 42 42 42 42
e4357850  42 42 42 42 42 42 42 42 42 42 42 42 42 42 42 42
e4357860  42 42 42 42 42 42 42 42 42 42 42 42 42 42 42 42
e4357870  42 42 42 42 42 42 42 42 42 42 42 42 42 42 42 42
e4357880  42 42 42 42 42 42 42 42 42 42 42 42 42 42 42 42
e4357890  42 42 42 42 42 42 42 42 42 42 42 42 42 42 42 42
e43578a0  42 42 42 42 42 42 42 42 42 42 42 42 42 42 42 42
e43578b0  42 42 42 42 42 42 42 42 42 42 42 42 42 42 42 42
e43578c0  42 42 42 42 42 42 42 42 42 42 42 42 42 42 42 42
e43578d0  42 42 42 42 42 42 42 42 42 42 42 42 42 42 42 42
e43578e0  42 42 42 42 42 42 42 42 42 42 42 42 42 42 42 42
e43578f0  42 42 42 42 42 42 42 42 42 42 42 42 42 42 42 42
e4357900  42 42 42 42 42 42 42 42 42 42 42 42 42 42 42 42
e4357910  42 42 42 42 42 42 42 42 42 42 42 42 42 42 42 42
e4357920  42 42 42 42 42 42 42 42 42 42 42 42 42 42 42 42
e4357930  42 42 42 42 42 42 42 42 42 42 42 42 42 42 42 42
e4357940  42 42 42 42 42 42 42 42 42 42 42 42 42 42 42 42
e4357950  42 42 42 42 42 42 42 42 42 42 42 42 42 42 42 42
e4357960  42 42 42 42 42 42 42 42 42 42 42 42 42 42 42 42
e4357970  42 42 42 42 42 42 42 42 42 42 42 42 42 42 42 42
e4357980  42 42 42 42 42 42 42 42 42 42 42 42 42 42 42 42
e4357990  42 42 42 42 42 42 42 42 42 42 42 42 42 42 42 42
e43579a0  42 42 42 42 42 42 42 42 42 42 42 42 42 42 42 42
e43579b0  42 42 42 42 42 42 42 42 42 42 42 42 42 42 42 42
e43579c0  42 42 42 42 42 42 42 42 42 42 42 42 42 42 42 42
e43579d0  42 42 42 42 42 42 42 42 42 42 42 42 42 42 42 42
e43579e0  42 42 42 42 42 42 42 42 42 42 42 42 42 42 42 42
e43579f0  42 42 42 42 42 42 42 42 42 42 42 42 42 42 42 42
e4357a00  42 42 42 42 42 42 42 42 42 42 42 42 42 42 42 42
e4357a10  42 42 42 42 42 42 42 42 42 42 42 42 42 42 42 42
e4357a20  42 42 42 42 42 42 42 42 42 42 42 42 42 42 42 42
e4357a30  42 42 42 42 42 42 42 42 42 42 42 42 42 42 42 42
e4357a40  42 42 42 42 42 42 42 42 42 42 42 42 42 42 42 42
e4357a50  42 42 42 42 42 42 42 42 42 42 42 42 42 42 42 42
e4357a60  42 42 42 42 42 42 42 42 42 42 42 42 42 42 42 42
e4357a70  42 42 42 42 42 42 42 42 42 42 42 42 42 42 42 42
e4357a80  42 42 42 42 42 42 42 42 42 42 42 42 42 42 42 42
e4357a90  42 42 42 42 42 42 42 42 42 42 42 42 42 42 42 42
e4357aa0  42 42 42 42 42 42 42 42 42 42 42 42 42 42 42 42
e4357ab0  42 42 42 42 42 42 42 42 42 42 42 42 42 42 42 42
e4357ac0  42 42 42 42 42 42 42 42 42 42 42 42 42 42 42 42
e4357ad0  42 42 42 42 42 42 42 42 42 42 42 42 42 42 42 42
e4357ae0  42 42 42 42 42 42 42 42 42 42 42 42 42 42 42 42
e4357af0  42 42 42 42 42 42 42 42 42 42 42 42 42 42 42 42
e4357b00  42 42 42 42 42 42 42 42 42 42 42 42 42 42 42 42
e4357b10  42 42 42 42 42 42 42 42 42 42 42 42 42 42 42 42
e4357b20  42 42 42 42 42 42 42 42 42 42 42 42 42 42 42 42
e4357b30  42 42 42 42 42 42 42 42 42 42 42 42 42 42 42 42
e4357b40  42 42 42 42 42 42 42 42 42 42 42 42 42 42 42 42
e4357b50  42 42 42 42 42 42 42 42 42 42 42 42 42 42 42 42
e4357b60  42 42 42 42 42 42 42 42 42 42 42 42 42 42 42 42
e4357b70  42 42 42 42 42 42 42 42 42 42 42 42 42 42 42 42
e4357b80  42 42 42 42 42 42 42 42 42 42 42 42 42 42 42 42
e4357b90  42 42 42 42 42 42 42 42 42 42 42 42 42 42 42 42
e4357ba0  42 42 42 42 42 42 42 42 42 42 42 42 42 42 42 42
e4357bb0  42 42 42 42 42 42 42 42 42 42 42 42 42 42 42 42
e4357bc0  42 42 42 42 42 42 42 42 42 42 42 42 42 42 42 42
e4357bd0  42 42 42 42 42 42 42 42 42 42 42 42 42 42 42 42
e4357be0  42 42 42 42 42 42 42 42 42 42 42 42 42 42 42 42
e4357bf0  42 42 42 42 42 42 42 42 42 42 42 42 42 42 42 42
e4357c00  42 42 42 42 42 42 42 42 42 42 42 42 42 42 42 42
e4357c10  42 42 42 42 42 42 42 42 42 42 42 42 42 42 42 42
e4357c20  42 42 42 42 42 42 42 42 42 42 42 42 42 42 42 42
e4357c30  42 42 42 42 42 42 42 42 42 42 42 42 42 42 42 42
e4357c40  42 42 42 42 42 42 42 42 42 42 42 42 42 42 42 42
e4357c50  42 42 42 42 42 42 42 42 42 42 42 42 42 42 42 42
e4357c60  42 42 42 42 42 42 42 42 42 42 42 42 42 42 42 42
e4357c70  42 42 42 42 42 42 42 42 42 42 42 42 42 42 42 42
e4357c80  42 42 42 42 42 42 42 42 42 42 42 42 42 42 42 42
e4357c90  42 42 42 42 42 42 42 42 42 42 42 42 42 42 42 42
e4357ca0  42 42 42 42 42 42 42 42 42 42 42 42 42 42 42 42
e4357cb0  42 42 42 42 42 42 42 42 42 42 42 42 42 42 42 42
e4357cc0  42 42 42 42 42 42 42 42 42 42 42 42 42 42 42 42
e4357cd0  42 42 42 42 42 42 42 42 42 42 42 42 42 42 42 42
e4357ce0  42 42 42 42 42 42 42 42 42 42 42 42 42 42 42 42
e4357cf0  42 42 42 42 42 42 42 42 42 42 42 42 42 42 42 42
e4357d00  42 42 42 42 42 42 42 42 42 42 42 42 42 42 42 42
e4357d10  42 42 42 42 42 42 42 42 42 42 42 42 42 42 42 42
e4357d20  42 42 42 42 42 42 42 42 42 42 42 42 42 42 42 42
e4357d30  42 42 42 42 42 42 42 42 42 42 42 42 42 42 42 42
e4357d40  42 42 42 42 42 42 42 42 42 42 42 42 42 42 42 42
e4357d50  42 42 42 42 42 42 42 42 42 42 42 42 42 42 42 42
e4357d60  42 42 42 42 42 42 42 42 42 42 42 42 42 42 42 42
e4357d70  42 42 42 42 42 42 42 42 42 42 42 42 42 42 42 42
e4357d80  42 42 42 42 42 42 42 42 42 42 42 42 42 42 42 42
e4357d90  42 42 42 42 42 42 42 42 42 42 42 42 42 42 42 42
e4357da0  42 42 42 42 42 42 42 42 42 42 42 42 10 00 02 02
e4357db0  00 00 00 00 07 00 00 1d 00 20 47 ca 00 00 00 20
e4357dc0  00 00 00 00 00 00 40 0d 00 00 00 00 00 00 00 00
e4357dd0  00 00 00 00 00 00 00 04 e4 35 7e 68 00 00 00 00
e4357de0  e1 0b 48 38 00 80 79 5c 00 20 38 60 00 80 05 44
e4357df0  00 80 05 40 00 80 2c dc 00 01 40 1a 00 00 00 04
e4357e00  00 80 0f 00 42 42 42 42 00 00 00 00 00 80 79 5c
e4357e10  00 00 00 c6 00 80 79 5c 00 00 01 6f 42 42 42 42
e4357e20  00 01 01 2e 42 42 42 42 00 01 20 00 00 80 79 5c
e4357e30  00 00 41 02 00 00 01 17 00 00 00 c6 00 80 79 5c
e4357e40  00 00 00 32 42 42 42 42 42 42 42 42 42 42 42 42
e4357e50  42 42 42 42 42 42 42 42 42 42 42 42 42 42 42 42
e4357e60  42 42 42 42 42 42 42 42 00 00 00 00 42 42 42 42
e4357e70  42 42 42 42 42 42 42 42 42 42 42 42 42 42 42 42
e4357e80  42 42 42 42 42 42 42 42 42 42 42 42 42 42 42 42
e4357e90  42 42 42 42 10 00 02 03 00 00 00 00 07 00 00 1d
e4357ea0  00 20 24 e0 00 00 00 20 00 00 00 00 00 00 40 0d
e4357eb0  00 20 25 28 00 00 00 00 00 80 04 90 00 80 79 5c
e4357ec0  00 84 e1 90 00 84 e5 1c e4 35 4e b8 00 80 79 5c
e4357ed0  e1 0f 23 08 00 80 04 74 00 80 79 5c 00 80 79 5c
e4357ee0  e4 35 76 c8 00 00 00 04 e4 35 76 c8 42 42 42 42

===============================================================================
Process: Pid = 0000000d, dp_diagnostics
Saved Registers
---------------

Process swapped out inside kernel. (small context)
Only PC (inside the kernel) and stack pointer shown.

  PC: 0x002047ca          SP: 0xe4358dd8

Stack Content
-------------

Stack size = 2064 storage units

Hex Addr  00 01 02 03 04 05 06 07 08 09 0a 0b 0c 0d 0e 0f
--------  -- -- -- -- -- -- -- -- -- -- -- -- -- -- -- --
e4358708  2a 42 42 42 42 42 42 42 42 42 42 42 42 42 42 42
e4358718  42 42 42 42 42 42 42 42 42 42 42 42 42 42 42 42
e4358728  42 42 42 42 42 42 42 42 42 42 42 42 42 42 42 42
e4358738  42 42 42 42 42 42 42 42 42 42 42 42 42 42 42 42
e4358748  42 42 42 42 42 42 42 42 42 42 42 42 42 42 42 42
e4358758  42 42 42 42 42 42 42 42 42 42 42 42 42 42 42 42
e4358768  42 42 42 42 42 42 42 42 42 42 42 42 42 42 42 42
e4358778  42 42 42 42 42 42 42 42 42 42 42 42 42 42 42 42
e4358788  42 42 42 42 42 42 42 42 42 42 42 42 42 42 42 42
e4358798  42 42 42 42 42 42 42 42 42 42 42 42 42 42 42 42
e43587a8  42 42 42 42 42 42 42 42 42 42 42 42 42 42 42 42
e43587b8  42 42 42 42 42 42 42 42 42 42 42 42 42 42 42 42
e43587c8  42 42 42 42 42 42 42 42 42 42 42 42 42 42 42 42
e43587d8  42 42 42 42 42 42 42 42 42 42 42 42 42 42 42 42
e43587e8  42 42 42 42 42 42 42 42 42 42 42 42 42 42 42 42
e43587f8  42 42 42 42 42 42 42 42 42 42 42 42 42 42 42 42
e4358808  42 42 42 42 42 42 42 42 42 42 42 42 42 42 42 42
e4358818  42 42 42 42 42 42 42 42 42 42 42 42 42 42 42 42
e4358828  42 42 42 42 42 42 42 42 42 42 42 42 42 42 42 42
e4358838  42 42 42 42 42 42 42 42 42 42 42 42 42 42 42 42
e4358848  42 42 42 42 42 42 42 42 42 42 42 42 42 42 42 42
e4358858  42 42 42 42 42 42 42 42 42 42 42 42 42 42 42 42
e4358868  42 42 42 42 42 42 42 42 42 42 42 42 42 42 42 42
e4358878  42 42 42 42 42 42 42 42 42 42 42 42 42 42 42 42
e4358888  42 42 42 42 42 42 42 42 42 42 42 42 42 42 42 42
e4358898  42 42 42 42 42 42 42 42 42 42 42 42 42 42 42 42
e43588a8  42 42 42 42 42 42 42 42 42 42 42 42 42 42 42 42
e43588b8  42 42 42 42 42 42 42 42 42 42 42 42 42 42 42 42
e43588c8  42 42 42 42 42 42 42 42 42 42 42 42 42 42 42 42
e43588d8  42 42 42 42 42 42 42 42 42 42 42 42 42 42 42 42
e43588e8  42 42 42 42 42 42 42 42 42 42 42 42 42 42 42 42
e43588f8  42 42 42 42 42 42 42 42 42 42 42 42 42 42 42 42
e4358908  42 42 42 42 42 42 42 42 42 42 42 42 42 42 42 42
e4358918  42 42 42 42 42 42 42 42 42 42 42 42 42 42 42 42
e4358928  42 42 42 42 42 42 42 42 42 42 42 42 42 42 42 42
e4358938  42 42 42 42 42 42 42 42 42 42 42 42 42 42 42 42
e4358948  42 42 42 42 42 42 42 42 42 42 42 42 42 42 42 42
e4358958  42 42 42 42 42 42 42 42 42 42 42 42 42 42 42 42
e4358968  42 42 42 42 42 42 42 42 42 42 42 42 42 42 42 42
e4358978  42 42 42 42 42 42 42 42 42 42 42 42 42 42 42 42
e4358988  42 42 42 42 42 42 42 42 42 42 42 42 42 42 42 42
e4358998  42 42 42 42 42 42 42 42 42 42 42 42 42 42 42 42
e43589a8  42 42 42 42 42 42 42 42 42 42 42 42 42 42 42 42
e43589b8  42 42 42 42 42 42 42 42 42 42 42 42 42 42 42 42
e43589c8  42 42 42 42 42 42 42 42 42 42 42 42 42 42 42 42
e43589d8  42 42 42 42 42 42 42 42 42 42 42 42 42 42 42 42
e43589e8  42 42 42 42 42 42 42 42 42 42 42 42 42 42 42 42
e43589f8  42 42 42 42 42 42 42 42 42 42 42 42 42 42 42 42
e4358a08  42 42 42 42 42 42 42 42 42 42 42 42 42 42 42 42
e4358a18  42 42 42 42 42 42 42 42 42 42 42 42 42 42 42 42
e4358a28  42 42 42 42 42 42 42 42 42 42 42 42 42 42 42 42
e4358a38  42 42 42 42 42 42 42 42 42 42 42 42 42 42 42 42
e4358a48  42 42 42 42 42 42 42 42 42 42 42 42 42 42 42 42
e4358a58  42 42 42 42 42 42 42 42 42 42 42 42 42 42 42 42
e4358a68  42 42 42 42 42 42 42 42 42 42 42 42 42 42 42 42
e4358a78  42 42 42 42 42 42 42 42 42 42 42 42 42 42 42 42
e4358a88  42 42 42 42 42 42 42 42 42 42 42 42 42 42 42 42
e4358a98  42 42 42 42 42 42 42 42 42 42 42 42 42 42 42 42
e4358aa8  42 42 42 42 42 42 42 42 42 42 42 42 42 42 42 42
e4358ab8  42 42 42 42 42 42 42 42 42 42 42 42 42 42 42 42
e4358ac8  42 42 42 42 42 42 42 42 42 42 42 42 42 42 42 42
e4358ad8  42 42 42 42 42 42 42 42 42 42 42 42 42 42 42 42
e4358ae8  42 42 42 42 42 42 42 42 42 42 42 42 42 42 42 42
e4358af8  42 42 42 42 42 42 42 42 42 42 42 42 e4 35 8e 80
e4358b08  00 00 00 37 00 00 00 00 00 00 00 00 ff ff ff ff
e4358b18  00 42 42 42 42 42 42 42 42 42 42 42 42 42 42 42
e4358b28  42 42 42 42 42 42 42 42 42 42 42 42 42 42 42 42
e4358b38  42 42 42 42 42 42 42 42 42 42 42 42 42 42 42 42
e4358b48  42 42 42 42 42 42 42 42 42 42 42 42 42 42 42 42
e4358b58  42 42 42 42 42 42 42 42 42 42 42 42 42 42 42 42
e4358b68  42 42 42 42 42 42 42 42 42 42 42 42 42 42 42 42
e4358b78  42 42 42 42 42 42 42 42 42 42 42 42 42 42 42 42
e4358b88  42 42 42 42 42 42 42 42 42 42 42 42 42 42 42 42
e4358b98  42 42 42 42 42 42 42 42 42 42 42 42 42 42 42 42
e4358ba8  42 42 42 42 42 42 42 42 42 42 42 42 42 42 42 42
e4358bb8  42 42 42 42 42 42 42 42 42 42 42 42 42 42 42 42
e4358bc8  42 42 42 42 42 42 42 42 42 42 42 42 42 42 42 42
e4358bd8  42 42 42 42 42 42 42 42 42 42 42 42 42 42 42 42
e4358be8  42 42 42 42 42 42 42 42 42 42 42 42 42 42 42 42
e4358bf8  42 42 42 42 42 42 42 42 42 42 42 42 42 42 42 42
e4358c08  42 42 42 42 42 42 42 42 42 42 42 42 42 42 42 42
e4358c18  42 42 42 42 42 42 42 42 42 42 42 42 42 42 42 42
e4358c28  42 42 42 42 42 42 42 42 42 42 42 42 42 42 42 42
e4358c38  42 42 42 42 42 42 42 42 42 42 42 42 42 42 42 42
e4358c48  42 42 42 42 42 42 42 42 42 42 42 42 42 42 42 42
e4358c58  42 42 42 42 42 42 42 42 42 42 42 42 42 42 42 42
e4358c68  42 42 42 42 42 42 42 42 42 42 42 42 42 42 42 42
e4358c78  42 42 42 42 42 42 42 42 42 42 42 42 42 42 42 42
e4358c88  42 42 42 42 42 42 42 42 42 42 42 42 42 42 42 42
e4358c98  42 42 42 42 42 42 42 42 42 42 42 42 42 42 42 42
e4358ca8  42 42 42 42 42 42 42 42 42 42 42 42 42 42 42 42
e4358cb8  42 42 42 42 42 42 42 42 42 42 42 42 42 42 42 42
e4358cc8  42 42 42 42 42 42 42 42 42 42 42 42 42 42 42 42
e4358cd8  42 42 42 42 42 42 42 42 42 42 42 42 42 42 42 42
e4358ce8  42 42 42 42 42 42 42 42 42 42 42 42 42 42 42 42
e4358cf8  42 42 42 42 42 42 42 42 42 42 42 42 42 42 42 42
e4358d08  42 42 42 42 42 42 42 42 42 42 42 42 42 42 42 42
e4358d18  42 42 42 42 42 42 42 42 42 42 42 42 42 42 42 42
e4358d28  00 00 00 00 42 42 42 42 00 80 04 90 00 80 79 fc
e4358d38  e4 35 4e b8 00 80 79 fc e1 0b 5a 78 e1 10 46 91
e4358d48  00 00 01 00 e1 10 47 4a e4 35 8d a7 00 00 00 ff
e4358d58  00 80 79 fc 42 42 42 42 e4 35 4e b8 00 80 79 fc
e4358d68  e4 35 86 f0 42 42 42 42 64 70 5f 64 69 61 67 6e
e4358d78  6f 73 74 69 63 73 3a 20 50 6c 61 74 66 6f 72 6d
e4358d88  20 70 72 6f 63 65 73 73 65 73 20 63 72 65 61 74
e4358d98  65 64 20 61 6e 64 20 73 74 61 72 74 65 64 0a 00
e4358da8  42 42 42 42 42 42 42 42 42 42 42 42 42 42 42 42
e4358db8  42 42 42 42 42 42 42 42 42 42 42 42 42 42 42 42
e4358dc8  42 42 42 42 42 42 42 42 42 42 42 42 42 42 42 42
e4358dd8  42 42 42 42 42 42 42 42 42 42 42 42 10 00 02 02
e4358de8  00 00 00 00 07 00 00 1d 00 20 47 ca 00 00 00 20
e4358df8  00 00 00 00 00 00 40 0d 00 00 00 00 00 00 00 00
e4358e08  00 00 00 00 00 00 00 00 e4 35 8e c0 00 00 00 00
e4358e18  e1 0a ee 24 00 80 79 fc 00 20 38 60 00 80 05 44
e4358e28  00 80 05 40 00 80 10 64 80 00 41 0b 00 00 00 04
e4358e38  00 80 0f 00 42 42 42 42 00 00 00 00 00 80 79 fc
e4358e48  00 84 e8 08 00 80 79 fc e1 10 46 91 42 42 42 42
e4358e58  00 01 02 c3 42 42 42 42 00 00 00 00 00 80 79 fc
e4358e68  ff ff ff ff 00 01 02 c4 00 84 e8 08 00 80 79 fc
e4358e78  e1 0f 23 08 e1 10 47 13 42 42 42 42 42 42 42 42
e4358e88  42 42 42 42 42 42 42 42 42 42 42 42 42 42 42 42
e4358e98  42 42 42 42 42 42 42 42 42 42 42 42 42 42 42 42
e4358ea8  42 42 42 42 42 42 42 42 00 00 00 06 00 84 f3 00
e4358eb8  42 42 42 42 10 00 02 03 00 00 00 00 07 00 00 1d
e4358ec8  00 20 24 e0 00 00 00 00 00 00 00 00 00 00 40 0d
e4358ed8  00 20 25 28 00 00 00 00 00 80 04 90 00 80 79 fc
e4358ee8  00 84 e1 90 00 84 e5 1c e4 35 4e b8 00 80 79 fc
e4358ef8  e1 0f 23 08 00 80 04 74 00 80 79 fc 00 80 79 fc
e4358f08  e4 35 86 f0 00 00 00 04 e4 35 86 f0 42 42 42 42

===============================================================================
Process: Pid = 0000000e, p_fault
Saved Registers
---------------

Process swapped out inside kernel. (small context)
Only PC (inside the kernel) and stack pointer shown.

  PC: 0x002047ca          SP: 0x00809070

Stack Content
-------------

Stack size = 2064 storage units

Hex Addr  00 01 02 03 04 05 06 07 08 09 0a 0b 0c 0d 0e 0f
--------  -- -- -- -- -- -- -- -- -- -- -- -- -- -- -- --
  808948  2a 42 42 42 42 42 42 42 42 42 42 42 42 42 42 42
  808958  42 42 42 42 42 42 42 42 42 42 42 42 42 42 42 42
  808968  42 42 42 42 42 42 42 42 42 42 42 42 42 42 42 42
  808978  42 42 42 42 42 42 42 42 42 42 42 42 42 42 42 42
  808988  42 42 42 42 42 42 42 42 42 42 42 42 42 42 42 42
  808998  42 42 42 42 42 42 42 42 42 42 42 42 42 42 42 42
  8089a8  42 42 42 42 42 42 42 42 42 42 42 42 42 42 42 42
  8089b8  42 42 42 42 42 42 42 42 42 42 42 42 42 42 42 42
  8089c8  42 42 42 42 42 42 42 42 42 42 42 42 42 42 42 42
  8089d8  42 42 42 42 42 42 42 42 42 42 42 42 42 42 42 42
  8089e8  42 42 42 42 42 42 42 42 42 42 42 42 42 42 42 42
  8089f8  42 42 42 42 42 42 42 42 42 42 42 42 42 42 42 42
  808a08  42 42 42 42 42 42 42 42 42 42 42 42 42 42 42 42
  808a18  42 42 42 42 42 42 42 42 42 42 42 42 42 42 42 42
  808a28  42 42 42 42 42 42 42 42 42 42 42 42 42 42 42 42
  808a38  42 42 42 42 42 42 42 42 42 42 42 42 42 42 42 42
  808a48  42 42 42 42 42 42 42 42 42 42 42 42 42 42 42 42
  808a58  42 42 42 42 42 42 42 42 42 42 42 42 42 42 42 42
  808a68  42 42 42 42 42 42 42 42 42 42 42 42 42 42 42 42
  808a78  42 42 42 42 42 42 42 42 42 42 42 42 42 42 42 42
  808a88  42 42 42 42 42 42 42 42 42 42 42 42 42 42 42 42
  808a98  42 42 42 42 42 42 42 42 42 42 42 42 42 42 42 42
  808aa8  42 42 42 42 42 42 42 42 42 42 42 42 42 42 42 42
  808ab8  42 42 42 42 42 42 42 42 42 42 42 42 42 42 42 42
  808ac8  42 42 42 42 42 42 42 42 42 42 42 42 42 42 42 42
  808ad8  42 42 42 42 42 42 42 42 42 42 42 42 42 42 42 42
  808ae8  42 42 42 42 42 42 42 42 42 42 42 42 42 42 42 42
  808af8  42 42 42 42 42 42 42 42 42 42 42 42 42 42 42 42
  808b08  42 42 42 42 42 42 42 42 42 42 42 42 42 42 42 42
  808b18  42 42 42 42 42 42 42 42 42 42 42 42 42 42 42 42
  808b28  42 42 42 42 42 42 42 42 42 42 42 42 42 42 42 42
  808b38  42 42 42 42 42 42 42 42 42 42 42 42 42 42 42 42
  808b48  42 42 42 42 42 42 42 42 42 42 42 42 42 42 42 42
  808b58  42 42 42 42 42 42 42 42 42 42 42 42 42 42 42 42
  808b68  42 42 42 42 42 42 42 42 42 42 42 42 42 42 42 42
  808b78  42 42 42 42 42 42 42 42 42 42 42 42 42 42 42 42
  808b88  42 42 42 42 42 42 42 42 42 42 42 42 42 42 42 42
  808b98  42 42 42 42 42 42 42 42 42 42 42 42 42 42 42 42
  808ba8  42 42 42 42 42 42 42 42 42 42 42 42 42 42 42 42
  808bb8  42 42 42 42 42 42 42 42 42 42 42 42 42 42 42 42
  808bc8  42 42 42 42 42 42 42 42 42 42 42 42 42 42 42 42
  808bd8  42 42 42 42 42 42 42 42 42 42 42 42 42 42 42 42
  808be8  42 42 42 42 42 42 42 42 42 42 42 42 42 42 42 42
  808bf8  42 42 42 42 42 42 42 42 42 42 42 42 42 42 42 42
  808c08  42 42 42 42 42 42 42 42 42 42 42 42 42 42 42 42
  808c18  42 42 42 42 42 42 42 42 42 42 42 42 42 42 42 42
  808c28  42 42 42 42 42 42 42 42 42 42 42 42 42 42 42 42
  808c38  42 42 42 42 42 42 42 42 42 42 42 42 42 42 42 42
  808c48  42 42 42 42 42 42 42 42 42 42 42 42 42 42 42 42
  808c58  42 42 42 42 42 42 42 42 42 42 42 42 42 42 42 42
  808c68  42 42 42 42 42 42 42 42 42 42 42 42 42 42 42 42
  808c78  42 42 42 42 42 42 42 42 42 42 42 42 42 42 42 42
  808c88  42 42 42 42 42 42 42 42 42 42 42 42 42 42 42 42
  808c98  42 42 42 42 42 42 42 42 42 42 42 42 42 42 42 42
  808ca8  42 42 42 42 42 42 42 42 42 42 42 42 42 42 42 42
  808cb8  42 42 42 42 42 42 42 42 42 42 42 42 42 42 42 42
  808cc8  42 42 42 42 42 42 42 42 42 42 42 42 42 42 42 42
  808cd8  42 42 42 42 42 42 42 42 42 42 42 42 42 42 42 42
  808ce8  42 42 42 42 42 42 42 42 42 42 42 42 42 42 42 42
  808cf8  42 42 42 42 42 42 42 42 42 42 42 42 42 42 42 42
  808d08  42 42 42 42 42 42 42 42 42 42 42 42 42 42 42 42
  808d18  42 42 42 42 42 42 42 42 42 42 42 42 42 42 42 42
  808d28  42 42 42 42 42 42 42 42 42 42 42 42 42 42 42 42
  808d38  42 42 42 42 42 42 42 42 42 42 42 42 42 42 42 42
  808d48  42 42 42 42 42 42 42 42 42 42 42 42 42 42 42 42
  808d58  42 42 42 42 42 42 42 42 42 42 42 42 42 42 42 42
  808d68  42 42 42 42 42 42 42 42 42 42 42 42 42 42 42 42
  808d78  42 42 42 42 42 42 42 42 42 42 42 42 42 42 42 42
  808d88  42 42 42 42 42 42 42 42 42 42 42 42 42 42 42 42
  808d98  42 42 42 42 42 42 42 42 42 42 42 42 42 42 42 42
  808da8  42 42 42 42 42 42 42 42 42 42 42 42 42 42 42 42
  808db8  42 42 42 42 42 42 42 42 42 42 42 42 42 42 42 42
  808dc8  42 42 42 42 42 42 42 42 42 42 42 42 42 42 42 42
  808dd8  42 42 42 42 42 42 42 42 42 42 42 42 42 42 42 42
  808de8  42 42 42 42 42 42 42 42 42 42 42 42 42 42 42 42
  808df8  42 42 42 42 42 42 42 42 42 42 42 42 42 42 42 42
  808e08  42 42 42 42 42 42 42 42 42 42 42 42 42 42 42 42
  808e18  42 42 42 42 42 42 42 42 42 42 42 42 42 42 42 42
  808e28  42 42 42 42 42 42 42 42 42 42 42 42 42 42 42 42
  808e38  42 42 42 42 42 42 42 42 42 42 42 42 42 42 42 42
  808e48  42 42 42 42 42 42 42 42 42 42 42 42 42 42 42 42
  808e58  42 42 42 42 42 42 42 42 42 42 42 42 42 42 42 42
  808e68  42 42 42 42 42 42 42 42 42 42 42 42 42 42 42 42
  808e78  42 42 42 42 42 42 42 42 42 42 42 42 42 42 42 42
  808e88  42 42 42 42 42 42 42 42 42 42 42 42 42 42 42 42
  808e98  42 42 42 42 42 42 42 42 42 42 42 42 42 42 42 42
  808ea8  42 42 42 42 42 42 42 42 42 42 42 42 42 42 42 42
  808eb8  42 42 42 42 42 42 42 42 42 42 42 42 42 42 42 42
  808ec8  42 42 42 42 42 42 42 42 42 42 42 42 42 42 42 42
  808ed8  42 42 42 42 42 42 42 42 42 42 42 42 42 42 42 42
  808ee8  42 42 42 42 42 42 42 42 42 42 42 42 42 42 42 42
  808ef8  42 42 42 42 42 42 42 42 42 42 42 42 42 42 42 42
  808f08  42 42 42 42 42 42 42 42 42 42 42 42 42 42 42 42
  808f18  42 42 42 42 42 42 42 42 42 42 42 42 42 42 42 42
  808f28  42 42 42 42 42 42 42 42 42 42 42 42 42 42 42 42
  808f38  42 42 42 42 42 42 42 42 42 42 42 42 42 42 42 42
  808f48  42 42 42 42 42 42 42 42 42 42 42 42 42 42 42 42
  808f58  42 42 42 42 42 42 42 42 42 42 42 42 42 42 42 42
  808f68  42 42 42 42 42 42 42 42 42 42 42 42 42 42 42 42
  808f78  42 42 42 42 42 42 42 42 42 42 42 42 42 42 42 42
  808f88  42 42 42 42 42 42 42 42 42 42 42 42 42 42 42 42
  808f98  42 42 42 42 42 42 42 42 42 42 42 42 42 42 42 42
  808fa8  42 42 42 42 42 42 42 42 42 42 42 42 42 42 42 42
  808fb8  42 42 42 42 42 42 42 42 42 42 42 42 42 42 42 42
  808fc8  42 42 42 42 42 42 42 42 42 42 42 42 42 42 42 42
  808fd8  42 42 42 42 42 42 42 42 42 42 42 42 42 42 42 42
  808fe8  42 42 42 42 42 42 42 42 42 42 42 42 42 42 42 42
  808ff8  42 42 42 42 42 42 42 42 42 42 42 42 42 42 42 42
  809008  42 42 42 42 42 42 42 42 42 42 42 42 42 42 42 42
  809018  42 42 42 42 42 42 42 42 42 42 42 42 42 42 42 42
  809028  42 42 42 42 42 42 42 42 42 42 42 42 42 42 42 42
  809038  42 42 42 42 42 42 42 42 42 42 42 42 42 42 42 42
  809048  42 42 42 42 42 42 42 42 42 42 42 42 42 42 42 42
  809058  42 42 42 42 42 42 42 42 42 42 42 42 42 42 42 42
  809068  42 42 42 42 42 42 42 42 42 42 42 42 42 42 42 42
  809078  42 42 42 42 10 00 02 02 00 00 00 00 07 00 00 1d
  809088  00 20 47 ca 00 00 00 20 00 00 00 00 00 00 02 0d
  809098  00 00 00 00 00 00 00 00 00 00 00 00 00 00 00 04
  8090a8  00 80 91 18 00 00 00 00 00 2a cb c0 00 80 88 d4
  8090b8  00 20 38 60 00 80 05 44 00 80 05 40 00 80 2c dc
  8090c8  00 01 00 68 00 00 00 04 00 80 0f 00 00 00 00 00
  8090d8  00 00 00 00 00 80 88 d4 e4 35 4e 58 00 80 88 d4
  8090e8  00 80 04 74 00 80 88 d4 00 01 40 0c 00 80 04 74
  8090f8  ff ff ff ff 00 00 00 84 00 80 04 90 00 80 88 d4
  809108  e4 35 4e 58 70 bd 00 02 e1 0f 23 08 e1 10 ae 61
  809118  00 00 00 00 00 00 00 00 e1 0e 55 30 00 00 00 00
  809128  00 00 00 00 00 00 88 d4 e1 0f 23 08 00 80 04 74
  809138  00 80 88 d4 00 00 00 04 e4 35 4e 58 00 80 88 d4
  809148  00 80 89 30 00 00 00 04 00 80 89 30 42 42 42 42

===============================================================================
Process: Pid = 0000000f, p_load_probe
Saved Registers
---------------

Process swapped out inside kernel. (small context)
Only PC (inside the kernel) and stack pointer shown.

  PC: 0x002047ca          SP: 0x008098c8

Stack Content
-------------

Stack size = 2064 storage units

Hex Addr  00 01 02 03 04 05 06 07 08 09 0a 0b 0c 0d 0e 0f
--------  -- -- -- -- -- -- -- -- -- -- -- -- -- -- -- --
  8091d0  2a 42 42 42 42 42 42 42 42 42 42 42 42 42 42 42
  8091e0  42 42 42 42 42 42 42 42 42 42 42 42 42 42 42 42
  8091f0  42 42 42 42 42 42 42 42 42 42 42 42 42 42 42 42
  809200  42 42 42 42 42 42 42 42 42 42 42 42 42 42 42 42
  809210  42 42 42 42 42 42 42 42 42 42 42 42 42 42 42 42
  809220  42 42 42 42 42 42 42 42 42 42 42 42 42 42 42 42
  809230  42 42 42 42 42 42 42 42 42 42 42 42 42 42 42 42
  809240  42 42 42 42 42 42 42 42 42 42 42 42 42 42 42 42
  809250  42 42 42 42 42 42 42 42 42 42 42 42 42 42 42 42
  809260  42 42 42 42 42 42 42 42 42 42 42 42 42 42 42 42
  809270  42 42 42 42 42 42 42 42 42 42 42 42 42 42 42 42
  809280  42 42 42 42 42 42 42 42 42 42 42 42 42 42 42 42
  809290  42 42 42 42 42 42 42 42 42 42 42 42 42 42 42 42
  8092a0  42 42 42 42 42 42 42 42 42 42 42 42 42 42 42 42
  8092b0  42 42 42 42 42 42 42 42 42 42 42 42 42 42 42 42
  8092c0  42 42 42 42 42 42 42 42 42 42 42 42 42 42 42 42
  8092d0  42 42 42 42 42 42 42 42 42 42 42 42 42 42 42 42
  8092e0  42 42 42 42 42 42 42 42 42 42 42 42 42 42 42 42
  8092f0  42 42 42 42 42 42 42 42 42 42 42 42 42 42 42 42
  809300  42 42 42 42 42 42 42 42 42 42 42 42 42 42 42 42
  809310  42 42 42 42 42 42 42 42 42 42 42 42 42 42 42 42
  809320  42 42 42 42 42 42 42 42 42 42 42 42 42 42 42 42
  809330  42 42 42 42 42 42 42 42 42 42 42 42 42 42 42 42
  809340  42 42 42 42 42 42 42 42 42 42 42 42 42 42 42 42
  809350  42 42 42 42 42 42 42 42 42 42 42 42 42 42 42 42
  809360  42 42 42 42 42 42 42 42 42 42 42 42 42 42 42 42
  809370  42 42 42 42 42 42 42 42 42 42 42 42 42 42 42 42
  809380  42 42 42 42 42 42 42 42 42 42 42 42 42 42 42 42
  809390  42 42 42 42 42 42 42 42 42 42 42 42 42 42 42 42
  8093a0  42 42 42 42 42 42 42 42 42 42 42 42 42 42 42 42
  8093b0  42 42 42 42 42 42 42 42 42 42 42 42 42 42 42 42
  8093c0  42 42 42 42 42 42 42 42 42 42 42 42 42 42 42 42
  8093d0  42 42 42 42 42 42 42 42 42 42 42 42 42 42 42 42
  8093e0  42 42 42 42 42 42 42 42 42 42 42 42 42 42 42 42
  8093f0  42 42 42 42 42 42 42 42 42 42 42 42 42 42 42 42
  809400  42 42 42 42 42 42 42 42 42 42 42 42 42 42 42 42
  809410  42 42 42 42 42 42 42 42 42 42 42 42 42 42 42 42
  809420  42 42 42 42 42 42 42 42 42 42 42 42 42 42 42 42
  809430  42 42 42 42 42 42 42 42 42 42 42 42 42 42 42 42
  809440  42 42 42 42 42 42 42 42 42 42 42 42 42 42 42 42
  809450  42 42 42 42 42 42 42 42 42 42 42 42 42 42 42 42
  809460  42 42 42 42 42 42 42 42 42 42 42 42 42 42 42 42
  809470  42 42 42 42 42 42 42 42 42 42 42 42 42 42 42 42
  809480  42 42 42 42 42 42 42 42 42 42 42 42 42 42 42 42
  809490  42 42 42 42 42 42 42 42 42 42 42 42 42 42 42 42
  8094a0  42 42 42 42 42 42 42 42 42 42 42 42 42 42 42 42
  8094b0  42 42 42 42 42 42 42 42 42 42 42 42 42 42 42 42
  8094c0  42 42 42 42 42 42 42 42 42 42 42 42 42 42 42 42
  8094d0  42 42 42 42 42 42 42 42 42 42 42 42 42 42 42 42
  8094e0  42 42 42 42 42 42 42 42 42 42 42 42 42 42 42 42
  8094f0  42 42 42 42 42 42 42 42 42 42 42 42 42 42 42 42
  809500  42 42 42 42 42 42 42 42 42 42 42 42 42 42 42 42
  809510  42 42 42 42 42 42 42 42 42 42 42 42 42 42 42 42
  809520  42 42 42 42 42 42 42 42 42 42 42 42 42 42 42 42
  809530  42 42 42 42 42 42 42 42 42 42 42 42 42 42 42 42
  809540  42 42 42 42 42 42 42 42 42 42 42 42 42 42 42 42
  809550  42 42 42 42 42 42 42 42 42 42 42 42 42 42 42 42
  809560  42 42 42 42 42 42 42 42 42 42 42 42 42 42 42 42
  809570  42 42 42 42 42 42 42 42 42 42 42 42 42 42 42 42
  809580  42 42 42 42 42 42 42 42 42 42 42 42 42 42 42 42
  809590  42 42 42 42 42 42 42 42 42 42 42 42 42 42 42 42
  8095a0  42 42 42 42 42 42 42 42 42 42 42 42 42 42 42 42
  8095b0  42 42 42 42 42 42 42 42 42 42 42 42 42 42 42 42
  8095c0  42 42 42 42 42 42 42 42 42 42 42 42 42 42 42 42
  8095d0  42 42 42 42 42 42 42 42 42 42 42 42 42 42 42 42
  8095e0  42 42 42 42 42 42 42 42 42 42 42 42 42 42 42 42
  8095f0  42 42 42 42 42 42 42 42 42 42 42 42 42 42 42 42
  809600  42 42 42 42 42 42 42 42 42 42 42 42 42 42 42 42
  809610  42 42 42 42 42 42 42 42 42 42 42 42 42 42 42 42
  809620  42 42 42 42 42 42 42 42 42 42 42 42 42 42 42 42
  809630  42 42 42 42 42 42 42 42 42 42 42 42 42 42 42 42
  809640  42 42 42 42 42 42 42 42 42 42 42 42 42 42 42 42
  809650  42 42 42 42 42 42 42 42 42 42 42 42 42 42 42 42
  809660  42 42 42 42 42 42 42 42 42 42 42 42 42 42 42 42
  809670  42 42 42 42 42 42 42 42 42 42 42 42 42 42 42 42
  809680  42 42 42 42 42 42 42 42 42 42 42 42 42 42 42 42
  809690  42 42 42 42 42 42 42 42 42 42 42 42 42 42 42 42
  8096a0  42 42 42 42 42 42 42 42 42 42 42 42 42 42 42 42
  8096b0  42 42 42 42 42 42 42 42 42 42 42 42 42 42 42 42
  8096c0  42 42 42 42 42 42 42 42 42 42 42 42 42 42 42 42
  8096d0  42 42 42 42 42 42 42 42 42 42 42 42 42 42 42 42
  8096e0  42 42 42 42 42 42 42 42 42 42 42 42 42 42 42 42
  8096f0  42 42 42 42 42 42 42 42 42 42 42 42 42 42 42 42
  809700  42 42 42 42 42 42 42 42 42 42 42 42 42 42 42 42
  809710  42 42 42 42 42 42 42 42 42 42 42 42 42 42 42 42
  809720  42 42 42 42 42 42 42 42 42 42 42 42 42 42 42 42
  809730  42 42 42 42 42 42 42 42 42 42 42 42 42 42 42 42
  809740  42 42 42 42 42 42 42 42 42 42 42 42 42 42 42 42
  809750  42 42 42 42 42 42 42 42 42 42 42 42 42 42 42 42
  809760  42 42 42 42 42 42 42 42 42 42 42 42 42 42 42 42
  809770  42 42 42 42 42 42 42 42 42 42 42 42 42 42 42 42
  809780  42 42 42 42 42 42 42 42 42 42 42 42 42 42 42 42
  809790  42 42 42 42 42 42 42 42 42 42 42 42 42 42 42 42
  8097a0  42 42 42 42 42 42 42 42 42 42 42 42 42 42 42 42
  8097b0  42 42 42 42 42 42 42 42 00 84 27 d4 00 80 7b f0
  8097c0  00 20 73 c4 42 42 42 42 00 20 97 16 00 80 0b 60
  8097d0  00 20 a4 c4 42 42 42 42 00 80 7b f0 00 80 0b 60
  8097e0  e4 35 c3 d0 42 42 42 42 00 80 45 30 00 80 2f 18
  8097f0  20 1c b0 94 00 00 00 18 e1 0f 0c 44 e4 35 c3 d0
  809800  00 00 00 02 10 00 02 02 00 00 00 00 07 00 00 1d
  809810  e1 0e 4b 40 00 00 00 20 00 00 00 00 00 00 02 0d
  809820  00 00 00 00 00 00 00 00 00 00 00 00 00 00 00 01
  809830  e1 31 c6 28 00 00 00 00 00 2b a5 e0 10 00 02 02
  809840  00 80 79 20 00 00 00 7e 00 00 02 00 00 00 04 00
  809850  00 00 00 00 e1 0e 15 7a 00 00 10 00 00 00 00 90
  809860  00 00 00 00 00 00 00 00 00 00 00 00 00 00 00 91
  809870  00 00 00 00 00 00 00 03 00 00 00 00 7f ff ff ff
  809880  00 00 00 4c 80 00 00 00 00 00 00 20 00 00 00 00
  809890  00 84 2f 4c 00 00 00 00 00 00 03 3a f0 00 00 00
  8098a0  00 00 00 00 00 00 00 00 08 1a 09 0a 02 26 00 2f
  8098b0  02 cc 23 50 20 00 00 00 00 00 00 00 00 00 00 0c
  8098c0  00 00 00 72 00 00 00 00 70 00 00 00 00 00 00 00
  8098d0  00 00 00 04 10 00 02 02 00 00 00 00 07 00 00 1d
  8098e0  00 20 47 ca 00 00 00 20 00 00 00 00 00 00 02 0d
  8098f0  00 00 00 00 00 00 00 00 00 00 00 00 00 00 00 00
  809900  00 80 99 70 00 00 00 00 00 2a cb c0 00 80 91 5c
  809910  00 20 38 60 00 80 05 44 00 80 05 40 00 80 10 64
  809920  00 01 00 68 00 00 00 04 00 80 0f 00 00 00 00 00
  809930  00 00 00 00 00 80 91 5c 30 b5 00 04 00 80 91 5c
  809940  00 00 70 95 e1 31 91 b8 ff ff ff ff 00 00 00 01
  809950  00 00 00 42 e1 31 c7 78 00 00 01 0c 00 80 91 5c
  809960  30 b5 00 04 00 80 91 5c 00 00 70 91 00 00 70 95
  809970  00 00 00 00 e1 31 c7 78 e1 0e 19 10 00 00 00 00
  809980  42 42 42 42 10 00 02 03 00 00 00 00 00 34 12 e3
  809990  00 00 00 00 0b bd 07 ed 00 00 00 00 00 00 02 0d
  8099a0  00 20 25 28 00 00 00 00 00 80 91 b8 00 80 91 5c
  8099b0  e4 35 4e 58 00 80 91 5c 00 80 04 90 00 80 91 5c
  8099c0  e1 0f 23 08 00 80 04 74 00 01 00 68 00 01 40 0c
  8099d0  00 80 0f 00 00 00 00 04 00 80 91 b8 42 42 42 42

===============================================================================
Process: Pid = 00000010, p_trace
Saved Registers
---------------

Process swapped out inside kernel. (small context)
Only PC (inside the kernel) and stack pointer shown.

  PC: 0x002047ca          SP: 0xe1300830

Stack Content
-------------

Stack size = 2064 storage units

Hex Addr  00 01 02 03 04 05 06 07 08 09 0a 0b 0c 0d 0e 0f
--------  -- -- -- -- -- -- -- -- -- -- -- -- -- -- -- --
e1300120  2a 42 42 42 42 42 42 42 42 42 42 42 42 42 42 42
e1300130  42 42 42 42 42 42 42 42 42 42 42 42 42 42 42 42
e1300140  42 42 42 42 42 42 42 42 42 42 42 42 42 42 42 42
e1300150  42 42 42 42 42 42 42 42 42 42 42 42 42 42 42 42
e1300160  42 42 42 42 42 42 42 42 42 42 42 42 42 42 42 42
e1300170  42 42 42 42 42 42 42 42 42 42 42 42 42 42 42 42
e1300180  42 42 42 42 42 42 42 42 42 42 42 42 42 42 42 42
e1300190  42 42 42 42 42 42 42 42 42 42 42 42 42 42 42 42
e13001a0  42 42 42 42 42 42 42 42 42 42 42 42 42 42 42 42
e13001b0  42 42 42 42 42 42 42 42 42 42 42 42 42 42 42 42
e13001c0  42 42 42 42 42 42 42 42 42 42 42 42 42 42 42 42
e13001d0  42 42 42 42 42 42 42 42 42 42 42 42 42 42 42 42
e13001e0  42 42 42 42 42 42 42 42 42 42 42 42 42 42 42 42
e13001f0  42 42 42 42 42 42 42 42 42 42 42 42 42 42 42 42
e1300200  42 42 42 42 42 42 42 42 42 42 42 42 42 42 42 42
e1300210  42 42 42 42 42 42 42 42 42 42 42 42 42 42 42 42
e1300220  42 42 42 42 42 42 42 42 42 42 42 42 42 42 42 42
e1300230  42 42 42 42 42 42 42 42 42 42 42 42 42 42 42 42
e1300240  42 42 42 42 42 42 42 42 42 42 42 42 42 42 42 42
e1300250  42 42 42 42 42 42 42 42 42 42 42 42 42 42 42 42
e1300260  42 42 42 42 42 42 42 42 42 42 42 42 42 42 42 42
e1300270  42 42 42 42 42 42 42 42 42 42 42 42 42 42 42 42
e1300280  42 42 42 42 42 42 42 42 42 42 42 42 42 42 42 42
e1300290  42 42 42 42 42 42 42 42 42 42 42 42 42 42 42 42
e13002a0  42 42 42 42 42 42 42 42 42 42 42 42 42 42 42 42
e13002b0  42 42 42 42 42 42 42 42 42 42 42 42 42 42 42 42
e13002c0  42 42 42 42 42 42 42 42 42 42 42 42 42 42 42 42
e13002d0  42 42 42 42 42 42 42 42 42 42 42 42 42 42 42 42
e13002e0  42 42 42 42 42 42 42 42 42 42 42 42 42 42 42 42
e13002f0  42 42 42 42 42 42 42 42 42 42 42 42 42 42 42 42
e1300300  42 42 42 42 42 42 42 42 42 42 42 42 42 42 42 42
e1300310  42 42 42 42 42 42 42 42 42 42 42 42 42 42 42 42
e1300320  42 42 42 42 42 42 42 42 42 42 42 42 42 42 42 42
e1300330  42 42 42 42 42 42 42 42 42 42 42 42 42 42 42 42
e1300340  42 42 42 42 42 42 42 42 42 42 42 42 42 42 42 42
e1300350  42 42 42 42 42 42 42 42 42 42 42 42 42 42 42 42
e1300360  42 42 42 42 42 42 42 42 42 42 42 42 42 42 42 42
e1300370  42 42 42 42 42 42 42 42 42 42 42 42 42 42 42 42
e1300380  42 42 42 42 42 42 42 42 42 42 42 42 42 42 42 42
e1300390  42 42 42 42 42 42 42 42 42 42 42 42 42 42 42 42
e13003a0  42 42 42 42 42 42 42 42 42 42 42 42 42 42 42 42
e13003b0  42 42 42 42 42 42 42 42 42 42 42 42 42 42 42 42
e13003c0  42 42 42 42 42 42 42 42 42 42 42 42 42 42 42 42
e13003d0  42 42 42 42 42 42 42 42 42 42 42 42 42 42 42 42
e13003e0  42 42 42 42 42 42 42 42 42 42 42 42 42 42 42 42
e13003f0  42 42 42 42 42 42 42 42 42 42 42 42 42 42 42 42
e1300400  42 42 42 42 42 42 42 42 42 42 42 42 42 42 42 42
e1300410  42 42 42 42 42 42 42 42 42 42 42 42 42 42 42 42
e1300420  42 42 42 42 42 42 42 42 42 42 42 42 42 42 42 42
e1300430  42 42 42 42 42 42 42 42 42 42 42 42 42 42 42 42
e1300440  42 42 42 42 42 42 42 42 42 42 42 42 42 42 42 42
e1300450  42 42 42 42 42 42 42 42 42 42 42 42 42 42 42 42
e1300460  42 42 42 42 42 42 42 42 42 42 42 42 42 42 42 42
e1300470  42 42 42 42 42 42 42 42 42 42 42 42 42 42 42 42
e1300480  42 42 42 42 42 42 42 42 42 42 42 42 42 42 42 42
e1300490  42 42 42 42 42 42 42 42 42 42 42 42 42 42 42 42
e13004a0  42 42 42 42 42 42 42 42 42 42 42 42 42 42 42 42
e13004b0  42 42 42 42 42 42 42 42 42 42 42 42 42 42 42 42
e13004c0  42 42 42 42 42 42 42 42 42 42 42 42 42 42 42 42
e13004d0  42 42 42 42 42 42 42 42 42 42 42 42 42 42 42 42
e13004e0  42 42 42 42 42 42 42 42 42 42 42 42 42 42 42 42
e13004f0  42 42 42 42 42 42 42 42 42 42 42 42 42 42 42 42
e1300500  42 42 42 42 42 42 42 42 42 42 42 42 42 42 42 42
e1300510  42 42 42 42 42 42 42 42 42 42 42 42 42 42 42 42
e1300520  42 42 42 42 42 42 42 42 42 42 42 42 42 42 42 42
e1300530  42 42 42 42 42 42 42 42 42 42 42 42 42 42 42 42
e1300540  42 42 42 42 42 42 42 42 42 42 42 42 42 42 42 42
e1300550  42 42 42 42 42 42 42 42 42 42 42 42 42 42 42 42
e1300560  42 42 42 42 42 42 42 42 42 42 42 42 42 42 42 42
e1300570  42 42 42 42 42 42 42 42 42 42 42 42 42 42 42 42
e1300580  42 42 42 42 42 42 42 42 42 42 42 42 42 42 42 42
e1300590  42 42 42 42 42 42 42 42 42 42 42 42 42 42 42 42
e13005a0  42 42 42 42 42 42 42 42 42 42 42 42 42 42 42 42
e13005b0  42 42 42 42 42 42 42 42 42 42 42 42 42 42 42 42
e13005c0  42 42 42 42 42 42 42 42 42 42 42 42 42 42 42 42
e13005d0  42 42 42 42 42 42 42 42 42 42 42 42 42 42 42 42
e13005e0  42 42 42 42 42 42 42 42 42 42 42 42 42 42 42 42
e13005f0  42 42 42 42 42 42 42 42 42 42 42 42 42 42 42 42
e1300600  42 42 42 42 42 42 42 42 42 42 42 42 42 42 42 42
e1300610  42 42 42 42 42 42 42 42 42 42 42 42 42 42 42 42
e1300620  42 42 42 42 42 42 42 42 42 42 42 42 42 42 42 42
e1300630  42 42 42 42 42 42 42 42 42 42 42 42 42 42 42 42
e1300640  42 42 42 42 42 42 42 42 42 42 42 42 42 42 42 42
e1300650  42 42 42 42 42 42 42 42 42 42 42 42 42 42 42 42
e1300660  42 42 42 42 42 42 42 42 42 42 42 42 42 42 42 42
e1300670  42 42 42 42 42 42 42 42 42 42 42 42 42 42 42 42
e1300680  42 42 42 42 42 42 42 42 42 42 42 42 42 42 42 42
e1300690  42 42 42 42 42 42 42 42 42 42 42 42 42 42 42 42
e13006a0  42 42 42 42 42 42 42 42 42 42 42 42 42 42 42 42
e13006b0  42 42 42 42 42 42 42 42 42 42 42 42 42 42 42 42
e13006c0  42 42 42 42 42 42 42 42 42 42 42 42 42 42 42 42
e13006d0  42 42 42 42 42 42 42 42 42 42 42 42 42 42 42 42
e13006e0  42 42 42 42 42 42 42 42 42 42 42 42 42 42 42 42
e13006f0  42 42 42 42 42 42 42 42 42 42 42 42 42 42 42 42
e1300700  42 42 42 42 42 42 42 42 42 42 42 42 42 42 42 42
e1300710  42 42 42 42 42 42 42 42 42 42 42 42 42 42 42 42
e1300720  42 42 42 42 42 42 42 42 42 42 42 42 42 42 42 42
e1300730  42 42 42 42 42 42 42 42 42 42 42 42 42 42 42 42
e1300740  42 42 42 42 42 42 42 42 42 42 42 42 42 42 42 42
e1300750  42 42 42 42 42 42 42 42 42 42 42 42 42 42 42 42
e1300760  42 42 42 42 42 42 42 42 42 42 42 42 42 42 42 42
e1300770  42 42 42 42 42 42 42 42 42 42 42 42 42 42 42 42
e1300780  42 42 42 42 42 42 42 42 42 42 42 42 42 42 42 42
e1300790  42 42 42 42 42 42 42 42 42 42 42 42 42 42 42 42
e13007a0  42 42 42 42 42 42 42 42 42 42 42 42 42 42 42 42
e13007b0  42 42 42 42 42 42 42 42 42 42 42 42 42 42 42 42
e13007c0  42 42 42 42 42 42 42 42 42 42 42 42 42 42 42 42
e13007d0  42 42 42 42 42 42 42 42 42 42 42 42 42 42 42 42
e13007e0  42 42 42 42 42 42 42 42 42 42 42 42 42 42 42 42
e13007f0  42 42 42 42 42 42 42 42 42 42 42 42 42 42 42 42
e1300800  42 42 42 42 42 42 42 42 42 42 42 42 42 42 42 42
e1300810  42 42 42 42 42 42 42 42 42 42 42 42 42 42 42 42
e1300820  42 42 42 42 42 42 42 42 42 42 42 42 42 42 42 42
e1300830  42 42 42 42 42 42 42 42 42 42 42 42 10 00 02 02
e1300840  00 00 00 00 07 00 00 1d 00 20 47 ca 00 00 00 20
e1300850  00 00 00 00 00 00 02 0d 00 00 00 00 00 00 00 00
e1300860  00 00 00 00 00 00 00 04 e1 30 08 d8 00 00 00 00
e1300870  00 2a cb c0 00 80 9a 24 00 20 38 60 00 80 05 44
e1300880  00 80 05 40 00 80 2c dc 00 01 00 68 00 00 00 04
e1300890  00 80 0f 00 00 00 00 00 00 00 00 00 00 80 9a 24
e13008a0  00 04 00 03 00 80 9a 24 00 04 00 01 00 04 00 05
e13008b0  00 00 00 40 00 04 00 01 e1 30 00 80 00 84 c1 38
e13008c0  00 00 00 69 ff ff ff ff 00 04 00 03 00 04 00 05
e13008d0  30 ad 00 01 e1 10 af fd 00 00 00 00 00 00 00 00
e13008e0  e1 0e 70 f4 00 00 00 00 00 00 00 00 00 00 02 0d
e13008f0  00 20 25 28 00 00 00 00 e1 30 01 08 00 80 9a 24
e1300900  e4 35 4e 40 00 80 9a 24 00 80 04 90 00 80 9a 24
e1300910  e1 0f 23 08 00 80 04 74 00 01 00 68 00 01 40 0c
e1300920  00 80 0f 00 00 00 00 04 e1 30 01 08 42 42 42 42

===============================================================================
Process: Pid = 00000011, p_com
Saved Registers
---------------

Process swapped out inside kernel. (small context)
Only PC (inside the kernel) and stack pointer shown.

  PC: 0x002047ca          SP: 0x0080a228

Stack Content
-------------

Stack size = 2064 storage units

Hex Addr  00 01 02 03 04 05 06 07 08 09 0a 0b 0c 0d 0e 0f
--------  -- -- -- -- -- -- -- -- -- -- -- -- -- -- -- --
  809b38  2a 42 42 42 42 42 42 42 42 42 42 42 42 42 42 42
  809b48  42 42 42 42 42 42 42 42 42 42 42 42 42 42 42 42
  809b58  42 42 42 42 42 42 42 42 42 42 42 42 42 42 42 42
  809b68  42 42 42 42 42 42 42 42 42 42 42 42 42 42 42 42
  809b78  42 42 42 42 42 42 42 42 42 42 42 42 42 42 42 42
  809b88  42 42 42 42 42 42 42 42 42 42 42 42 42 42 42 42
  809b98  42 42 42 42 42 42 42 42 42 42 42 42 42 42 42 42
  809ba8  42 42 42 42 42 42 42 42 42 42 42 42 42 42 42 42
  809bb8  42 42 42 42 42 42 42 42 42 42 42 42 42 42 42 42
  809bc8  42 42 42 42 42 42 42 42 42 42 42 42 42 42 42 42
  809bd8  42 42 42 42 42 42 42 42 42 42 42 42 42 42 42 42
  809be8  42 42 42 42 42 42 42 42 42 42 42 42 42 42 42 42
  809bf8  42 42 42 42 42 42 42 42 42 42 42 42 42 42 42 42
  809c08  42 42 42 42 42 42 42 42 42 42 42 42 42 42 42 42
  809c18  42 42 42 42 42 42 42 42 42 42 42 42 42 42 42 42
  809c28  42 42 42 42 42 42 42 42 42 42 42 42 42 42 42 42
  809c38  42 42 42 42 42 42 42 42 42 42 42 42 42 42 42 42
  809c48  42 42 42 42 42 42 42 42 42 42 42 42 42 42 42 42
  809c58  42 42 42 42 42 42 42 42 42 42 42 42 42 42 42 42
  809c68  42 42 42 42 42 42 42 42 42 42 42 42 42 42 42 42
  809c78  42 42 42 42 42 42 42 42 42 42 42 42 42 42 42 42
  809c88  42 42 42 42 42 42 42 42 42 42 42 42 42 42 42 42
  809c98  42 42 42 42 42 42 42 42 42 42 42 42 42 42 42 42
  809ca8  42 42 42 42 42 42 42 42 42 42 42 42 42 42 42 42
  809cb8  42 42 42 42 42 42 42 42 42 42 42 42 42 42 42 42
  809cc8  42 42 42 42 42 42 42 42 42 42 42 42 42 42 42 42
  809cd8  42 42 42 42 42 42 42 42 42 42 42 42 42 42 42 42
  809ce8  42 42 42 42 42 42 42 42 42 42 42 42 42 42 42 42
  809cf8  42 42 42 42 42 42 42 42 42 42 42 42 42 42 42 42
  809d08  42 42 42 42 42 42 42 42 42 42 42 42 42 42 42 42
  809d18  42 42 42 42 42 42 42 42 42 42 42 42 42 42 42 42
  809d28  42 42 42 42 42 42 42 42 42 42 42 42 42 42 42 42
  809d38  42 42 42 42 42 42 42 42 42 42 42 42 42 42 42 42
  809d48  42 42 42 42 42 42 42 42 42 42 42 42 42 42 42 42
  809d58  42 42 42 42 42 42 42 42 42 42 42 42 42 42 42 42
  809d68  42 42 42 42 42 42 42 42 42 42 42 42 42 42 42 42
  809d78  42 42 42 42 42 42 42 42 42 42 42 42 42 42 42 42
  809d88  42 42 42 42 42 42 42 42 42 42 42 42 42 42 42 42
  809d98  42 42 42 42 42 42 42 42 42 42 42 42 42 42 42 42
  809da8  42 42 42 42 42 42 42 42 42 42 42 42 42 42 42 42
  809db8  42 42 42 42 42 42 42 42 42 42 42 42 42 42 42 42
  809dc8  42 42 42 42 42 42 42 42 42 42 42 42 42 42 42 42
  809dd8  42 42 42 42 42 42 42 42 42 42 42 42 42 42 42 42
  809de8  42 42 42 42 42 42 42 42 42 42 42 42 42 42 42 42
  809df8  42 42 42 42 42 42 42 42 42 42 42 42 42 42 42 42
  809e08  42 42 42 42 42 42 42 42 42 42 42 42 42 42 42 42
  809e18  42 42 42 42 42 42 42 42 42 42 42 42 42 42 42 42
  809e28  42 42 42 42 42 42 42 42 42 42 42 42 42 42 42 42
  809e38  42 42 42 42 42 42 42 42 42 42 42 42 42 42 42 42
  809e48  42 42 42 42 42 42 42 42 42 42 42 42 42 42 42 42
  809e58  42 42 42 42 42 42 42 42 42 42 42 42 42 42 42 42
  809e68  42 42 42 42 42 42 42 42 42 42 42 42 42 42 42 42
  809e78  42 42 42 42 42 42 42 42 42 42 42 42 42 42 42 42
  809e88  42 42 42 42 42 42 42 42 42 42 42 42 42 42 42 42
  809e98  42 42 42 42 42 42 42 42 42 42 42 42 42 42 42 42
  809ea8  42 42 42 42 42 42 42 42 42 42 42 42 42 42 42 42
  809eb8  42 42 42 42 42 42 42 42 42 42 42 42 42 42 42 42
  809ec8  42 42 42 42 42 42 42 42 42 42 42 42 42 42 42 42
  809ed8  42 42 42 42 42 42 42 42 42 42 42 42 42 42 42 42
  809ee8  42 42 42 42 42 42 42 42 42 42 42 42 42 42 42 42
  809ef8  42 42 42 42 42 42 42 42 42 42 42 42 42 42 42 42
  809f08  42 42 42 42 42 42 42 42 42 42 42 42 42 42 42 42
  809f18  42 42 42 42 42 42 42 42 42 42 42 42 42 42 42 42
  809f28  42 42 42 42 42 42 42 42 42 42 42 42 42 42 42 42
  809f38  42 42 42 42 42 42 42 42 42 42 42 42 42 42 42 42
  809f48  42 42 42 42 42 42 42 42 42 42 42 42 42 42 42 42
  809f58  42 42 42 42 42 42 42 42 42 42 42 42 42 42 42 42
  809f68  42 42 42 42 42 42 42 42 42 42 42 42 42 42 42 42
  809f78  42 42 42 42 42 42 42 42 42 42 42 42 42 42 42 42
  809f88  42 42 42 42 42 42 42 42 42 42 42 42 42 42 42 42
  809f98  42 42 42 42 42 42 42 42 42 42 42 42 42 42 42 42
  809fa8  42 42 42 42 42 42 42 42 42 42 42 42 42 42 42 42
  809fb8  42 42 42 42 42 42 42 42 42 42 42 42 42 42 42 42
  809fc8  42 42 42 42 42 42 42 42 42 42 42 42 42 42 42 42
  809fd8  42 42 42 42 42 42 42 42 42 42 42 42 42 42 42 42
  809fe8  42 42 42 42 42 42 42 42 42 42 42 42 42 42 42 42
  809ff8  42 42 42 42 42 42 42 42 42 42 42 42 42 42 42 42
  80a008  42 42 42 42 42 42 42 42 42 42 42 42 42 42 42 42
  80a018  42 42 42 42 42 42 42 42 42 42 42 42 42 42 42 42
  80a028  42 42 42 42 42 42 42 42 42 42 42 42 42 42 42 42
  80a038  42 42 42 42 42 42 42 42 42 42 42 42 42 42 42 42
  80a048  42 42 42 42 42 42 42 42 42 42 42 42 42 42 42 42
  80a058  42 42 42 42 42 42 42 42 42 42 42 42 42 42 42 42
  80a068  42 42 42 42 42 42 42 42 42 42 42 42 42 42 42 42
  80a078  42 42 42 42 42 42 42 42 42 42 42 42 42 42 42 42
  80a088  42 42 42 42 42 42 42 42 42 42 42 42 42 42 42 42
  80a098  42 42 42 42 42 42 42 42 42 42 42 42 42 42 42 42
  80a0a8  42 42 42 42 42 42 42 42 42 42 42 42 42 42 42 42
  80a0b8  42 42 42 42 42 42 42 42 42 42 42 42 42 42 42 42
  80a0c8  42 42 42 42 42 42 42 42 42 42 42 42 42 42 42 42
  80a0d8  42 42 42 42 42 42 42 42 42 42 42 42 42 42 42 42
  80a0e8  42 42 42 42 42 42 42 42 42 42 42 42 42 42 42 42
  80a0f8  42 42 42 42 42 42 42 42 42 42 42 42 42 42 42 42
  80a108  42 42 42 42 42 42 42 42 42 42 42 42 42 42 42 42
  80a118  42 42 42 42 42 42 42 42 42 42 42 42 42 42 42 42
  80a128  42 42 42 42 42 42 42 42 42 42 42 42 42 42 42 42
  80a138  42 42 42 42 42 42 42 42 42 42 42 42 42 42 42 42
  80a148  42 42 42 42 42 42 42 42 42 42 42 42 42 42 42 42
  80a158  42 42 42 42 42 42 42 42 42 42 42 42 42 42 42 42
  80a168  42 42 42 42 42 42 42 42 42 42 42 42 42 42 42 42
  80a178  42 42 42 42 42 42 42 42 42 42 42 42 42 42 42 42
  80a188  42 42 42 42 42 42 42 42 42 42 42 42 42 42 42 42
  80a198  42 42 42 42 42 42 42 42 42 42 42 42 42 42 42 42
  80a1a8  42 42 42 42 00 80 a1 d0 e1 0e 6a 20 00 00 00 00
  80a1b8  00 00 00 00 00 00 00 00 00 00 01 3b 00 00 00 11
  80a1c8  00 80 a2 14 ff ff ff ff 00 00 00 00 00 00 01 3b
  80a1d8  00 80 a2 40 00 00 00 00 e1 0e 6c 88 00 00 00 00
  80a1e8  00 2a a8 d2 00 84 a4 4c 00 84 a4 68 ff ff ff ff
  80a1f8  00 84 a4 4a ff ff ff ff 00 2a a6 2c 00 80 a2 3c
  80a208  00 80 a2 20 00 01 40 0c 00 80 0f 00 00 80 a2 28
  80a218  00 00 40 80 00 00 40 80 00 01 00 68 00 2b ca f0
  80a228  00 00 00 cc 00 00 00 08 00 00 00 01 10 00 02 02
  80a238  00 00 00 00 07 00 00 1d 00 20 47 ca 00 00 00 20
  80a248  00 00 00 00 00 00 02 0d 00 00 00 00 00 00 00 00
  80a258  00 00 00 00 00 00 00 04 00 80 a2 d0 00 00 00 00
  80a268  00 2a cb c0 00 80 9a c4 00 20 38 60 00 80 05 44
  80a278  00 80 05 40 00 80 2c dc 00 01 00 68 00 00 00 04
  80a288  00 80 0f 00 00 84 a3 4c 00 00 00 00 00 80 9a c4
  80a298  30 b8 00 14 00 80 9a c4 80 b8 00 15 00 80 9a c4
  80a2a8  00 0e 00 02 00 80 04 74 00 84 a3 40 ff ff ff ff
  80a2b8  00 80 04 90 00 00 de ad 30 b8 00 14 00 80 9a c4
  80a2c8  30 b8 00 01 00 2b cb 77 00 00 00 00 00 00 00 00
  80a2d8  00 2a bb 64 00 00 00 00 42 42 42 42 42 42 42 42
  80a2e8  42 42 42 42 10 00 02 03 00 00 00 00 07 00 00 1d
  80a2f8  00 20 24 e0 00 00 00 20 00 00 00 00 00 00 02 0d
  80a308  00 20 25 28 00 00 00 00 00 80 9b 20 00 80 9a c4
  80a318  e4 35 4e 58 00 80 9a c4 00 80 04 90 00 80 9a c4
  80a328  e1 0f 23 08 00 80 04 74 00 01 00 68 00 01 40 0c
  80a338  00 80 0f 00 00 00 00 04 00 80 9b 20 42 42 42 42

===============================================================================
Process: Pid = 00000012, p_blink
Saved Registers
---------------

Process swapped out inside kernel. (small context)
Only PC (inside the kernel) and stack pointer shown.

  PC: 0x002047ca          SP: 0xe1301cf0

Stack Content
-------------

Stack size = 2064 storage units

Hex Addr  00 01 02 03 04 05 06 07 08 09 0a 0b 0c 0d 0e 0f
--------  -- -- -- -- -- -- -- -- -- -- -- -- -- -- -- --
e13015e8  2a 42 42 42 42 42 42 42 42 42 42 42 42 42 42 42
e13015f8  42 42 42 42 42 42 42 42 42 42 42 42 42 42 42 42
e1301608  42 42 42 42 42 42 42 42 42 42 42 42 42 42 42 42
e1301618  42 42 42 42 42 42 42 42 42 42 42 42 42 42 42 42
e1301628  42 42 42 42 42 42 42 42 42 42 42 42 42 42 42 42
e1301638  42 42 42 42 42 42 42 42 42 42 42 42 42 42 42 42
e1301648  42 42 42 42 42 42 42 42 42 42 42 42 42 42 42 42
e1301658  42 42 42 42 42 42 42 42 42 42 42 42 42 42 42 42
e1301668  42 42 42 42 42 42 42 42 42 42 42 42 42 42 42 42
e1301678  42 42 42 42 42 42 42 42 42 42 42 42 42 42 42 42
e1301688  42 42 42 42 42 42 42 42 42 42 42 42 42 42 42 42
e1301698  42 42 42 42 42 42 42 42 42 42 42 42 42 42 42 42
e13016a8  42 42 42 42 42 42 42 42 42 42 42 42 42 42 42 42
e13016b8  42 42 42 42 42 42 42 42 42 42 42 42 42 42 42 42
e13016c8  42 42 42 42 42 42 42 42 42 42 42 42 42 42 42 42
e13016d8  42 42 42 42 42 42 42 42 42 42 42 42 42 42 42 42
e13016e8  42 42 42 42 42 42 42 42 42 42 42 42 42 42 42 42
e13016f8  42 42 42 42 42 42 42 42 42 42 42 42 42 42 42 42
e1301708  42 42 42 42 42 42 42 42 42 42 42 42 42 42 42 42
e1301718  42 42 42 42 42 42 42 42 42 42 42 42 42 42 42 42
e1301728  42 42 42 42 42 42 42 42 42 42 42 42 42 42 42 42
e1301738  42 42 42 42 42 42 42 42 42 42 42 42 42 42 42 42
e1301748  42 42 42 42 42 42 42 42 42 42 42 42 42 42 42 42
e1301758  42 42 42 42 42 42 42 42 42 42 42 42 42 42 42 42
e1301768  42 42 42 42 42 42 42 42 42 42 42 42 42 42 42 42
e1301778  42 42 42 42 42 42 42 42 42 42 42 42 42 42 42 42
e1301788  42 42 42 42 42 42 42 42 42 42 42 42 42 42 42 42
e1301798  42 42 42 42 42 42 42 42 42 42 42 42 42 42 42 42
e13017a8  42 42 42 42 42 42 42 42 42 42 42 42 42 42 42 42
e13017b8  42 42 42 42 42 42 42 42 42 42 42 42 42 42 42 42
e13017c8  42 42 42 42 42 42 42 42 42 42 42 42 42 42 42 42
e13017d8  42 42 42 42 42 42 42 42 42 42 42 42 42 42 42 42
e13017e8  42 42 42 42 42 42 42 42 42 42 42 42 42 42 42 42
e13017f8  42 42 42 42 42 42 42 42 42 42 42 42 42 42 42 42
e1301808  42 42 42 42 42 42 42 42 42 42 42 42 42 42 42 42
e1301818  42 42 42 42 42 42 42 42 42 42 42 42 42 42 42 42
e1301828  42 42 42 42 42 42 42 42 42 42 42 42 42 42 42 42
e1301838  42 42 42 42 42 42 42 42 42 42 42 42 42 42 42 42
e1301848  42 42 42 42 42 42 42 42 42 42 42 42 42 42 42 42
e1301858  42 42 42 42 42 42 42 42 42 42 42 42 42 42 42 42
e1301868  42 42 42 42 42 42 42 42 42 42 42 42 42 42 42 42
e1301878  42 42 42 42 42 42 42 42 42 42 42 42 42 42 42 42
e1301888  42 42 42 42 42 42 42 42 42 42 42 42 42 42 42 42
e1301898  42 42 42 42 42 42 42 42 42 42 42 42 42 42 42 42
e13018a8  42 42 42 42 42 42 42 42 42 42 42 42 42 42 42 42
e13018b8  42 42 42 42 42 42 42 42 42 42 42 42 42 42 42 42
e13018c8  42 42 42 42 42 42 42 42 42 42 42 42 42 42 42 42
e13018d8  42 42 42 42 42 42 42 42 42 42 42 42 42 42 42 42
e13018e8  42 42 42 42 42 42 42 42 42 42 42 42 42 42 42 42
e13018f8  42 42 42 42 42 42 42 42 42 42 42 42 42 42 42 42
e1301908  42 42 42 42 42 42 42 42 42 42 42 42 42 42 42 42
e1301918  42 42 42 42 42 42 42 42 42 42 42 42 42 42 42 42
e1301928  42 42 42 42 42 42 42 42 42 42 42 42 42 42 42 42
e1301938  42 42 42 42 42 42 42 42 42 42 42 42 42 42 42 42
e1301948  42 42 42 42 42 42 42 42 42 42 42 42 42 42 42 42
e1301958  42 42 42 42 42 42 42 42 42 42 42 42 42 42 42 42
e1301968  42 42 42 42 42 42 42 42 42 42 42 42 42 42 42 42
e1301978  42 42 42 42 42 42 42 42 42 42 42 42 42 42 42 42
e1301988  42 42 42 42 42 42 42 42 42 42 42 42 42 42 42 42
e1301998  42 42 42 42 42 42 42 42 42 42 42 42 42 42 42 42
e13019a8  42 42 42 42 42 42 42 42 42 42 42 42 42 42 42 42
e13019b8  42 42 42 42 42 42 42 42 42 42 42 42 42 42 42 42
e13019c8  42 42 42 42 42 42 42 42 42 42 42 42 42 42 42 42
e13019d8  42 42 42 42 42 42 42 42 42 42 42 42 42 42 42 42
e13019e8  42 42 42 42 42 42 42 42 42 42 42 42 42 42 42 42
e13019f8  42 42 42 42 42 42 42 42 42 42 42 42 42 42 42 42
e1301a08  42 42 42 42 42 42 42 42 42 42 42 42 42 42 42 42
e1301a18  42 42 42 42 42 42 42 42 42 42 42 42 42 42 42 42
e1301a28  42 42 42 42 42 42 42 42 42 42 42 42 42 42 42 42
e1301a38  42 42 42 42 42 42 42 42 42 42 42 42 42 42 42 42
e1301a48  42 42 42 42 42 42 42 42 42 42 42 42 42 42 42 42
e1301a58  42 42 42 42 42 42 42 42 42 42 42 42 42 42 42 42
e1301a68  42 42 42 42 42 42 42 42 42 42 42 42 42 42 42 42
e1301a78  42 42 42 42 42 42 42 42 42 42 42 42 42 42 42 42
e1301a88  42 42 42 42 42 42 42 42 42 42 42 42 42 42 42 42
e1301a98  42 42 42 42 42 42 42 42 42 42 42 42 42 42 42 42
e1301aa8  42 42 42 42 42 42 42 42 42 42 42 42 42 42 42 42
e1301ab8  42 42 42 42 42 42 42 42 42 42 42 42 42 42 42 42
e1301ac8  42 42 42 42 42 42 42 42 42 42 42 42 42 42 42 42
e1301ad8  42 42 42 42 42 42 42 42 42 42 42 42 42 42 42 42
e1301ae8  42 42 42 42 42 42 42 42 42 42 42 42 42 42 42 42
e1301af8  42 42 42 42 42 42 42 42 42 42 42 42 42 42 42 42
e1301b08  42 42 42 42 42 42 42 42 42 42 42 42 42 42 42 42
e1301b18  42 42 42 42 42 42 42 42 42 42 42 42 42 42 42 42
e1301b28  42 42 42 42 42 42 42 42 42 42 42 42 42 42 42 42
e1301b38  42 42 42 42 42 42 42 42 42 42 42 42 42 42 42 42
e1301b48  42 42 42 42 42 42 42 42 42 42 42 42 42 42 42 42
e1301b58  42 42 42 42 42 42 42 42 42 42 42 42 42 42 42 42
e1301b68  42 42 42 42 42 42 42 42 42 42 42 42 42 42 42 42
e1301b78  42 42 42 42 42 42 42 42 42 42 42 42 42 42 42 42
e1301b88  42 42 42 42 42 42 42 42 42 42 42 42 42 42 42 42
e1301b98  42 42 42 42 42 42 42 42 42 42 42 42 42 42 42 42
e1301ba8  42 42 42 42 42 42 42 42 42 42 42 42 42 42 42 42
e1301bb8  42 42 42 42 42 42 42 42 42 42 42 42 42 42 42 42
e1301bc8  42 42 42 42 42 42 42 42 42 42 42 42 42 42 42 42
e1301bd8  42 42 42 42 42 42 42 42 42 42 42 42 42 42 42 42
e1301be8  42 42 42 42 42 42 42 42 42 42 42 42 42 42 42 42
e1301bf8  42 42 42 42 42 42 42 42 42 42 42 42 42 42 42 42
e1301c08  42 42 42 42 42 42 42 42 42 42 42 42 42 42 42 42
e1301c18  42 42 42 42 42 42 42 42 42 42 42 42 42 42 42 42
e1301c28  42 42 42 42 42 42 42 42 42 42 42 42 42 42 42 42
e1301c38  42 42 42 42 42 42 42 42 42 42 42 42 42 42 42 42
e1301c48  42 42 42 42 42 42 42 42 42 42 42 42 42 42 42 42
e1301c58  42 42 42 42 42 42 42 42 42 42 42 42 42 42 42 42
e1301c68  42 42 42 42 42 42 42 42 42 42 42 42 42 42 42 42
e1301c78  42 42 42 42 42 42 42 42 42 42 42 42 42 42 42 42
e1301c88  42 42 42 42 42 42 42 42 42 42 42 42 42 42 42 42
e1301c98  42 42 42 42 42 42 42 42 42 42 42 42 42 42 42 42
e1301ca8  42 42 42 42 42 42 42 42 42 42 42 42 42 42 42 42
e1301cb8  42 42 42 42 42 42 42 42 42 42 42 42 42 42 42 42
e1301cc8  42 42 42 42 42 42 42 42 42 42 42 42 42 42 42 42
e1301cd8  42 42 42 42 10 00 02 02 00 00 00 00 07 00 00 1d
e1301ce8  00 20 47 ca 00 00 00 20 00 00 00 00 00 00 02 0d
e1301cf8  00 00 00 00 10 00 02 02 00 00 00 00 07 00 00 1d
e1301d08  00 20 47 ca 00 00 00 20 00 00 00 00 00 00 02 0d
e1301d18  00 00 00 00 00 00 00 00 00 00 00 00 00 00 00 15
e1301d28  e1 30 1d 98 00 00 00 00 00 2a cb c0 00 80 a3 8c
e1301d38  00 20 38 60 00 80 05 44 00 80 05 40 00 80 b5 fc
e1301d48  00 01 00 68 00 00 00 04 00 80 0f 00 ef 6d 02 00
e1301d58  00 00 00 00 00 80 a3 8c e4 35 4e 40 00 80 a3 8c
e1301d68  00 80 04 74 00 80 a3 8c 00 00 00 00 00 80 04 74
e1301d78  00 00 00 00 00 00 00 00 00 00 00 00 00 00 00 00
e1301d88  e4 35 4e 40 00 00 00 01 e1 0f 23 08 00 80 a3 8c
e1301d98  00 00 00 00 00 80 a3 8c e1 0e 65 18 07 00 00 1d
e1301da8  00 20 24 e0 00 00 00 00 00 00 00 00 00 00 02 0d
e1301db8  00 20 25 28 ef 6d 02 00 e1 30 15 d0 00 80 a3 8c
e1301dc8  e4 35 4e 40 00 80 a3 8c 00 80 04 90 00 80 a3 8c
e1301dd8  e1 0f 23 08 00 80 04 74 00 01 00 68 00 01 40 0c
e1301de8  00 80 0f 00 00 00 00 04 e1 30 15 d0 42 42 42 42

===============================================================================
Process: Pid = 00000013, p_office
Saved Registers
---------------

Process swapped out inside kernel. (small context)
Only PC (inside the kernel) and stack pointer shown.

  PC: 0x002047ca          SP: 0x0080abe0

Stack Content
-------------

Stack size = 2064 storage units

Hex Addr  00 01 02 03 04 05 06 07 08 09 0a 0b 0c 0d 0e 0f
--------  -- -- -- -- -- -- -- -- -- -- -- -- -- -- -- --
  80a4e0  2a 42 42 42 42 42 42 42 42 42 42 42 42 42 42 42
  80a4f0  42 42 42 42 42 42 42 42 42 42 42 42 42 42 42 42
  80a500  42 42 42 42 42 42 42 42 42 42 42 42 42 42 42 42
  80a510  42 42 42 42 42 42 42 42 42 42 42 42 42 42 42 42
  80a520  42 42 42 42 42 42 42 42 42 42 42 42 42 42 42 42
  80a530  42 42 42 42 42 42 42 42 42 42 42 42 42 42 42 42
  80a540  42 42 42 42 42 42 42 42 42 42 42 42 42 42 42 42
  80a550  42 42 42 42 42 42 42 42 42 42 42 42 42 42 42 42
  80a560  42 42 42 42 42 42 42 42 42 42 42 42 42 42 42 42
  80a570  42 42 42 42 42 42 42 42 42 42 42 42 42 42 42 42
  80a580  42 42 42 42 42 42 42 42 42 42 42 42 42 42 42 42
  80a590  42 42 42 42 42 42 42 42 42 42 42 42 42 42 42 42
  80a5a0  42 42 42 42 42 42 42 42 42 42 42 42 42 42 42 42
  80a5b0  42 42 42 42 42 42 42 42 42 42 42 42 42 42 42 42
  80a5c0  42 42 42 42 42 42 42 42 42 42 42 42 42 42 42 42
  80a5d0  42 42 42 42 42 42 42 42 42 42 42 42 42 42 42 42
  80a5e0  42 42 42 42 42 42 42 42 42 42 42 42 42 42 42 42
  80a5f0  42 42 42 42 42 42 42 42 42 42 42 42 42 42 42 42
  80a600  42 42 42 42 42 42 42 42 42 42 42 42 42 42 42 42
  80a610  42 42 42 42 42 42 42 42 42 42 42 42 42 42 42 42
  80a620  42 42 42 42 42 42 42 42 42 42 42 42 42 42 42 42
  80a630  42 42 42 42 42 42 42 42 42 42 42 42 42 42 42 42
  80a640  42 42 42 42 42 42 42 42 42 42 42 42 42 42 42 42
  80a650  42 42 42 42 42 42 42 42 42 42 42 42 42 42 42 42
  80a660  42 42 42 42 42 42 42 42 42 42 42 42 42 42 42 42
  80a670  42 42 42 42 42 42 42 42 42 42 42 42 42 42 42 42
  80a680  42 42 42 42 42 42 42 42 42 42 42 42 42 42 42 42
  80a690  42 42 42 42 42 42 42 42 42 42 42 42 42 42 42 42
  80a6a0  42 42 42 42 42 42 42 42 42 42 42 42 42 42 42 42
  80a6b0  42 42 42 42 42 42 42 42 42 42 42 42 42 42 42 42
  80a6c0  42 42 42 42 42 42 42 42 42 42 42 42 42 42 42 42
  80a6d0  42 42 42 42 42 42 42 42 42 42 42 42 42 42 42 42
  80a6e0  42 42 42 42 42 42 42 42 42 42 42 42 42 42 42 42
  80a6f0  42 42 42 42 42 42 42 42 42 42 42 42 42 42 42 42
  80a700  42 42 42 42 42 42 42 42 42 42 42 42 42 42 42 42
  80a710  42 42 42 42 42 42 42 42 42 42 42 42 42 42 42 42
  80a720  42 42 42 42 42 42 42 42 42 42 42 42 42 42 42 42
  80a730  42 42 42 42 42 42 42 42 42 42 42 42 42 42 42 42
  80a740  42 42 42 42 42 42 42 42 42 42 42 42 42 42 42 42
  80a750  42 42 42 42 42 42 42 42 42 42 42 42 42 42 42 42
  80a760  42 42 42 42 42 42 42 42 42 42 42 42 42 42 42 42
  80a770  42 42 42 42 42 42 42 42 42 42 42 42 42 42 42 42
  80a780  42 42 42 42 42 42 42 42 42 42 42 42 42 42 42 42
  80a790  42 42 42 42 42 42 42 42 42 42 42 42 42 42 42 42
  80a7a0  42 42 42 42 42 42 42 42 42 42 42 42 42 42 42 42
  80a7b0  42 42 42 42 42 42 42 42 42 42 42 42 42 42 42 42
  80a7c0  42 42 42 42 42 42 42 42 42 42 42 42 42 42 42 42
  80a7d0  42 42 42 42 42 42 42 42 42 42 42 42 42 42 42 42
  80a7e0  42 42 42 42 42 42 42 42 42 42 42 42 42 42 42 42
  80a7f0  42 42 42 42 42 42 42 42 42 42 42 42 42 42 42 42
  80a800  42 42 42 42 42 42 42 42 42 42 42 42 42 42 42 42
  80a810  42 42 42 42 42 42 42 42 42 42 42 42 42 42 42 42
  80a820  42 42 42 42 42 42 42 42 42 42 42 42 42 42 42 42
  80a830  42 42 42 42 42 42 42 42 42 42 42 42 42 42 42 42
  80a840  42 42 42 42 42 42 42 42 42 42 42 42 42 42 42 42
  80a850  42 42 42 42 42 42 42 42 42 42 42 42 42 42 42 42
  80a860  42 42 42 42 42 42 42 42 42 42 42 42 42 42 42 42
  80a870  42 42 42 42 42 42 42 42 42 42 42 42 42 42 42 42
  80a880  42 42 42 42 42 42 42 42 42 42 42 42 42 42 42 42
  80a890  42 42 42 42 42 42 42 42 42 42 42 42 42 42 42 42
  80a8a0  42 42 42 42 42 42 42 42 42 42 42 42 42 42 42 42
  80a8b0  42 42 42 42 42 42 42 42 42 42 42 42 42 42 42 42
  80a8c0  42 42 42 42 42 42 42 42 42 42 42 42 42 42 42 42
  80a8d0  42 42 42 42 42 42 42 42 42 42 42 42 42 42 42 42
  80a8e0  42 42 42 42 42 42 42 42 42 42 42 42 42 42 42 42
  80a8f0  42 42 42 42 42 42 42 42 42 42 42 42 42 42 42 42
  80a900  42 42 42 42 42 42 42 42 42 42 42 42 42 42 42 42
  80a910  42 42 42 42 42 42 42 42 42 42 42 42 42 42 42 42
  80a920  42 42 42 42 42 42 42 42 42 42 42 42 42 42 42 42
  80a930  42 42 42 42 42 42 42 42 42 42 42 42 42 42 42 42
  80a940  42 42 42 42 42 42 42 42 42 42 42 42 42 42 42 42
  80a950  42 42 42 42 42 42 42 42 42 42 42 42 42 42 42 42
  80a960  42 42 42 42 42 42 42 42 42 42 42 42 42 42 42 42
  80a970  42 42 42 42 42 42 42 42 42 42 42 42 42 42 42 42
  80a980  42 42 42 42 42 42 42 42 42 42 42 42 42 42 42 42
  80a990  42 42 42 42 42 42 42 42 42 42 42 42 42 42 42 42
  80a9a0  42 42 42 42 42 42 42 42 42 42 42 42 42 42 42 42
  80a9b0  42 42 42 42 42 42 42 42 42 42 42 42 42 42 42 42
  80a9c0  42 42 42 42 42 42 42 42 42 42 42 42 42 42 42 42
  80a9d0  42 42 42 42 42 42 42 42 42 42 42 42 42 42 42 42
  80a9e0  42 42 42 42 42 42 42 42 42 42 42 42 42 42 42 42
  80a9f0  42 42 42 42 42 42 42 42 42 42 42 42 42 42 42 42
  80aa00  42 42 42 42 42 42 42 42 42 42 42 42 42 42 42 42
  80aa10  42 42 42 42 42 42 42 42 42 42 42 42 42 42 42 42
  80aa20  42 42 42 42 42 42 42 42 42 42 42 42 42 42 42 42
  80aa30  42 42 42 42 42 42 42 42 42 42 42 42 42 42 42 42
  80aa40  42 42 42 42 42 42 42 42 42 42 42 42 42 42 42 42
  80aa50  42 42 42 42 42 42 42 42 42 42 42 42 42 42 42 42
  80aa60  42 42 42 42 42 42 42 42 42 42 42 42 42 42 42 42
  80aa70  42 42 42 42 42 42 42 42 42 42 42 42 42 42 42 42
  80aa80  42 42 42 42 42 42 42 42 42 42 42 42 42 42 42 42
  80aa90  42 42 42 42 42 42 42 42 42 42 42 42 42 42 42 42
  80aaa0  42 42 42 42 42 42 42 42 42 42 42 42 42 42 42 42
  80aab0  42 42 42 42 42 42 42 42 42 42 42 42 42 42 42 42
  80aac0  42 42 42 42 42 42 42 42 42 42 42 42 42 42 42 42
  80aad0  42 42 42 42 42 42 42 42 00 84 27 d4 00 80 7b f0
  80aae0  00 20 73 c4 42 42 42 42 00 20 97 16 00 80 0b 60
  80aaf0  00 20 a4 c4 10 00 02 02 00 80 7b f0 00 80 0b 60
  80ab00  e4 35 c0 f0 00 00 00 20 00 80 45 30 00 80 2f 18
  80ab10  00 84 27 d4 00 80 7b f0 00 20 73 c4 e4 35 c0 f0
  80ab20  00 20 97 16 00 80 0b 60 00 20 a4 c4 10 00 02 02
  80ab30  00 80 7b f0 00 80 0b 60 e4 35 d5 10 00 00 00 9a
  80ab40  00 80 45 30 00 80 2f 18 20 1d 30 9c 00 00 01 11
  80ab50  e1 0f 0c 44 e4 35 d5 10 00 00 00 03 00 80 5f a0
  80ab60  00 80 7c b8 00 00 00 20 00 00 01 11 00 80 46 70
  80ab70  e1 0e d7 58 00 00 01 37 00 00 00 00 00 00 00 14
  80ab80  00 00 00 03 00 00 00 01 00 00 01 11 00 00 00 00
  80ab90  00 00 00 94 00 00 00 01 00 00 00 00 00 00 00 01
  80aba0  00 00 7f ff 00 00 00 03 00 00 10 00 00 00 00 90
  80abb0  e1 0e 92 7c 00 00 00 00 e4 35 a2 10 00 80 ac 18
  80abc0  00 00 00 03 00 00 00 13 e1 31 f9 78 00 80 82 94
  80abd0  00 20 1d 28 30 9a 00 03 e4 35 a2 e8 00 80 ac 18
  80abe0  e4 35 70 38 e1 31 f9 98 00 00 02 0f 10 00 02 02
  80abf0  00 00 00 00 07 00 00 1d 00 20 47 ca 00 00 00 20
  80ac00  00 00 00 00 00 00 02 0f 00 00 00 00 00 00 00 00
  80ac10  00 00 00 00 00 00 00 06 00 80 ac 88 00 00 00 00
  80ac20  00 2a cb c0 00 80 a4 6c 00 20 38 60 00 80 05 44
  80ac30  00 80 05 40 00 80 2d bc 00 01 00 68 00 00 00 04
  80ac40  00 80 0f 00 00 84 c0 e4 00 00 00 00 00 80 a4 6c
  80ac50  00 00 ff ff 00 80 a4 6c 30 9a 00 03 00 80 ac 7c
  80ac60  00 00 70 08 00 00 00 00 00 00 00 19 00 00 02 0b
  80ac70  00 00 70 06 00 00 70 04 00 00 ff ff e1 31 f9 98
  80ac80  ff ff ff ff 30 9a 00 03 00 00 00 00 00 00 02 0b
  80ac90  e1 0d f4 9c e1 10 aa 92 00 00 00 43 00 00 00 00
  80aca0  00 20 24 e0 00 00 00 00 e1 31 f9 98 00 00 02 0d
  80acb0  00 20 25 28 00 00 00 00 00 80 a4 c8 00 80 a4 6c
  80acc0  e4 35 4e 58 00 80 a4 6c 00 80 04 90 00 80 a4 6c
  80acd0  e1 0f 23 08 00 80 04 74 00 01 00 68 00 01 40 0c
  80ace0  00 80 0f 00 00 00 00 04 00 80 a4 c8 42 42 42 42

===============================================================================
Process: Pid = 00000014, p_dmx
Saved Registers
---------------

Process swapped out inside kernel. (small context)
Only PC (inside the kernel) and stack pointer shown.

  PC: 0x002047ca          SP: 0x0080b4f0

Stack Content
-------------

Stack size = 2064 storage units

Hex Addr  00 01 02 03 04 05 06 07 08 09 0a 0b 0c 0d 0e 0f
--------  -- -- -- -- -- -- -- -- -- -- -- -- -- -- -- --
  80ada8  2a 42 42 42 42 42 42 42 42 42 42 42 42 42 42 42
  80adb8  42 42 42 42 42 42 42 42 42 42 42 42 42 42 42 42
  80adc8  42 42 42 42 42 42 42 42 42 42 42 42 42 42 42 42
  80add8  42 42 42 42 42 42 42 42 42 42 42 42 42 42 42 42
  80ade8  42 42 42 42 42 42 42 42 42 42 42 42 42 42 42 42
  80adf8  42 42 42 42 42 42 42 42 42 42 42 42 42 42 42 42
  80ae08  42 42 42 42 42 42 42 42 42 42 42 42 42 42 42 42
  80ae18  42 42 42 42 42 42 42 42 42 42 42 42 42 42 42 42
  80ae28  42 42 42 42 42 42 42 42 42 42 42 42 42 42 42 42
  80ae38  42 42 42 42 42 42 42 42 42 42 42 42 42 42 42 42
  80ae48  42 42 42 42 42 42 42 42 42 42 42 42 42 42 42 42
  80ae58  42 42 42 42 42 42 42 42 42 42 42 42 42 42 42 42
  80ae68  42 42 42 42 42 42 42 42 42 42 42 42 42 42 42 42
  80ae78  42 42 42 42 42 42 42 42 42 42 42 42 42 42 42 42
  80ae88  42 42 42 42 42 42 42 42 42 42 42 42 42 42 42 42
  80ae98  42 42 42 42 42 42 42 42 42 42 42 42 42 42 42 42
  80aea8  42 42 42 42 42 42 42 42 42 42 42 42 42 42 42 42
  80aeb8  42 42 42 42 42 42 42 42 42 42 42 42 42 42 42 42
  80aec8  42 42 42 42 42 42 42 42 42 42 42 42 42 42 42 42
  80aed8  42 42 42 42 42 42 42 42 42 42 42 42 42 42 42 42
  80aee8  42 42 42 42 42 42 42 42 42 42 42 42 42 42 42 42
  80aef8  42 42 42 42 42 42 42 42 42 42 42 42 42 42 42 42
  80af08  42 42 42 42 42 42 42 42 42 42 42 42 42 42 42 42
  80af18  42 42 42 42 42 42 42 42 42 42 42 42 42 42 42 42
  80af28  42 42 42 42 42 42 42 42 42 42 42 42 42 42 42 42
  80af38  42 42 42 42 42 42 42 42 42 42 42 42 42 42 42 42
  80af48  42 42 42 42 42 42 42 42 42 42 42 42 42 42 42 42
  80af58  42 42 42 42 42 42 42 42 42 42 42 42 42 42 42 42
  80af68  42 42 42 42 42 42 42 42 42 42 42 42 42 42 42 42
  80af78  42 42 42 42 42 42 42 42 42 42 42 42 42 42 42 42
  80af88  42 42 42 42 42 42 42 42 42 42 42 42 42 42 42 42
  80af98  42 42 42 42 42 42 42 42 42 42 42 42 42 42 42 42
  80afa8  42 42 42 42 42 42 42 42 42 42 42 42 42 42 42 42
  80afb8  42 42 42 42 42 42 42 42 42 42 42 42 42 42 42 42
  80afc8  42 42 42 42 42 42 42 42 42 42 42 42 42 42 42 42
  80afd8  42 42 42 42 42 42 42 42 42 42 42 42 42 42 42 42
  80afe8  42 42 42 42 42 42 42 42 42 42 42 42 42 42 42 42
  80aff8  42 42 42 42 42 42 42 42 42 42 42 42 42 42 42 42
  80b008  42 42 42 42 42 42 42 42 42 42 42 42 42 42 42 42
  80b018  42 42 42 42 42 42 42 42 42 42 42 42 42 42 42 42
  80b028  42 42 42 42 42 42 42 42 42 42 42 42 42 42 42 42
  80b038  42 42 42 42 42 42 42 42 42 42 42 42 42 42 42 42
  80b048  42 42 42 42 42 42 42 42 42 42 42 42 42 42 42 42
  80b058  42 42 42 42 42 42 42 42 42 42 42 42 42 42 42 42
  80b068  42 42 42 42 42 42 42 42 42 42 42 42 42 42 42 42
  80b078  42 42 42 42 42 42 42 42 42 42 42 42 42 42 42 42
  80b088  42 42 42 42 42 42 42 42 42 42 42 42 42 42 42 42
  80b098  42 42 42 42 42 42 42 42 42 42 42 42 42 42 42 42
  80b0a8  42 42 42 42 42 42 42 42 42 42 42 42 42 42 42 42
  80b0b8  42 42 42 42 42 42 42 42 42 42 42 42 42 42 42 42
  80b0c8  42 42 42 42 42 42 42 42 42 42 42 42 42 42 42 42
  80b0d8  42 42 42 42 42 42 42 42 42 42 42 42 42 42 42 42
  80b0e8  42 42 42 42 42 42 42 42 42 42 42 42 42 42 42 42
  80b0f8  42 42 42 42 42 42 42 42 42 42 42 42 42 42 42 42
  80b108  42 42 42 42 42 42 42 42 42 42 42 42 42 42 42 42
  80b118  42 42 42 42 42 42 42 42 42 42 42 42 42 42 42 42
  80b128  42 42 42 42 42 42 42 42 42 42 42 42 42 42 42 42
  80b138  42 42 42 42 42 42 42 42 42 42 42 42 42 42 42 42
  80b148  42 42 42 42 42 42 42 42 42 42 42 42 42 42 42 42
  80b158  42 42 42 42 42 42 42 42 42 42 42 42 42 42 42 42
  80b168  42 42 42 42 42 42 42 42 42 42 42 42 42 42 42 42
  80b178  42 42 42 42 42 42 42 42 42 42 42 42 42 42 42 42
  80b188  42 42 42 42 42 42 42 42 42 42 42 42 42 42 42 42
  80b198  42 42 42 42 42 42 42 42 42 42 42 42 42 42 42 42
  80b1a8  42 42 42 42 42 42 42 42 42 42 42 42 42 42 42 42
  80b1b8  42 42 42 42 42 42 42 42 42 42 42 42 42 42 42 42
  80b1c8  42 42 42 42 42 42 42 42 42 42 42 42 42 42 42 42
  80b1d8  42 42 42 42 42 42 42 42 42 42 42 42 42 42 42 42
  80b1e8  42 42 42 42 42 42 42 42 42 42 42 42 42 42 42 42
  80b1f8  42 42 42 42 42 42 42 42 42 42 42 42 42 42 42 42
  80b208  42 42 42 42 42 42 42 42 42 42 42 42 42 42 42 42
  80b218  42 42 42 42 42 42 42 42 42 42 42 42 42 42 42 42
  80b228  42 42 42 42 42 42 42 42 42 42 42 42 42 42 42 42
  80b238  42 42 42 42 42 42 42 42 42 42 42 42 42 42 42 42
  80b248  42 42 42 42 42 42 42 42 42 42 42 42 42 42 42 42
  80b258  42 42 42 42 42 42 42 42 42 42 42 42 42 42 42 42
  80b268  42 42 42 42 42 42 42 42 42 42 42 42 42 42 42 42
  80b278  42 42 42 42 42 42 42 42 42 42 42 42 42 42 42 42
  80b288  42 42 42 42 42 42 42 42 42 42 42 42 42 42 42 42
  80b298  42 42 42 42 42 42 42 42 42 42 42 42 42 42 42 42
  80b2a8  42 42 42 42 42 42 42 42 42 42 42 42 42 42 42 42
  80b2b8  42 42 42 42 42 42 42 42 42 42 42 42 42 42 42 42
  80b2c8  42 42 42 42 42 42 42 42 42 42 42 42 42 42 42 42
  80b2d8  42 42 42 42 42 42 42 42 42 42 42 42 42 42 42 42
  80b2e8  42 42 42 42 42 42 42 42 42 42 42 42 42 42 42 42
  80b2f8  42 42 42 42 42 42 42 42 42 42 42 42 42 42 42 42
  80b308  42 42 42 42 42 42 42 42 42 42 42 42 42 42 42 42
  80b318  42 42 42 42 42 42 42 42 42 42 42 42 42 42 42 42
  80b328  42 42 42 42 42 42 42 42 42 42 42 42 42 42 42 42
  80b338  42 42 42 42 42 42 42 42 42 42 42 42 42 42 42 42
  80b348  42 42 42 42 42 42 42 42 42 42 42 42 42 42 42 42
  80b358  42 42 42 42 42 42 42 42 42 42 42 42 42 42 42 42
  80b368  42 42 42 42 42 42 42 42 42 42 42 42 42 42 42 42
  80b378  42 42 42 42 42 42 42 42 42 42 42 42 42 42 42 42
  80b388  42 42 42 42 42 42 42 42 42 42 42 42 42 42 42 42
  80b398  42 42 42 42 42 42 42 42 42 42 42 42 42 42 42 42
  80b3a8  42 42 42 42 42 42 42 42 42 42 42 42 42 42 42 42
  80b3b8  42 42 42 42 42 42 42 42 42 42 42 42 42 42 42 42
  80b3c8  42 42 42 42 42 42 42 42 42 42 42 42 42 42 42 42
  80b3d8  42 42 42 42 42 42 42 42 42 42 42 42 42 42 42 42
  80b3e8  42 42 42 42 42 42 42 42 42 42 42 42 42 42 42 42
  80b3f8  42 42 42 42 42 42 42 42 42 42 42 42 42 42 42 42
  80b408  42 42 42 42 42 42 42 42 42 42 42 42 42 42 42 42
  80b418  42 42 42 42 42 42 42 42 42 42 42 42 42 42 42 42
  80b428  42 42 42 42 42 42 42 42 42 42 42 42 42 42 42 42
  80b438  00 80 04 90 00 80 ad 34 e1 10 d0 ac 00 80 04 74
  80b448  00 80 ad 34 00 80 5e 88 00 80 05 40 00 80 2c dc
  80b458  00 01 00 68 00 01 40 0c 00 80 0f 00 10 00 02 02
  80b468  00 00 00 00 07 00 00 1d 00 20 1c 0c 00 00 00 20
  80b478  00 00 00 00 00 00 02 0f 00 00 00 00 00 00 00 00
  80b488  00 00 00 00 42 42 42 42 00 00 0e 00 00 00 00 01
  80b498  e1 0f 32 e0 10 00 02 02 00 80 a3 68 00 00 00 10
  80b4a8  00 00 02 00 00 00 04 00 00 00 00 00 00 00 00 00
  80b4b8  00 00 10 00 00 00 00 90 00 00 00 00 00 00 00 00
  80b4c8  00 00 00 00 00 00 00 91 00 00 00 00 00 00 00 00
  80b4d8  00 00 00 3c 7f ff ff ff e1 0e 0c 84 80 00 00 00
  80b4e8  00 00 00 20 00 00 00 00 00 00 08 10 00 80 b6 70
  80b4f8  00 00 02 0d 10 00 02 02 00 00 00 00 07 00 00 1d
  80b508  00 20 47 ca 00 00 00 20 00 00 00 00 00 00 02 0f
  80b518  00 00 00 00 00 00 00 00 00 00 00 00 00 00 00 12
  80b528  00 80 b5 98 00 00 00 00 00 2a cb c0 00 80 ad 34
  80b538  00 20 38 60 00 80 05 44 00 80 05 40 00 80 a3 8c
  80b548  00 01 00 68 00 00 00 04 00 80 0f 00 00 00 00 01
  80b558  00 00 00 00 00 80 ad 34 e4 35 4e 58 00 80 ad 34
  80b568  00 80 04 74 00 80 ad 34 00 01 40 0c 00 80 04 74
  80b578  00 80 ad 90 00 80 ad 34 00 80 04 90 00 80 ad 34
  80b588  e4 35 4e 58 00 80 ad 34 e1 0f 23 08 e1 10 b4 e8
  80b598  00 00 00 00 00 00 00 00 e1 0e 7b d0 00 00 00 00
  80b5a8  00 20 25 28 00 00 00 04 00 80 ad 90 42 42 42 42

===============================================================================
Process: Pid = 00000015, p_memcheck
Saved Registers
---------------

Process swapped out inside kernel. (small context)
Only PC (inside the kernel) and stack pointer shown.

  PC: 0x002047ca          SP: 0x0080bd78

Stack Content
-------------

Stack size = 2064 storage units

Hex Addr  00 01 02 03 04 05 06 07 08 09 0a 0b 0c 0d 0e 0f
--------  -- -- -- -- -- -- -- -- -- -- -- -- -- -- -- --
  80b670  2a 42 42 42 42 42 42 42 42 42 42 42 42 42 42 42
  80b680  42 42 42 42 42 42 42 42 42 42 42 42 42 42 42 42
  80b690  42 42 42 42 42 42 42 42 42 42 42 42 42 42 42 42
  80b6a0  42 42 42 42 42 42 42 42 42 42 42 42 42 42 42 42
  80b6b0  42 42 42 42 42 42 42 42 42 42 42 42 42 42 42 42
  80b6c0  42 42 42 42 42 42 42 42 42 42 42 42 42 42 42 42
  80b6d0  42 42 42 42 42 42 42 42 42 42 42 42 42 42 42 42
  80b6e0  42 42 42 42 42 42 42 42 42 42 42 42 42 42 42 42
  80b6f0  42 42 42 42 42 42 42 42 42 42 42 42 42 42 42 42
  80b700  42 42 42 42 42 42 42 42 42 42 42 42 42 42 42 42
  80b710  42 42 42 42 42 42 42 42 42 42 42 42 42 42 42 42
  80b720  42 42 42 42 42 42 42 42 42 42 42 42 42 42 42 42
  80b730  42 42 42 42 42 42 42 42 42 42 42 42 42 42 42 42
  80b740  42 42 42 42 42 42 42 42 42 42 42 42 42 42 42 42
  80b750  42 42 42 42 42 42 42 42 42 42 42 42 42 42 42 42
  80b760  42 42 42 42 42 42 42 42 42 42 42 42 42 42 42 42
  80b770  42 42 42 42 42 42 42 42 42 42 42 42 42 42 42 42
  80b780  42 42 42 42 42 42 42 42 42 42 42 42 42 42 42 42
  80b790  42 42 42 42 42 42 42 42 42 42 42 42 42 42 42 42
  80b7a0  42 42 42 42 42 42 42 42 42 42 42 42 42 42 42 42
  80b7b0  42 42 42 42 42 42 42 42 42 42 42 42 42 42 42 42
  80b7c0  42 42 42 42 42 42 42 42 42 42 42 42 42 42 42 42
  80b7d0  42 42 42 42 42 42 42 42 42 42 42 42 42 42 42 42
  80b7e0  42 42 42 42 42 42 42 42 42 42 42 42 42 42 42 42
  80b7f0  42 42 42 42 42 42 42 42 42 42 42 42 42 42 42 42
  80b800  42 42 42 42 42 42 42 42 42 42 42 42 42 42 42 42
  80b810  42 42 42 42 42 42 42 42 42 42 42 42 42 42 42 42
  80b820  42 42 42 42 42 42 42 42 42 42 42 42 42 42 42 42
  80b830  42 42 42 42 42 42 42 42 42 42 42 42 42 42 42 42
  80b840  42 42 42 42 42 42 42 42 42 42 42 42 42 42 42 42
  80b850  42 42 42 42 42 42 42 42 42 42 42 42 42 42 42 42
  80b860  42 42 42 42 42 42 42 42 42 42 42 42 42 42 42 42
  80b870  42 42 42 42 42 42 42 42 42 42 42 42 42 42 42 42
  80b880  42 42 42 42 42 42 42 42 42 42 42 42 42 42 42 42
  80b890  42 42 42 42 42 42 42 42 42 42 42 42 42 42 42 42
  80b8a0  42 42 42 42 42 42 42 42 42 42 42 42 42 42 42 42
  80b8b0  42 42 42 42 42 42 42 42 42 42 42 42 42 42 42 42
  80b8c0  42 42 42 42 42 42 42 42 42 42 42 42 42 42 42 42
  80b8d0  42 42 42 42 42 42 42 42 42 42 42 42 42 42 42 42
  80b8e0  42 42 42 42 42 42 42 42 42 42 42 42 42 42 42 42
  80b8f0  42 42 42 42 42 42 42 42 42 42 42 42 42 42 42 42
  80b900  42 42 42 42 42 42 42 42 42 42 42 42 42 42 42 42
  80b910  42 42 42 42 42 42 42 42 42 42 42 42 42 42 42 42
  80b920  42 42 42 42 42 42 42 42 42 42 42 42 42 42 42 42
  80b930  42 42 42 42 42 42 42 42 42 42 42 42 42 42 42 42
  80b940  42 42 42 42 42 42 42 42 42 42 42 42 42 42 42 42
  80b950  42 42 42 42 42 42 42 42 42 42 42 42 42 42 42 42
  80b960  42 42 42 42 42 42 42 42 42 42 42 42 42 42 42 42
  80b970  42 42 42 42 42 42 42 42 42 42 42 42 42 42 42 42
  80b980  42 42 42 42 42 42 42 42 42 42 42 42 42 42 42 42
  80b990  42 42 42 42 42 42 42 42 42 42 42 42 42 42 42 42
  80b9a0  42 42 42 42 42 42 42 42 42 42 42 42 42 42 42 42
  80b9b0  42 42 42 42 42 42 42 42 42 42 42 42 42 42 42 42
  80b9c0  42 42 42 42 42 42 42 42 42 42 42 42 42 42 42 42
  80b9d0  42 42 42 42 42 42 42 42 42 42 42 42 42 42 42 42
  80b9e0  42 42 42 42 42 42 42 42 42 42 42 42 42 42 42 42
  80b9f0  42 42 42 42 42 42 42 42 42 42 42 42 42 42 42 42
  80ba00  42 42 42 42 42 42 42 42 42 42 42 42 42 42 42 42
  80ba10  42 42 42 42 42 42 42 42 42 42 42 42 42 42 42 42
  80ba20  42 42 42 42 42 42 42 42 42 42 42 42 42 42 42 42
  80ba30  42 42 42 42 42 42 42 42 42 42 42 42 42 42 42 42
  80ba40  42 42 42 42 42 42 42 42 42 42 42 42 42 42 42 42
  80ba50  42 42 42 42 42 42 42 42 42 42 42 42 42 42 42 42
  80ba60  42 42 42 42 42 42 42 42 42 42 42 42 42 42 42 42
  80ba70  42 42 42 42 42 42 42 42 42 42 42 42 42 42 42 42
  80ba80  42 42 42 42 42 42 42 42 42 42 42 42 42 42 42 42
  80ba90  42 42 42 42 42 42 42 42 42 42 42 42 42 42 42 42
  80baa0  42 42 42 42 42 42 42 42 42 42 42 42 42 42 42 42
  80bab0  42 42 42 42 42 42 42 42 42 42 42 42 42 42 42 42
  80bac0  42 42 42 42 42 42 42 42 42 42 42 42 42 42 42 42
  80bad0  42 42 42 42 42 42 42 42 42 42 42 42 42 42 42 42
  80bae0  42 42 42 42 42 42 42 42 42 42 42 42 42 42 42 42
  80baf0  42 42 42 42 42 42 42 42 42 42 42 42 42 42 42 42
  80bb00  42 42 42 42 42 42 42 42 42 42 42 42 42 42 42 42
  80bb10  42 42 42 42 42 42 42 42 42 42 42 42 42 42 42 42
  80bb20  42 42 42 42 42 42 42 42 42 42 42 42 42 42 42 42
  80bb30  42 42 42 42 42 42 42 42 42 42 42 42 42 42 42 42
  80bb40  42 42 42 42 42 42 42 42 42 42 42 42 42 42 42 42
  80bb50  42 42 42 42 42 42 42 42 42 42 42 42 42 42 42 42
  80bb60  42 42 42 42 42 42 42 42 42 42 42 42 42 42 42 42
  80bb70  42 42 42 42 42 42 42 42 42 42 42 42 42 42 42 42
  80bb80  42 42 42 42 42 42 42 42 42 42 42 42 42 42 42 42
  80bb90  42 42 42 42 42 42 42 42 42 42 42 42 42 42 42 42
  80bba0  42 42 42 42 42 42 42 42 42 42 42 42 42 42 42 42
  80bbb0  42 42 42 42 42 42 42 42 42 42 42 42 42 42 42 42
  80bbc0  42 42 42 42 42 42 42 42 42 42 42 42 42 42 42 42
  80bbd0  42 42 42 42 42 42 42 42 42 42 42 42 42 42 42 42
  80bbe0  42 42 42 42 42 42 42 42 42 42 42 42 42 42 42 42
  80bbf0  42 42 42 42 42 42 42 42 42 42 42 42 42 42 42 42
  80bc00  42 42 42 42 42 42 42 42 42 42 42 42 42 42 42 42
  80bc10  42 42 42 42 42 42 42 42 42 42 42 42 42 42 42 42
  80bc20  42 42 42 42 42 42 42 42 42 42 42 42 42 42 42 42
  80bc30  42 42 42 42 42 42 42 42 42 42 42 42 42 42 42 42
  80bc40  42 42 42 42 42 42 42 42 42 42 42 42 42 42 42 42
  80bc50  42 42 42 42 42 42 42 42 42 42 42 42 42 42 42 42
  80bc60  42 42 42 42 42 42 42 42 42 42 42 42 42 42 42 42
  80bc70  42 42 42 42 42 42 42 42 42 42 42 42 42 42 42 42
  80bc80  42 42 42 42 42 42 42 42 42 42 42 42 42 42 42 42
  80bc90  42 42 42 42 42 42 42 42 42 42 42 42 42 42 42 42
  80bca0  42 42 42 42 42 42 42 42 42 42 42 42 42 42 42 42
  80bcb0  42 42 42 42 42 42 42 42 42 42 42 42 42 42 42 42
  80bcc0  42 42 42 42 42 42 42 42 42 42 42 42 42 42 42 42
  80bcd0  42 42 42 42 42 42 42 42 42 42 42 42 42 42 42 42
  80bce0  42 42 42 42 42 42 42 42 42 42 42 42 42 42 42 42
  80bcf0  42 42 42 42 42 42 42 42 42 42 42 42 42 42 42 42
  80bd00  42 42 42 42 42 42 42 42 42 42 42 42 42 42 42 42
  80bd10  42 42 42 42 42 42 42 42 42 42 42 42 42 42 42 42
  80bd20  42 42 42 42 42 42 42 42 42 42 42 42 42 42 42 42
  80bd30  42 42 42 42 42 42 42 42 42 42 42 42 42 42 42 42
  80bd40  42 42 42 42 42 42 42 42 42 42 42 42 42 42 42 42
  80bd50  42 42 42 42 42 42 42 42 42 42 42 42 10 00 02 02
  80bd60  00 00 00 00 07 00 00 1d 00 20 47 ca 00 00 00 20
  80bd70  00 00 00 00 00 00 02 0d 00 00 00 00 00 00 00 00
  80bd80  00 00 00 00 10 00 02 02 00 00 00 00 07 00 00 1d
  80bd90  00 20 47 ca 00 00 00 20 00 00 00 00 00 00 02 0d
  80bda0  00 00 00 00 00 00 00 00 00 00 00 00 00 00 00 00
  80bdb0  00 80 be 20 00 00 00 00 00 2a cb c0 00 80 b5 fc
  80bdc0  00 20 38 60 00 80 05 44 00 80 05 40 00 80 10 64
  80bdd0  00 00 71 c7 00 00 00 04 00 80 0f 00 00 09 27 c0
  80bde0  00 00 00 00 00 80 b5 fc e4 35 4e 58 00 80 b5 fc
  80bdf0  00 00 71 c3 00 80 04 74 00 00 71 c5 00 84 b6 08
  80be00  80 c1 00 02 00 09 27 c0 30 c1 00 03 00 00 de ad
  80be10  e4 35 4e 58 00 84 b6 08 e1 0f 23 08 00 00 00 00
  80be20  00 00 00 00 00 80 b5 fc e1 0e 2e b8 07 00 00 1d
  80be30  00 20 24 e0 00 00 00 20 00 00 00 00 00 00 02 0d
  80be40  00 20 25 28 00 00 00 00 00 80 b6 58 00 80 b5 fc
  80be50  e4 35 4e 58 00 80 b5 fc 00 80 04 90 00 80 b5 fc
  80be60  e1 0f 23 08 00 80 04 74 00 01 00 68 00 01 40 0c
  80be70  00 80 0f 00 00 00 00 04 00 80 b6 58 42 42 42 42

===============================================================================
Process: Pid = 00000016, p_debug
Saved Registers
---------------

Process swapped out inside kernel. (small context)
Only PC (inside the kernel) and stack pointer shown.

  PC: 0x002047ca          SP: 0xe13035b0

Stack Content
-------------

Stack size = 2064 storage units

Hex Addr  00 01 02 03 04 05 06 07 08 09 0a 0b 0c 0d 0e 0f
--------  -- -- -- -- -- -- -- -- -- -- -- -- -- -- -- --
e1302ee0  2a 42 42 42 42 42 42 42 42 42 42 42 42 42 42 42
e1302ef0  42 42 42 42 42 42 42 42 42 42 42 42 42 42 42 42
e1302f00  42 42 42 42 42 42 42 42 42 42 42 42 42 42 42 42
e1302f10  42 42 42 42 42 42 42 42 42 42 42 42 42 42 42 42
e1302f20  42 42 42 42 42 42 42 42 42 42 42 42 42 42 42 42
e1302f30  42 42 42 42 42 42 42 42 42 42 42 42 42 42 42 42
e1302f40  42 42 42 42 42 42 42 42 42 42 42 42 42 42 42 42
e1302f50  42 42 42 42 42 42 42 42 42 42 42 42 42 42 42 42
e1302f60  42 42 42 42 42 42 42 42 42 42 42 42 42 42 42 42
e1302f70  42 42 42 42 42 42 42 42 42 42 42 42 42 42 42 42
e1302f80  42 42 42 42 42 42 42 42 42 42 42 42 42 42 42 42
e1302f90  42 42 42 42 42 42 42 42 42 42 42 42 42 42 42 42
e1302fa0  42 42 42 42 42 42 42 42 42 42 42 42 42 42 42 42
e1302fb0  42 42 42 42 42 42 42 42 42 42 42 42 42 42 42 42
e1302fc0  42 42 42 42 42 42 42 42 42 42 42 42 42 42 42 42
e1302fd0  42 42 42 42 42 42 42 42 42 42 42 42 42 42 42 42
e1302fe0  42 42 42 42 42 42 42 42 42 42 42 42 42 42 42 42
e1302ff0  42 42 42 42 42 42 42 42 42 42 42 42 42 42 42 42
e1303000  42 42 42 42 42 42 42 42 42 42 42 42 42 42 42 42
e1303010  42 42 42 42 42 42 42 42 42 42 42 42 42 42 42 42
e1303020  42 42 42 42 42 42 42 42 42 42 42 42 42 42 42 42
e1303030  42 42 42 42 42 42 42 42 42 42 42 42 42 42 42 42
e1303040  42 42 42 42 42 42 42 42 42 42 42 42 42 42 42 42
e1303050  42 42 42 42 42 42 42 42 42 42 42 42 42 42 42 42
e1303060  42 42 42 42 42 42 42 42 42 42 42 42 42 42 42 42
e1303070  42 42 42 42 42 42 42 42 42 42 42 42 42 42 42 42
e1303080  42 42 42 42 42 42 42 42 42 42 42 42 42 42 42 42
e1303090  42 42 42 42 42 42 42 42 42 42 42 42 42 42 42 42
e13030a0  42 42 42 42 42 42 42 42 42 42 42 42 42 42 42 42
e13030b0  42 42 42 42 42 42 42 42 42 42 42 42 42 42 42 42
e13030c0  42 42 42 42 42 42 42 42 42 42 42 42 42 42 42 42
e13030d0  42 42 42 42 42 42 42 42 42 42 42 42 42 42 42 42
e13030e0  42 42 42 42 42 42 42 42 42 42 42 42 42 42 42 42
e13030f0  42 42 42 42 42 42 42 42 42 42 42 42 42 42 42 42
e1303100  42 42 42 42 42 42 42 42 42 42 42 42 42 42 42 42
e1303110  42 42 42 42 42 42 42 42 42 42 42 42 42 42 42 42
e1303120  42 42 42 42 42 42 42 42 42 42 42 42 42 42 42 42
e1303130  42 42 42 42 42 42 42 42 42 42 42 42 42 42 42 42
e1303140  42 42 42 42 42 42 42 42 42 42 42 42 42 42 42 42
e1303150  42 42 42 42 42 42 42 42 42 42 42 42 42 42 42 42
e1303160  42 42 42 42 42 42 42 42 42 42 42 42 42 42 42 42
e1303170  42 42 42 42 42 42 42 42 42 42 42 42 42 42 42 42
e1303180  42 42 42 42 42 42 42 42 42 42 42 42 42 42 42 42
e1303190  42 42 42 42 42 42 42 42 42 42 42 42 42 42 42 42
e13031a0  42 42 42 42 42 42 42 42 42 42 42 42 42 42 42 42
e13031b0  42 42 42 42 42 42 42 42 42 42 42 42 42 42 42 42
e13031c0  42 42 42 42 42 42 42 42 42 42 42 42 42 42 42 42
e13031d0  42 42 42 42 42 42 42 42 42 42 42 42 42 42 42 42
e13031e0  42 42 42 42 42 42 42 42 42 42 42 42 42 42 42 42
e13031f0  42 42 42 42 42 42 42 42 42 42 42 42 42 42 42 42
e1303200  42 42 42 42 42 42 42 42 42 42 42 42 42 42 42 42
e1303210  42 42 42 42 42 42 42 42 42 42 42 42 42 42 42 42
e1303220  42 42 42 42 42 42 42 42 42 42 42 42 42 42 42 42
e1303230  42 42 42 42 42 42 42 42 42 42 42 42 42 42 42 42
e1303240  42 42 42 42 42 42 42 42 42 42 42 42 42 42 42 42
e1303250  42 42 42 42 42 42 42 42 42 42 42 42 42 42 42 42
e1303260  42 42 42 42 42 42 42 42 42 42 42 42 42 42 42 42
e1303270  42 42 42 42 42 42 42 42 42 42 42 42 42 42 42 42
e1303280  42 42 42 42 42 42 42 42 42 42 42 42 42 42 42 42
e1303290  42 42 42 42 42 42 42 42 42 42 42 42 42 42 42 42
e13032a0  42 42 42 42 42 42 42 42 42 42 42 42 42 42 42 42
e13032b0  42 42 42 42 42 42 42 42 42 42 42 42 42 42 42 42
e13032c0  42 42 42 42 42 42 42 42 42 42 42 42 42 42 42 42
e13032d0  42 42 42 42 42 42 42 42 42 42 42 42 42 42 42 42
e13032e0  42 42 42 42 42 42 42 42 42 42 42 42 42 42 42 42
e13032f0  42 42 42 42 42 42 42 42 42 42 42 42 42 42 42 42
e1303300  42 42 42 42 42 42 42 42 42 42 42 42 42 42 42 42
e1303310  42 42 42 42 42 42 42 42 42 42 42 42 42 42 42 42
e1303320  42 42 42 42 42 42 42 42 42 42 42 42 42 42 42 42
e1303330  42 42 42 42 42 42 42 42 42 42 42 42 42 42 42 42
e1303340  42 42 42 42 42 42 42 42 42 42 42 42 42 42 42 42
e1303350  42 42 42 42 42 42 42 42 42 42 42 42 42 42 42 42
e1303360  42 42 42 42 42 42 42 42 42 42 42 42 42 42 42 42
e1303370  42 42 42 42 42 42 42 42 42 42 42 42 42 42 42 42
e1303380  42 42 42 42 42 42 42 42 42 42 42 42 42 42 42 42
e1303390  42 42 42 42 42 42 42 42 42 42 42 42 42 42 42 42
e13033a0  42 42 42 42 42 42 42 42 42 42 42 42 42 42 42 42
e13033b0  42 42 42 42 42 42 42 42 42 42 42 42 42 42 42 42
e13033c0  42 42 42 42 42 42 42 42 42 42 42 42 42 42 42 42
e13033d0  42 42 42 42 42 42 42 42 42 42 42 42 42 42 42 42
e13033e0  42 42 42 42 42 42 42 42 42 42 42 42 42 42 42 42
e13033f0  42 42 42 42 42 42 42 42 42 42 42 42 42 42 42 42
e1303400  42 42 42 42 42 42 42 42 42 42 42 42 42 42 42 42
e1303410  42 42 42 42 42 42 42 42 42 42 42 42 42 42 42 42
e1303420  42 42 42 42 42 42 42 42 42 42 42 42 42 42 42 42
e1303430  42 42 42 42 42 42 42 42 42 42 42 42 42 42 42 42
e1303440  42 42 42 42 42 42 42 42 42 42 42 42 42 42 42 42
e1303450  42 42 42 42 42 42 42 42 42 42 42 42 42 42 42 42
e1303460  42 42 42 42 42 42 42 42 42 42 42 42 42 42 42 42
e1303470  42 42 42 42 42 42 42 42 42 42 42 42 42 42 42 42
e1303480  42 42 42 42 42 42 42 42 42 42 42 42 42 42 42 42
e1303490  42 42 42 42 42 42 42 42 42 42 42 42 42 42 42 42
e13034a0  42 42 42 42 42 42 42 42 42 42 42 42 42 42 42 42
e13034b0  42 42 42 42 42 42 42 42 42 42 42 42 42 42 42 42
e13034c0  42 42 42 42 42 42 42 42 42 42 42 42 42 42 42 42
e13034d0  42 42 42 42 42 42 42 42 42 42 42 42 42 42 42 42
e13034e0  42 42 42 42 42 42 42 42 42 42 42 42 42 42 42 42
e13034f0  42 42 42 42 42 42 42 42 42 42 42 42 42 42 42 42
e1303500  42 42 42 42 42 42 42 42 42 42 42 42 42 42 42 42
e1303510  42 42 42 42 42 42 42 42 42 42 42 42 42 42 42 42
e1303520  42 42 42 42 42 42 42 42 42 42 42 42 42 42 42 42
e1303530  42 42 42 42 42 42 42 42 42 42 42 42 42 42 42 42
e1303540  42 42 42 42 42 42 42 42 42 42 42 42 42 42 42 42
e1303550  42 42 42 42 42 42 42 42 42 42 42 42 42 42 42 42
e1303560  42 42 42 42 42 42 42 42 42 42 42 42 42 42 42 42
e1303570  42 42 42 42 42 42 42 42 42 42 42 42 42 42 42 42
e1303580  42 42 42 42 42 42 42 42 42 42 42 42 42 42 42 42
e1303590  42 42 42 42 42 42 42 42 42 42 42 42 42 42 42 42
e13035a0  42 42 42 42 42 42 42 42 42 42 42 42 42 42 42 42
e13035b0  42 42 42 42 42 42 42 42 42 42 42 42 10 00 02 02
e13035c0  00 00 00 00 07 00 00 1d 00 20 47 ca 00 00 00 20
e13035d0  00 00 00 00 00 00 02 0f 00 00 00 00 00 00 00 00
e13035e0  00 00 00 00 00 00 00 04 e1 30 36 58 00 00 00 00
e13035f0  00 2a cb c0 00 80 bf 1c 00 20 38 60 00 80 05 44
e1303600  00 80 05 40 00 80 2c dc 00 00 de ad 00 00 00 04
e1303610  00 80 0f 00 00 00 00 00 00 00 00 00 00 80 bf 1c
e1303620  00 7f ff ff 00 80 bf 1c 00 1f ff ff 00 80 bf 1c
e1303630  00 2c 00 00 00 80 04 74 e1 30 2e c8 00 80 bf 1c
e1303640  00 85 80 00 f0 00 00 00 00 7f ff ff 00 80 bf 1c
e1303650  e1 0f 23 08 e1 10 af 8c 00 00 00 00 00 00 00 00
e1303660  e1 0d ce 78 42 42 42 42 42 42 42 42 42 42 42 42
e1303670  42 42 42 42 42 42 42 42 42 42 42 42 42 42 42 42
e1303680  42 42 42 42 00 00 00 00 42 42 42 42 42 42 42 42
e1303690  42 42 42 42 df ff ff ff 80 bc 00 01 30 bc 00 02
e13036a0  30 bc 00 07 30 bc 00 05 00 00 00 00 00 00 02 0f
e13036b0  00 20 25 28 00 00 00 00 e1 30 2e c8 00 80 bf 1c
e13036c0  e4 35 4e 40 00 80 bf 1c 00 80 04 90 00 80 bf 1c
e13036d0  e1 0f 23 08 00 80 04 74 00 01 00 68 00 01 40 0c
e13036e0  00 80 0f 00 00 00 00 04 e1 30 2e c8 42 42 42 42

===============================================================================
Process: Pid = 00000017, p_has
Saved Registers
---------------

Process swapped out inside kernel. (small context)
Only PC (inside the kernel) and stack pointer shown.

  PC: 0x002047ca          SP: 0x0080c720

Stack Content
-------------

Stack size = 2064 storage units

Hex Addr  00 01 02 03 04 05 06 07 08 09 0a 0b 0c 0d 0e 0f
--------  -- -- -- -- -- -- -- -- -- -- -- -- -- -- -- --
  80c030  2a 42 42 42 42 42 42 42 42 42 42 42 42 42 42 42
  80c040  42 42 42 42 42 42 42 42 42 42 42 42 42 42 42 42
  80c050  42 42 42 42 42 42 42 42 42 42 42 42 42 42 42 42
  80c060  42 42 42 42 42 42 42 42 42 42 42 42 42 42 42 42
  80c070  42 42 42 42 42 42 42 42 42 42 42 42 42 42 42 42
  80c080  42 42 42 42 42 42 42 42 42 42 42 42 42 42 42 42
  80c090  42 42 42 42 42 42 42 42 42 42 42 42 42 42 42 42
  80c0a0  42 42 42 42 42 42 42 42 42 42 42 42 42 42 42 42
  80c0b0  42 42 42 42 42 42 42 42 42 42 42 42 42 42 42 42
  80c0c0  42 42 42 42 42 42 42 42 42 42 42 42 42 42 42 42
  80c0d0  42 42 42 42 42 42 42 42 42 42 42 42 42 42 42 42
  80c0e0  42 42 42 42 42 42 42 42 42 42 42 42 42 42 42 42
  80c0f0  42 42 42 42 42 42 42 42 42 42 42 42 42 42 42 42
  80c100  42 42 42 42 42 42 42 42 42 42 42 42 42 42 42 42
  80c110  42 42 42 42 42 42 42 42 42 42 42 42 42 42 42 42
  80c120  42 42 42 42 42 42 42 42 42 42 42 42 42 42 42 42
  80c130  42 42 42 42 42 42 42 42 42 42 42 42 42 42 42 42
  80c140  42 42 42 42 42 42 42 42 42 42 42 42 42 42 42 42
  80c150  42 42 42 42 42 42 42 42 42 42 42 42 42 42 42 42
  80c160  42 42 42 42 42 42 42 42 42 42 42 42 42 42 42 42
  80c170  42 42 42 42 42 42 42 42 42 42 42 42 42 42 42 42
  80c180  42 42 42 42 42 42 42 42 42 42 42 42 42 42 42 42
  80c190  42 42 42 42 42 42 42 42 42 42 42 42 42 42 42 42
  80c1a0  42 42 42 42 42 42 42 42 42 42 42 42 42 42 42 42
  80c1b0  42 42 42 42 42 42 42 42 42 42 42 42 42 42 42 42
  80c1c0  42 42 42 42 42 42 42 42 42 42 42 42 42 42 42 42
  80c1d0  42 42 42 42 42 42 42 42 42 42 42 42 42 42 42 42
  80c1e0  42 42 42 42 42 42 42 42 42 42 42 42 42 42 42 42
  80c1f0  42 42 42 42 42 42 42 42 42 42 42 42 42 42 42 42
  80c200  42 42 42 42 42 42 42 42 42 42 42 42 42 42 42 42
  80c210  42 42 42 42 42 42 42 42 42 42 42 42 42 42 42 42
  80c220  42 42 42 42 42 42 42 42 42 42 42 42 42 42 42 42
  80c230  42 42 42 42 42 42 42 42 42 42 42 42 42 42 42 42
  80c240  42 42 42 42 42 42 42 42 42 42 42 42 42 42 42 42
  80c250  42 42 42 42 42 42 42 42 42 42 42 42 42 42 42 42
  80c260  42 42 42 42 42 42 42 42 42 42 42 42 42 42 42 42
  80c270  42 42 42 42 42 42 42 42 42 42 42 42 42 42 42 42
  80c280  42 42 42 42 42 42 42 42 42 42 42 42 42 42 42 42
  80c290  42 42 42 42 42 42 42 42 42 42 42 42 42 42 42 42
  80c2a0  42 42 42 42 42 42 42 42 42 42 42 42 42 42 42 42
  80c2b0  42 42 42 42 42 42 42 42 42 42 42 42 42 42 42 42
  80c2c0  42 42 42 42 42 42 42 42 42 42 42 42 42 42 42 42
  80c2d0  42 42 42 42 42 42 42 42 42 42 42 42 42 42 42 42
  80c2e0  42 42 42 42 42 42 42 42 42 42 42 42 42 42 42 42
  80c2f0  42 42 42 42 42 42 42 42 42 42 42 42 42 42 42 42
  80c300  42 42 42 42 42 42 42 42 42 42 42 42 42 42 42 42
  80c310  42 42 42 42 42 42 42 42 42 42 42 42 42 42 42 42
  80c320  42 42 42 42 42 42 42 42 42 42 42 42 42 42 42 42
  80c330  42 42 42 42 42 42 42 42 42 42 42 42 42 42 42 42
  80c340  42 42 42 42 42 42 42 42 42 42 42 42 42 42 42 42
  80c350  42 42 42 42 42 42 42 42 42 42 42 42 42 42 42 42
  80c360  42 42 42 42 42 42 42 42 42 42 42 42 42 42 42 42
  80c370  42 42 42 42 42 42 42 42 42 42 42 42 42 42 42 42
  80c380  42 42 42 42 42 42 42 42 42 42 42 42 42 42 42 42
  80c390  42 42 42 42 42 42 42 42 42 42 42 42 42 42 42 42
  80c3a0  42 42 42 42 42 42 42 42 42 42 42 42 42 42 42 42
  80c3b0  42 42 42 42 42 42 42 42 42 42 42 42 42 42 42 42
  80c3c0  42 42 42 42 42 42 42 42 42 42 42 42 42 42 42 42
  80c3d0  42 42 42 42 42 42 42 42 42 42 42 42 42 42 42 42
  80c3e0  42 42 42 42 42 42 42 42 42 42 42 42 42 42 42 42
  80c3f0  42 42 42 42 42 42 42 42 42 42 42 42 42 42 42 42
  80c400  42 42 42 42 42 42 42 42 42 42 42 42 42 42 42 42
  80c410  42 42 42 42 42 42 42 42 42 42 42 42 42 42 42 42
  80c420  42 42 42 42 42 42 42 42 42 42 42 42 42 42 42 42
  80c430  42 42 42 42 42 42 42 42 42 42 42 42 42 42 42 42
  80c440  42 42 42 42 42 42 42 42 42 42 42 42 42 42 42 42
  80c450  42 42 42 42 42 42 42 42 42 42 42 42 42 42 42 42
  80c460  42 42 42 42 42 42 42 42 42 42 42 42 42 42 42 42
  80c470  42 42 42 42 42 42 42 42 42 42 42 42 42 42 42 42
  80c480  42 42 42 42 42 42 42 42 42 42 42 42 42 42 42 42
  80c490  42 42 42 42 42 42 42 42 00 80 c4 d4 42 42 42 42
  80c4a0  00 00 00 0a 00 80 c5 24 00 80 c5 38 00 00 00 00
  80c4b0  e1 0f 40 8c 00 80 c4 d4 00 80 c7 35 42 42 42 42
  80c4c0  00 80 c5 38 42 42 42 42 00 80 c5 24 00 00 00 00
  80c4d0  00 00 00 00 00 80 c5 3d 00 00 00 00 00 00 00 00
  80c4e0  00 80 c7 64 42 42 42 42 e1 0f 46 38 00 00 00 00
  80c4f0  e1 10 ae d5 00 00 00 25 00 00 00 02 e1 10 ae a6
  80c500  e1 0f 38 a0 e1 0f 38 a0 00 80 c7 68 e1 0f 37 a0
  80c510  e1 10 ae d5 00 00 00 25 00 80 c7 64 00 80 c7 e0
  80c520  00 00 00 20 00 00 00 00 00 00 00 00 00 00 00 01
  80c530  64 42 42 42 42 42 42 42 34 30 30 32 00 20 20 20
  80c540  20 20 20 20 20 20 20 20 20 20 20 20 20 20 20 20
  80c550  20 20 20 20 20 20 20 20 20 20 20 20 20 20 20 20
  80c560  20 20 20 20 20 20 20 20 20 20 20 20 20 20 20 20
  80c570  20 20 20 20 20 20 20 20 20 20 20 20 20 20 20 20
  80c580  20 20 20 20 20 20 20 20 20 20 20 20 20 20 20 20
  80c590  20 20 20 20 20 20 20 20 20 20 20 20 20 20 20 20
  80c5a0  20 20 20 20 20 20 20 20 20 20 20 20 20 20 20 20
  80c5b0  20 20 20 20 20 20 20 20 20 20 20 20 20 20 20 20
  80c5c0  20 20 20 20 20 20 20 20 20 20 20 20 20 20 20 20
  80c5d0  20 20 20 20 20 20 20 20 20 20 20 20 20 20 20 20
  80c5e0  20 20 20 20 20 20 20 20 20 20 20 20 20 20 20 20
  80c5f0  20 20 20 20 20 20 20 20 20 20 20 20 20 20 20 20
  80c600  20 20 20 20 20 20 20 20 20 20 20 20 20 20 20 20
  80c610  20 20 20 20 20 20 20 20 20 20 20 20 20 20 20 20
  80c620  20 20 20 20 20 20 20 20 20 20 20 20 20 20 20 20
  80c630  20 20 20 20 20 20 20 20 20 20 20 20 20 20 20 20
  80c640  20 20 20 20 20 20 20 20 20 20 20 20 20 20 20 20
  80c650  20 20 20 20 20 20 20 20 20 20 20 20 20 20 20 20
  80c660  20 20 20 20 20 20 20 20 20 20 20 20 20 20 20 20
  80c670  20 20 20 20 20 20 20 20 20 20 20 20 10 00 02 02
  80c680  00 00 00 00 07 00 00 1d 00 20 47 24 00 00 00 20
  80c690  00 00 00 00 00 00 02 0f 00 00 00 00 00 00 00 00
  80c6a0  00 00 00 00 20 20 20 20 e4 35 9e 48 00 00 00 04
  80c6b0  00 00 00 00 10 00 02 02 00 00 00 94 00 00 00 13
  80c6c0  00 00 02 00 00 00 04 00 00 00 00 00 00 00 00 00
  80c6d0  00 00 10 00 00 00 00 90 00 00 00 00 00 00 00 00
  80c6e0  00 00 00 00 00 00 00 91 00 00 00 00 e1 0e 2e 60
  80c6f0  00 00 00 3c 7f ff ff ff 00 00 00 00 80 00 00 00
  80c700  00 00 00 20 00 00 00 00 00 00 00 00 00 80 c7 e0
  80c710  00 00 02 0f f0 00 00 00 00 00 00 00 00 00 00 00
  80c720  0f a0 0f a3 0f a2 0b 49 00 00 00 00 10 00 02 02
  80c730  00 00 00 00 07 00 00 1d 00 20 47 ca 00 00 00 20
  80c740  00 00 00 00 00 00 02 0f 00 00 00 00 00 00 00 00
  80c750  00 00 00 00 00 00 00 1f 00 80 c7 e0 00 00 00 00
  80c760  00 20 3e a4 00 80 bf bc 00 20 38 60 00 80 05 44
  80c770  00 80 05 40 00 81 07 14 00 01 00 68 00 00 00 0c
  80c780  00 80 0f 00 00 00 00 00 00 00 00 00 00 80 bf bc
  80c790  00 03 00 03 00 80 bf bc 00 03 00 01 00 01 40 0c
  80c7a0  00 01 40 0c 00 80 80 54 e1 0e 72 d0 00 80 bf bc
  80c7b0  00 2a cb 78 00 80 06 da 00 03 00 03 00 03 00 07
  80c7c0  30 ab 00 01 e4 35 a2 58 00 04 93 df e4 35 9e 48
  80c7d0  00 80 04 90 ff ff ff ff e1 0e 72 d0 00 03 00 07
  80c7e0  00 00 00 00 e1 10 b0 6a 00 00 00 7b 00 04 95 1b
  80c7f0  00 00 00 7b 00 00 00 00 00 00 00 00 00 00 02 0f
  80c800  00 20 25 28 30 bc 00 07 00 80 c0 18 00 80 bf bc
  80c810  e4 35 4e 58 00 80 bf bc 00 80 04 90 00 80 bf bc
  80c820  e1 0f 23 08 00 80 04 74 00 01 00 68 00 01 40 0c
  80c830  00 80 0f 00 00 00 00 04 00 80 c0 18 42 42 42 42

===============================================================================
Process: Pid = 00000018, t_fr
Saved Registers
---------------

Process swapped out inside kernel. (small context)
Only PC (inside the kernel) and stack pointer shown.

  PC: 0x002047ca          SP: 0xe1304218

Stack Content
-------------

Stack size = 2064 storage units

Hex Addr  00 01 02 03 04 05 06 07 08 09 0a 0b 0c 0d 0e 0f
--------  -- -- -- -- -- -- -- -- -- -- -- -- -- -- -- --
e1303b08  2a 42 42 42 42 42 42 42 42 42 42 42 42 42 42 42
e1303b18  42 42 42 42 42 42 42 42 42 42 42 42 42 42 42 42
e1303b28  42 42 42 42 42 42 42 42 42 42 42 42 42 42 42 42
e1303b38  42 42 42 42 42 42 42 42 42 42 42 42 42 42 42 42
e1303b48  42 42 42 42 42 42 42 42 42 42 42 42 42 42 42 42
e1303b58  42 42 42 42 42 42 42 42 42 42 42 42 42 42 42 42
e1303b68  42 42 42 42 42 42 42 42 42 42 42 42 42 42 42 42
e1303b78  42 42 42 42 42 42 42 42 42 42 42 42 42 42 42 42
e1303b88  42 42 42 42 42 42 42 42 42 42 42 42 42 42 42 42
e1303b98  42 42 42 42 42 42 42 42 42 42 42 42 42 42 42 42
e1303ba8  42 42 42 42 42 42 42 42 42 42 42 42 42 42 42 42
e1303bb8  42 42 42 42 42 42 42 42 42 42 42 42 42 42 42 42
e1303bc8  42 42 42 42 42 42 42 42 42 42 42 42 42 42 42 42
e1303bd8  42 42 42 42 42 42 42 42 42 42 42 42 42 42 42 42
e1303be8  42 42 42 42 42 42 42 42 42 42 42 42 42 42 42 42
e1303bf8  42 42 42 42 42 42 42 42 42 42 42 42 42 42 42 42
e1303c08  42 42 42 42 42 42 42 42 42 42 42 42 42 42 42 42
e1303c18  42 42 42 42 42 42 42 42 42 42 42 42 42 42 42 42
e1303c28  42 42 42 42 42 42 42 42 42 42 42 42 42 42 42 42
e1303c38  42 42 42 42 42 42 42 42 42 42 42 42 42 42 42 42
e1303c48  42 42 42 42 42 42 42 42 42 42 42 42 42 42 42 42
e1303c58  42 42 42 42 42 42 42 42 42 42 42 42 42 42 42 42
e1303c68  42 42 42 42 42 42 42 42 42 42 42 42 42 42 42 42
e1303c78  42 42 42 42 42 42 42 42 42 42 42 42 42 42 42 42
e1303c88  42 42 42 42 42 42 42 42 42 42 42 42 42 42 42 42
e1303c98  42 42 42 42 42 42 42 42 42 42 42 42 42 42 42 42
e1303ca8  42 42 42 42 42 42 42 42 42 42 42 42 42 42 42 42
e1303cb8  42 42 42 42 42 42 42 42 42 42 42 42 42 42 42 42
e1303cc8  42 42 42 42 42 42 42 42 42 42 42 42 42 42 42 42
e1303cd8  42 42 42 42 42 42 42 42 42 42 42 42 42 42 42 42
e1303ce8  42 42 42 42 42 42 42 42 42 42 42 42 42 42 42 42
e1303cf8  42 42 42 42 42 42 42 42 42 42 42 42 42 42 42 42
e1303d08  42 42 42 42 42 42 42 42 42 42 42 42 42 42 42 42
e1303d18  42 42 42 42 42 42 42 42 42 42 42 42 42 42 42 42
e1303d28  42 42 42 42 42 42 42 42 42 42 42 42 42 42 42 42
e1303d38  42 42 42 42 42 42 42 42 42 42 42 42 42 42 42 42
e1303d48  42 42 42 42 42 42 42 42 42 42 42 42 42 42 42 42
e1303d58  42 42 42 42 42 42 42 42 42 42 42 42 42 42 42 42
e1303d68  42 42 42 42 42 42 42 42 42 42 42 42 42 42 42 42
e1303d78  42 42 42 42 42 42 42 42 42 42 42 42 42 42 42 42
e1303d88  42 42 42 42 42 42 42 42 42 42 42 42 42 42 42 42
e1303d98  42 42 42 42 42 42 42 42 42 42 42 42 42 42 42 42
e1303da8  42 42 42 42 42 42 42 42 42 42 42 42 42 42 42 42
e1303db8  42 42 42 42 42 42 42 42 42 42 42 42 42 42 42 42
e1303dc8  42 42 42 42 42 42 42 42 42 42 42 42 42 42 42 42
e1303dd8  42 42 42 42 42 42 42 42 42 42 42 42 42 42 42 42
e1303de8  42 42 42 42 42 42 42 42 42 42 42 42 42 42 42 42
e1303df8  42 42 42 42 42 42 42 42 42 42 42 42 42 42 42 42
e1303e08  42 42 42 42 42 42 42 42 42 42 42 42 42 42 42 42
e1303e18  42 42 42 42 42 42 42 42 42 42 42 42 42 42 42 42
e1303e28  42 42 42 42 42 42 42 42 42 42 42 42 42 42 42 42
e1303e38  42 42 42 42 42 42 42 42 42 42 42 42 42 42 42 42
e1303e48  42 42 42 42 42 42 42 42 42 42 42 42 42 42 42 42
e1303e58  42 42 42 42 42 42 42 42 42 42 42 42 42 42 42 42
e1303e68  42 42 42 42 42 42 42 42 42 42 42 42 42 42 42 42
e1303e78  42 42 42 42 42 42 42 42 42 42 42 42 42 42 42 42
e1303e88  42 42 42 42 42 42 42 42 42 42 42 42 42 42 42 42
e1303e98  42 42 42 42 42 42 42 42 42 42 42 42 42 42 42 42
e1303ea8  42 42 42 42 42 42 42 42 42 42 42 42 42 42 42 42
e1303eb8  42 42 42 42 42 42 42 42 42 42 42 42 42 42 42 42
e1303ec8  42 42 42 42 42 42 42 42 42 42 42 42 42 42 42 42
e1303ed8  42 42 42 42 42 42 42 42 42 42 42 42 42 42 42 42
e1303ee8  42 42 42 42 42 42 42 42 42 42 42 42 42 42 42 42
e1303ef8  42 42 42 42 42 42 42 42 42 42 42 42 42 42 42 42
e1303f08  42 42 42 42 42 42 42 42 42 42 42 42 42 42 42 42
e1303f18  42 42 42 42 42 42 42 42 42 42 42 42 42 42 42 42
e1303f28  42 42 42 42 42 42 42 42 42 42 42 42 42 42 42 42
e1303f38  42 42 42 42 42 42 42 42 42 42 42 42 42 42 42 42
e1303f48  42 42 42 42 42 42 42 42 42 42 42 42 42 42 42 42
e1303f58  42 42 42 42 42 42 42 42 42 42 42 42 42 42 42 42
e1303f68  42 42 42 42 42 42 42 42 42 42 42 42 42 42 42 42
e1303f78  42 42 42 42 42 42 42 42 42 42 42 42 42 42 42 42
e1303f88  42 42 42 42 42 42 42 42 42 42 42 42 42 42 42 42
e1303f98  42 42 42 42 42 42 42 42 42 42 42 42 42 42 42 42
e1303fa8  42 42 42 42 42 42 42 42 42 42 42 42 42 42 42 42
e1303fb8  42 42 42 42 42 42 42 42 42 42 42 42 42 42 42 42
e1303fc8  42 42 42 42 42 42 42 42 42 42 42 42 42 42 42 42
e1303fd8  42 42 42 42 42 42 42 42 42 42 42 42 42 42 42 42
e1303fe8  42 42 42 42 42 42 42 42 42 42 42 42 42 42 42 42
e1303ff8  42 42 42 42 42 42 42 42 42 42 42 42 42 42 42 42
e1304008  42 42 42 42 42 42 42 42 42 42 42 42 42 42 42 42
e1304018  42 42 42 42 42 42 42 42 42 42 42 42 42 42 42 42
e1304028  42 42 42 42 42 42 42 42 42 42 42 42 42 42 42 42
e1304038  42 42 42 42 42 42 42 42 42 42 42 42 42 42 42 42
e1304048  42 42 42 42 42 42 42 42 42 42 42 42 42 42 42 42
e1304058  42 42 42 42 42 42 42 42 42 42 42 42 42 42 42 42
e1304068  42 42 42 42 42 42 42 42 42 42 42 42 42 42 42 42
e1304078  42 42 42 42 42 42 42 42 42 42 42 42 42 42 42 42
e1304088  42 42 42 42 42 42 42 42 42 42 42 42 42 42 42 42
e1304098  42 42 42 42 42 42 42 42 42 42 42 42 42 42 42 42
e13040a8  42 42 42 42 42 42 42 42 42 42 42 42 42 42 42 42
e13040b8  42 42 42 42 42 42 42 42 42 42 42 42 42 42 42 42
e13040c8  42 42 42 42 42 42 42 42 42 42 42 42 42 42 42 42
e13040d8  42 42 42 42 42 42 42 42 42 42 42 42 42 42 42 42
e13040e8  42 42 42 42 42 42 42 42 42 42 42 42 42 42 42 42
e13040f8  42 42 42 42 42 42 42 42 42 42 42 42 42 42 42 42
e1304108  42 42 42 42 42 42 42 42 42 42 42 42 42 42 42 42
e1304118  42 42 42 42 42 42 42 42 42 42 42 42 42 42 42 42
e1304128  42 42 42 42 42 42 42 42 42 42 42 42 42 42 42 42
e1304138  42 42 42 42 42 42 42 42 42 42 42 42 42 42 42 42
e1304148  42 42 42 42 42 42 42 42 42 42 42 42 42 42 42 42
e1304158  42 42 42 42 42 42 42 42 42 42 42 42 42 42 42 42
e1304168  42 42 42 42 42 42 42 42 42 42 42 42 42 42 42 42
e1304178  42 42 42 42 42 42 42 42 42 42 42 42 42 42 42 42
e1304188  42 42 42 42 42 42 42 42 42 42 42 42 42 42 42 42
e1304198  42 42 42 42 42 42 42 42 42 42 42 42 42 42 42 42
e13041a8  42 42 42 42 42 42 42 42 42 42 42 42 42 42 42 42
e13041b8  42 42 42 42 42 42 42 42 42 42 42 42 42 42 42 42
e13041c8  42 42 42 42 42 42 42 42 42 42 42 42 42 42 42 42
e13041d8  42 42 42 42 42 42 42 42 42 42 42 42 42 42 42 42
e13041e8  42 42 42 42 42 42 42 42 42 42 42 42 42 42 42 42
e13041f8  42 42 42 42 42 42 42 42 42 42 42 42 42 42 42 42
e1304208  42 42 42 42 42 42 42 42 42 42 42 42 42 42 42 42
e1304218  42 42 42 42 42 42 42 42 42 42 42 42 10 00 02 02
e1304228  00 00 00 00 07 00 00 1d 00 20 47 ca 00 00 00 20
e1304238  00 00 00 00 00 00 02 0f 00 00 00 00 00 00 00 00
e1304248  00 00 00 00 00 00 00 04 e1 30 42 c0 00 00 00 00
e1304258  00 2a cb c0 00 80 c8 c4 00 20 38 60 00 80 05 44
e1304268  00 80 05 40 00 80 2c dc 00 00 00 4f 00 00 00 04
e1304278  00 80 0f 00 00 00 00 00 00 00 00 00 00 80 c8 c4
e1304288  80 b2 00 05 00 80 c8 c4 30 b2 00 01 00 80 c8 c4
e1304298  00 00 00 74 00 80 04 74 ff ff ff ff 00 00 71 41
e13042a8  00 00 00 40 00 00 71 40 80 b2 00 05 00 80 c8 c4
e13042b8  00 00 00 48 e1 10 b1 60 00 00 00 00 00 00 00 00
e13042c8  e1 0e 79 28 00 00 00 00 00 00 00 00 00 00 02 0f
e13042d8  00 20 25 28 00 00 00 00 e1 30 3a f0 00 80 c8 c4
e13042e8  e4 35 4e 40 00 80 c8 c4 00 80 04 90 00 80 c8 c4
e13042f8  e1 0f 23 08 00 80 04 74 00 01 00 68 00 01 40 0c
e1304308  00 80 0f 00 00 00 00 04 e1 30 3a f0 42 42 42 42

===============================================================================
Process: Pid = 00000019, drm
Saved Registers
---------------

Process swapped out inside kernel. (small context)
Only PC (inside the kernel) and stack pointer shown.

  PC: 0x002047ca          SP: 0x0080d108

Stack Content
-------------

Stack size = 2576 storage units

Hex Addr  00 01 02 03 04 05 06 07 08 09 0a 0b 0c 0d 0e 0f
--------  -- -- -- -- -- -- -- -- -- -- -- -- -- -- -- --
  80ca18  2a 42 42 42 42 42 42 42 42 42 42 42 42 42 42 42
  80ca28  42 42 42 42 42 42 42 42 42 42 42 42 42 42 42 42
  80ca38  42 42 42 42 42 42 42 42 42 42 42 42 42 42 42 42
  80ca48  42 42 42 42 42 42 42 42 42 42 42 42 42 42 42 42
  80ca58  42 42 42 42 42 42 42 42 42 42 42 42 42 42 42 42
  80ca68  42 42 42 42 42 42 42 42 42 42 42 42 42 42 42 42
  80ca78  42 42 42 42 42 42 42 42 42 42 42 42 42 42 42 42
  80ca88  42 42 42 42 42 42 42 42 42 42 42 42 42 42 42 42
  80ca98  42 42 42 42 42 42 42 42 42 42 42 42 42 42 42 42
  80caa8  42 42 42 42 42 42 42 42 42 42 42 42 42 42 42 42
  80cab8  42 42 42 42 42 42 42 42 42 42 42 42 42 42 42 42
  80cac8  42 42 42 42 42 42 42 42 42 42 42 42 42 42 42 42
  80cad8  42 42 42 42 42 42 42 42 42 42 42 42 42 42 42 42
  80cae8  42 42 42 42 42 42 42 42 42 42 42 42 42 42 42 42
  80caf8  42 42 42 42 42 42 42 42 42 42 42 42 42 42 42 42
  80cb08  42 42 42 42 42 42 42 42 42 42 42 42 42 42 42 42
  80cb18  42 42 42 42 42 42 42 42 42 42 42 42 42 42 42 42
  80cb28  42 42 42 42 42 42 42 42 42 42 42 42 42 42 42 42
  80cb38  42 42 42 42 42 42 42 42 42 42 42 42 42 42 42 42
  80cb48  42 42 42 42 42 42 42 42 42 42 42 42 42 42 42 42
  80cb58  42 42 42 42 42 42 42 42 42 42 42 42 42 42 42 42
  80cb68  42 42 42 42 42 42 42 42 42 42 42 42 42 42 42 42
  80cb78  42 42 42 42 42 42 42 42 42 42 42 42 42 42 42 42
  80cb88  42 42 42 42 42 42 42 42 42 42 42 42 42 42 42 42
  80cb98  42 42 42 42 42 42 42 42 42 42 42 42 42 42 42 42
  80cba8  42 42 42 42 42 42 42 42 42 42 42 42 42 42 42 42
  80cbb8  42 42 42 42 42 42 42 42 42 42 42 42 42 42 42 42
  80cbc8  42 42 42 42 42 42 42 42 42 42 42 42 42 42 42 42
  80cbd8  42 42 42 42 42 42 42 42 42 42 42 42 42 42 42 42
  80cbe8  00 80 cc 34 00 00 00 01 00 00 00 10 00 00 00 10
  80cbf8  e1 0f 5f c0 42 42 42 42 00 00 00 10 00 80 cc 84
  80cc08  00 80 cc 98 00 00 00 00 e1 0f 40 8c 00 80 cc 34
  80cc18  00 80 ce 95 42 42 42 42 00 80 cc 98 42 42 42 42
  80cc28  00 80 cc 84 00 00 00 00 00 00 00 00 00 80 cc a0
  80cc38  00 00 00 00 00 00 00 00 00 80 ce c4 42 42 42 42
  80cc48  00 00 00 00 00 00 00 00 00 00 40 59 00 00 00 25
  80cc58  00 80 ce c4 00 80 ce c8 e1 10 40 59 00 00 00 25
  80cc68  00 00 00 00 e1 0f 38 a0 e1 0f 38 6a e1 0f 37 a0
  80cc78  e1 10 b6 b8 00 80 cf 44 00 00 00 46 00 00 00 00
  80cc88  00 00 00 00 ff ff ff ff 73 80 cf 14 42 42 42 42
  80cc98  64 30 30 30 37 30 65 00 20 20 20 20 20 20 20 20
  80cca8  20 20 20 20 20 20 20 20 20 20 20 20 20 20 20 20
  80ccb8  20 20 20 20 20 20 20 20 20 20 20 20 20 20 20 20
  80ccc8  20 20 20 20 20 20 20 20 20 20 20 20 20 20 20 20
  80ccd8  20 20 20 20 20 20 20 20 20 20 20 20 20 20 20 20
  80cce8  20 20 20 20 20 20 20 20 20 20 20 20 20 20 20 20
  80ccf8  20 20 20 20 20 20 20 20 20 20 20 20 20 20 20 20
  80cd08  20 20 20 20 20 20 20 20 20 20 20 20 20 20 20 20
  80cd18  20 20 20 20 20 20 20 20 20 20 20 20 20 20 20 20
  80cd28  20 20 20 20 20 20 20 20 20 20 20 20 20 20 20 20
  80cd38  20 20 20 20 20 20 20 20 20 20 20 20 20 20 20 20
  80cd48  20 20 20 20 20 20 20 20 20 20 20 20 20 20 20 20
  80cd58  20 20 20 20 20 20 20 20 20 20 20 20 20 20 20 20
  80cd68  20 20 20 20 20 20 20 20 20 20 20 20 20 20 20 20
  80cd78  20 20 20 20 20 20 20 20 20 20 20 20 20 20 20 20
  80cd88  20 20 20 20 20 20 20 20 20 20 20 20 20 20 20 20
  80cd98  20 20 20 20 20 20 20 20 20 20 20 20 20 20 20 20
  80cda8  20 20 20 20 20 20 20 20 20 20 20 20 20 20 20 20
  80cdb8  20 20 20 20 20 20 20 20 20 20 20 20 20 20 20 20
  80cdc8  20 20 20 20 20 20 20 20 20 20 20 20 20 20 20 20
  80cdd8  20 20 20 20 20 20 20 20 20 20 20 20 20 20 20 20
  80cde8  20 20 20 20 20 20 20 20 20 20 20 20 20 20 20 20
  80cdf8  20 20 20 20 20 20 20 20 20 20 20 20 20 20 20 20
  80ce08  20 20 20 20 20 20 20 20 20 20 20 20 20 20 20 20
  80ce18  20 20 20 20 20 20 20 20 20 20 20 20 20 20 20 20
  80ce28  20 20 20 20 20 20 20 20 20 20 20 20 20 20 20 20
  80ce38  20 20 20 20 20 20 20 20 20 20 20 20 20 20 20 20
  80ce48  20 20 20 20 20 20 20 20 20 20 20 20 20 20 20 20
  80ce58  20 20 20 20 20 20 20 20 20 20 20 20 20 20 20 20
  80ce68  20 20 20 20 20 20 20 20 20 20 20 20 20 20 20 20
  80ce78  20 20 20 20 20 20 20 20 20 20 20 20 20 20 20 20
  80ce88  20 20 20 20 20 20 64 30 30 30 37 30 65 00 20 20
  80ce98  20 20 20 20 20 20 20 20 00 00 00 00 20 20 20 20
  80cea8  e1 10 40 5a e4 35 b1 a0 e4 35 b1 a4 00 00 00 00
  80ceb8  e1 0a f7 74 00 00 00 08 00 00 04 fb e1 10 40 59
  80cec8  e4 35 b2 2a 00 00 04 fa e1 10 40 31 20 20 20 20
  80ced8  e4 35 b1 a4 00 00 00 00 00 80 cf 38 00 00 00 00
  80cee8  56 f9 3d 54 00 00 02 f4 e4 35 61 a8 00 00 00 00
  80cef8  e1 0a f7 ec e4 35 b1 a0 e1 10 b6 b8 00 00 00 00
  80cf08  00 80 cf 30 00 00 00 00 0d 00 07 0e 00 80 cf 38
  80cf18  e1 0b 10 0c 00 80 09 70 e1 0b 0a 04 e4 35 c0 40
  80cf28  e1 31 fb c0 30 96 00 07 30 96 00 07 e1 10 40 31
  80cf38  30 96 00 07 0d 00 07 0e e1 31 fb c0 00 00 00 00
  80cf48  00 00 01 53 bd 97 93 14 00 00 00 00 e1 31 c5 80
  80cf58  e1 31 fb c0 30 96 00 07 00 00 00 00 e1 10 b6 b8
  80cf68  00 80 09 6c 0d 00 07 0e 00 00 00 01 0d 00 07 0e
  80cf78  e1 0d d9 14 00 00 00 00 00 00 00 00 e1 31 fb c0
  80cf88  00 00 00 00 0d 00 07 0e 00 00 00 0c 00 00 00 0c
  80cf98  ff ff ff ff 00 00 00 00 00 00 00 00 e1 31 fb c0
  80cfa8  00 00 00 00 00 00 00 00 00 00 00 00 00 00 00 00
  80cfb8  00 01 00 88 00 00 00 00 00 2a c8 92 00 00 00 00
  80cfc8  30 96 00 07 00 00 00 00 00 80 d0 04 ff ff ff ff
  80cfd8  00 00 00 00 0d 00 07 0e 00 21 c5 c8 00 00 00 00
  80cfe8  e1 31 c7 78 e1 30 47 38 00 80 0f 00 00 2b ca 45
  80cff8  ff ff ff ff 30 96 00 07 09 00 07 fa 00 00 00 00
  80d008  00 01 00 88 00 00 00 01 00 21 c5 c8 00 00 00 00
  80d018  ff ff ff ff 0d 00 07 0e 00 80 d0 dc 00 00 00 00
  80d028  e0 fb 8c 54 00 00 00 05 e0 fa df 18 00 00 d6 df
  80d038  e1 31 c7 78 e1 30 47 38 00 80 0f 00 00 80 d0 68
  80d048  00 2a d3 40 ff ff ff ff 00 00 29 d9 e1 31 f9 98
  80d058  e1 31 c7 78 00 00 00 f5 e1 31 f9 c8 00 be bb 3b
  80d068  e0 fb 53 78 00 00 d6 df e0 fb 50 94 00 00 00 00
  80d078  00 80 d0 a8 e1 31 f7 70 e1 31 c7 78 00 00 00 01
  80d088  00 00 00 13 00 00 d6 df 00 00 00 00 00 00 d6 df
  80d098  00 00 00 01 e1 31 f7 70 e0 fb 50 4c 00 00 d6 df
  80d0a8  e1 31 c7 78 00 00 c1 5d e1 31 c7 78 00 00 00 00
  80d0b8  e1 0f 23 08 00 00 00 00 e0 fb 13 a0 e0 fb 2c 88
  80d0c8  0d 00 07 0e 00 00 00 00 02 cc 23 d0 e0 fa ad f4
  80d0d8  00 00 00 00 00 00 00 30 00 81 34 40 00 80 10 04
  80d0e8  00 00 00 00 00 00 00 00 00 00 00 00 00 00 00 00
  80d0f8  00 00 00 00 00 00 00 00 00 00 00 00 00 00 00 00
  80d108  00 00 00 00 00 00 00 00 00 00 00 00 10 00 02 02
  80d118  00 00 00 00 07 00 00 1d 00 20 47 ca 00 00 00 20
  80d128  00 00 00 00 00 00 02 0f 00 00 00 00 00 00 00 00
  80d138  00 00 00 00 00 00 00 13 00 80 d1 b8 00 00 00 00
  80d148  00 21 e5 ac 00 80 c9 a4 00 20 38 60 00 80 05 44
  80d158  00 80 05 40 00 80 a4 6c e1 30 4e 70 00 00 00 04
  80d168  00 80 0f 00 00 00 00 00 00 00 00 00 00 80 c9 a4
  80d178  00 00 00 48 00 80 c9 a4 e1 30 4e 68 e1 30 47 38
  80d188  e1 30 4e 78 e4 35 c3 b0 e0 fa b3 04 00 80 d1 b8
  80d198  00 84 5b 28 e1 30 47 38 00 00 00 48 e1 30 4e 74
  80d1a8  e1 0f 23 08 e1 30 47 38 e4 35 c3 b0 e1 30 4e 74
  80d1b8  00 00 00 00 e1 30 4e 68 00 00 00 03 00 00 70 8e
  80d1c8  00 00 70 8f 00 00 70 91 e0 fb 15 d0 42 42 42 42
  80d1d8  42 42 42 42 42 42 42 42 42 42 42 42 00 00 00 00
  80d1e8  42 42 42 42 00 00 00 00 00 00 00 00 42 42 42 42
  80d1f8  42 42 42 42 42 42 42 42 42 42 42 42 00 02 00 01
  80d208  42 42 42 42 42 42 42 42 42 42 42 42 42 42 42 42
  80d218  42 42 42 42 42 42 42 42 42 42 42 42 42 42 42 42
  80d228  42 42 42 42 42 42 42 42 42 42 42 42 42 42 42 42
  80d238  42 42 42 42 42 42 42 42 42 42 42 42 42 42 42 42
  80d248  42 42 42 42 42 42 42 42 42 42 42 42 42 42 42 42
  80d258  42 42 42 42 42 42 42 42 42 42 42 42 42 42 42 42
  80d268  42 42 42 42 42 42 42 42 42 42 42 42 42 42 42 42
  80d278  42 42 42 42 42 42 42 42 42 42 42 42 42 42 42 42
  80d288  42 42 42 42 42 42 42 42 42 42 42 42 42 42 42 42
  80d298  42 42 42 42 42 42 42 42 42 42 42 42 42 42 42 42
  80d2a8  42 42 42 42 42 42 42 42 42 42 42 42 42 42 42 42
  80d2b8  42 42 42 42 42 42 42 42 42 42 42 42 42 42 42 42
  80d2c8  42 42 42 42 42 42 42 42 42 42 42 42 42 42 42 42
  80d2d8  42 42 42 42 42 42 42 42 42 42 42 42 42 42 42 42
  80d2e8  42 42 42 42 42 42 42 42 42 42 42 42 42 42 42 42
  80d2f8  42 42 42 42 42 42 42 42 42 42 42 42 42 42 42 42
  80d308  42 42 42 42 42 42 42 42 42 42 42 42 42 42 42 42
  80d318  42 42 42 42 42 42 42 42 42 42 42 42 42 42 42 42
  80d328  42 42 42 42 42 42 42 42 42 42 42 42 00 00 00 02
  80d338  42 42 42 42 42 42 42 42 e1 30 4e b8 00 11 00 04
  80d348  00 00 ea 60 00 11 00 01 e1 30 4e 78 80 96 00 2c
  80d358  e1 30 4e 84 70 96 00 77 70 96 00 78 30 96 00 71
  80d368  70 96 00 76 70 96 00 89 30 96 00 8b 70 96 00 8a
  80d378  30 96 00 8c 30 96 00 18 30 96 00 7a 30 96 00 10
  80d388  70 96 00 3b 30 96 00 70 30 96 00 08 70 96 00 6d
  80d398  30 96 00 72 30 96 00 73 bf ff ff ff 40 00 00 00
  80d3a8  30 96 00 7d 10 00 00 00 80 00 00 00 30 96 00 74
  80d3b8  80 96 00 3c e1 30 4e 88 e1 30 4e 86 00 0c 00 01
  80d3c8  e1 30 4e 7c 00 0d 00 02 e1 30 4e 6c 30 96 00 03
  80d3d8  00 20 24 e0 00 00 00 20 00 00 00 00 00 00 02 0f
  80d3e8  00 20 25 28 00 00 00 00 00 80 ca 00 00 80 c9 a4
  80d3f8  e4 35 4e 50 00 80 c9 a4 00 80 04 90 00 80 c9 a4
  80d408  e1 0f 23 08 00 80 04 74 00 01 00 68 00 01 40 0c
  80d418  00 80 0f 00 00 00 00 04 00 80 ca 00 42 42 42 42

===============================================================================
Process: Pid = 0000001a, dss
Saved Registers
---------------

Process swapped out inside kernel. (small context)
Only PC (inside the kernel) and stack pointer shown.

  PC: 0x002047ca          SP: 0x0080e1e8

Stack Content
-------------

Stack size = 2064 storage units

Hex Addr  00 01 02 03 04 05 06 07 08 09 0a 0b 0c 0d 0e 0f
--------  -- -- -- -- -- -- -- -- -- -- -- -- -- -- -- --
  80dae0  2a 42 42 42 42 42 42 42 42 42 42 42 42 42 42 42
  80daf0  42 42 42 42 42 42 42 42 42 42 42 42 42 42 42 42
  80db00  42 42 42 42 42 42 42 42 42 42 42 42 42 42 42 42
  80db10  42 42 42 42 42 42 42 42 42 42 42 42 42 42 42 42
  80db20  42 42 42 42 42 42 42 42 42 42 42 42 42 42 42 42
  80db30  42 42 42 42 42 42 42 42 42 42 42 42 42 42 42 42
  80db40  42 42 42 42 42 42 42 42 42 42 42 42 42 42 42 42
  80db50  42 42 42 42 42 42 42 42 42 42 42 42 42 42 42 42
  80db60  42 42 42 42 42 42 42 42 42 42 42 42 42 42 42 42
  80db70  42 42 42 42 42 42 42 42 42 42 42 42 42 42 42 42
  80db80  42 42 42 42 42 42 42 42 42 42 42 42 42 42 42 42
  80db90  42 42 42 42 42 42 42 42 42 42 42 42 42 42 42 42
  80dba0  42 42 42 42 42 42 42 42 42 42 42 42 42 42 42 42
  80dbb0  42 42 42 42 42 42 42 42 42 42 42 42 42 42 42 42
  80dbc0  42 42 42 42 42 42 42 42 42 42 42 42 42 42 42 42
  80dbd0  42 42 42 42 42 42 42 42 42 42 42 42 42 42 42 42
  80dbe0  42 42 42 42 42 42 42 42 42 42 42 42 42 42 42 42
  80dbf0  42 42 42 42 42 42 42 42 42 42 42 42 42 42 42 42
  80dc00  42 42 42 42 42 42 42 42 42 42 42 42 42 42 42 42
  80dc10  42 42 42 42 42 42 42 42 42 42 42 42 42 42 42 42
  80dc20  42 42 42 42 42 42 42 42 42 42 42 42 42 42 42 42
  80dc30  42 42 42 42 42 42 42 42 42 42 42 42 42 42 42 42
  80dc40  42 42 42 42 42 42 42 42 42 42 42 42 42 42 42 42
  80dc50  42 42 42 42 42 42 42 42 42 42 42 42 42 42 42 42
  80dc60  42 42 42 42 42 42 42 42 42 42 42 42 42 42 42 42
  80dc70  42 42 42 42 42 42 42 42 42 42 42 42 42 42 42 42
  80dc80  42 42 42 42 42 42 42 42 42 42 42 42 42 42 42 42
  80dc90  42 42 42 42 42 42 42 42 42 42 42 42 42 42 42 42
  80dca0  42 42 42 42 42 42 42 42 42 42 42 42 42 42 42 42
  80dcb0  42 42 42 42 42 42 42 42 42 42 42 42 42 42 42 42
  80dcc0  42 42 42 42 42 42 42 42 42 42 42 42 42 42 42 42
  80dcd0  42 42 42 42 42 42 42 42 42 42 42 42 42 42 42 42
  80dce0  42 42 42 42 42 42 42 42 42 42 42 42 42 42 42 42
  80dcf0  42 42 42 42 42 42 42 42 42 42 42 42 42 42 42 42
  80dd00  42 42 42 42 42 42 42 42 42 42 42 42 42 42 42 42
  80dd10  42 42 42 42 42 42 42 42 42 42 42 42 42 42 42 42
  80dd20  42 42 42 42 42 42 42 42 42 42 42 42 42 42 42 42
  80dd30  42 42 42 42 42 42 42 42 42 42 42 42 42 42 42 42
  80dd40  42 42 42 42 42 42 42 42 42 42 42 42 42 42 42 42
  80dd50  42 42 42 42 42 42 42 42 42 42 42 42 42 42 42 42
  80dd60  42 42 42 42 42 42 42 42 42 42 42 42 42 42 42 42
  80dd70  42 42 42 42 42 42 42 42 42 42 42 42 42 42 42 42
  80dd80  42 42 42 42 42 42 42 42 42 42 42 42 42 42 42 42
  80dd90  42 42 42 42 42 42 42 42 42 42 42 42 42 42 42 42
  80dda0  42 42 42 42 42 42 42 42 42 42 42 42 42 42 42 42
  80ddb0  42 42 42 42 42 42 42 42 42 42 42 42 42 42 42 42
  80ddc0  42 42 42 42 42 42 42 42 42 42 42 42 42 42 42 42
  80ddd0  42 42 42 42 42 42 42 42 42 42 42 42 42 42 42 42
  80dde0  42 42 42 42 42 42 42 42 42 42 42 42 42 42 42 42
  80ddf0  42 42 42 42 42 42 42 42 42 42 42 42 42 42 42 42
  80de00  42 42 42 42 42 42 42 42 42 42 42 42 42 42 42 42
  80de10  42 42 42 42 42 42 42 42 42 42 42 42 42 42 42 42
  80de20  42 42 42 42 42 42 42 42 42 42 42 42 42 42 42 42
  80de30  42 42 42 42 42 42 42 42 42 42 42 42 42 42 42 42
  80de40  42 42 42 42 42 42 42 42 42 42 42 42 42 42 42 42
  80de50  42 42 42 42 42 42 42 42 42 42 42 42 42 42 42 42
  80de60  42 42 42 42 42 42 42 42 42 42 42 42 42 42 42 42
  80de70  42 42 42 42 42 42 42 42 42 42 42 42 42 42 42 42
  80de80  42 42 42 42 42 42 42 42 42 42 42 42 42 42 42 42
  80de90  42 42 42 42 42 42 42 42 42 42 42 42 42 42 42 42
  80dea0  42 42 42 42 42 42 42 42 42 42 42 42 42 42 42 42
  80deb0  42 42 42 42 42 42 42 42 42 42 42 42 42 42 42 42
  80dec0  42 42 42 42 42 42 42 42 42 42 42 42 42 42 42 42
  80ded0  42 42 42 42 42 42 42 42 42 42 42 42 42 42 42 42
  80dee0  42 42 42 42 42 42 42 42 42 42 42 42 42 42 42 42
  80def0  42 42 42 42 42 42 42 42 42 42 42 42 42 42 42 42
  80df00  42 42 42 42 42 42 42 42 42 42 42 42 42 42 42 42
  80df10  42 42 42 42 42 42 42 42 42 42 42 42 42 42 42 42
  80df20  42 42 42 42 42 42 42 42 42 42 42 42 42 42 42 42
  80df30  42 42 42 42 42 42 42 42 42 42 42 42 42 42 42 42
  80df40  42 42 42 42 42 42 42 42 42 42 42 42 42 42 42 42
  80df50  42 42 42 42 42 42 42 42 42 42 42 42 42 42 42 42
  80df60  42 42 42 42 42 42 42 42 42 42 42 42 42 42 42 42
  80df70  42 42 42 42 42 42 42 42 42 42 42 42 42 42 42 42
  80df80  42 42 42 42 42 42 42 42 42 42 42 42 42 42 42 42
  80df90  42 42 42 42 42 42 42 42 42 42 42 42 42 42 42 42
  80dfa0  42 42 42 42 42 42 42 42 42 42 42 42 42 42 42 42
  80dfb0  42 42 42 42 42 42 42 42 42 42 42 42 42 42 42 42
  80dfc0  42 42 42 42 42 42 42 42 42 42 42 42 42 42 42 42
  80dfd0  42 42 42 42 42 42 42 42 42 42 42 42 42 42 42 42
  80dfe0  42 42 42 42 42 42 42 42 42 42 42 42 42 42 42 42
  80dff0  42 42 42 42 42 42 42 42 42 42 42 42 42 42 42 42
  80e000  42 42 42 42 42 42 42 42 42 42 42 42 42 42 42 42
  80e010  42 42 42 42 42 42 42 42 42 42 42 42 42 42 42 42
  80e020  42 42 42 42 42 42 42 42 42 42 42 42 42 42 42 42
  80e030  42 42 42 42 42 42 42 42 42 42 42 42 42 42 42 42
  80e040  42 42 42 42 42 42 42 42 42 42 42 42 42 42 42 42
  80e050  42 42 42 42 42 42 42 42 42 42 42 42 42 42 42 42
  80e060  42 42 42 42 42 42 42 42 42 42 42 42 42 42 42 42
  80e070  42 42 42 42 42 42 42 42 42 42 42 42 42 42 42 42
  80e080  42 42 42 42 42 42 42 42 42 42 42 42 42 42 42 42
  80e090  42 42 42 42 42 42 42 42 42 42 42 42 42 42 42 42
  80e0a0  42 42 42 42 42 42 42 42 42 42 42 42 42 42 42 42
  80e0b0  42 42 42 42 42 42 42 42 42 42 42 42 42 42 42 42
  80e0c0  42 42 42 42 42 42 42 42 42 42 42 42 42 42 42 42
  80e0d0  42 42 42 42 42 42 42 42 42 42 42 42 42 42 42 42
  80e0e0  42 42 42 42 42 42 42 42 42 42 42 42 42 42 42 42
  80e0f0  42 42 42 42 42 42 42 42 42 42 42 42 42 42 42 42
  80e100  42 42 42 42 42 42 42 42 42 42 42 42 42 42 42 42
  80e110  42 42 42 42 42 42 42 42 42 42 42 42 42 42 42 42
  80e120  42 42 42 42 42 42 42 42 42 42 42 42 42 42 42 42
  80e130  42 42 42 42 42 42 42 42 42 42 42 42 42 42 42 42
  80e140  42 42 42 42 42 42 42 42 42 42 42 42 42 42 42 42
  80e150  42 42 42 42 42 42 42 42 42 42 42 42 42 42 42 42
  80e160  42 42 42 42 42 42 42 42 42 42 42 42 42 42 42 42
  80e170  42 42 42 42 42 42 42 42 42 42 42 42 42 42 42 42
  80e180  42 42 42 42 42 42 42 42 42 42 42 42 42 42 42 42
  80e190  42 42 42 42 42 42 42 42 42 42 42 42 42 42 42 42
  80e1a0  42 42 42 42 42 42 42 42 42 42 42 42 42 42 42 42
  80e1b0  10 00 02 02 00 00 00 00 07 00 00 1d 00 20 07 70
  80e1c0  00 00 00 28 00 00 00 00 00 00 02 0f 00 00 00 00
  80e1d0  00 00 00 00 00 00 00 00 e4 35 69 98 00 00 00 02
  80e1e0  e1 0f 32 e0 10 00 02 02 00 81 35 10 00 00 00 13
  80e1f0  00 00 02 00 10 00 02 02 00 00 00 00 07 00 00 1d
  80e200  00 20 47 ca 00 00 00 20 00 00 00 00 00 00 42 0f
  80e210  00 00 00 00 00 00 00 00 00 00 00 00 00 00 00 00
  80e220  00 80 e2 a0 00 00 00 00 00 21 e5 ac 00 80 da 6c
  80e230  00 20 38 60 00 80 05 44 00 80 05 40 00 80 10 64
  80e240  80 00 00 09 00 00 00 04 00 80 0f 00 00 84 57 0c
  80e250  00 00 00 00 00 80 da 6c 00 00 80 04 00 80 da 6c
  80e260  00 80 04 74 00 00 00 78 80 27 00 02 e1 31 c7 78
  80e270  e0 fe d9 aa 00 80 e2 a0 00 00 10 07 30 27 00 0a
  80e280  00 00 80 04 00 00 ab ba e1 0f 23 08 30 27 00 0c
  80e290  30 27 00 0b 00 00 00 00 00 00 00 00 00 00 00 01
  80e2a0  00 00 00 00 00 00 00 16 00 00 00 00 00 80 05 44
  80e2b0  00 20 25 28 00 00 00 00 00 80 da c8 00 80 da 6c
  80e2c0  00 80 d1 18 00 80 da 6c 00 80 04 90 00 80 da 6c
  80e2d0  e1 0f 23 08 00 80 04 74 00 01 00 68 00 01 40 0c
  80e2e0  00 80 0f 00 00 00 00 04 00 80 da c8 42 42 42 42

===============================================================================
Process: Pid = 0000001b, dfa
Saved Registers
---------------

Process swapped out inside kernel. (small context)
Only PC (inside the kernel) and stack pointer shown.

  PC: 0x002047ca          SP: 0x0080ea80

Stack Content
-------------

Stack size = 2064 storage units

Hex Addr  00 01 02 03 04 05 06 07 08 09 0a 0b 0c 0d 0e 0f
--------  -- -- -- -- -- -- -- -- -- -- -- -- -- -- -- --
  80e3a8  2a 42 42 42 42 42 42 42 42 42 42 42 42 42 42 42
  80e3b8  42 42 42 42 42 42 42 42 42 42 42 42 42 42 42 42
  80e3c8  42 42 42 42 42 42 42 42 42 42 42 42 42 42 42 42
  80e3d8  42 42 42 42 42 42 42 42 42 42 42 42 42 42 42 42
  80e3e8  42 42 42 42 42 42 42 42 42 42 42 42 42 42 42 42
  80e3f8  42 42 42 42 42 42 42 42 42 42 42 42 42 42 42 42
  80e408  42 42 42 42 42 42 42 42 42 42 42 42 42 42 42 42
  80e418  42 42 42 42 42 42 42 42 42 42 42 42 42 42 42 42
  80e428  42 42 42 42 42 42 42 42 42 42 42 42 42 42 42 42
  80e438  42 42 42 42 42 42 42 42 42 42 42 42 42 42 42 42
  80e448  42 42 42 42 42 42 42 42 42 42 42 42 42 42 42 42
  80e458  42 42 42 42 42 42 42 42 42 42 42 42 42 42 42 42
  80e468  42 42 42 42 42 42 42 42 42 42 42 42 42 42 42 42
  80e478  42 42 42 42 42 42 42 42 42 42 42 42 42 42 42 42
  80e488  42 42 42 42 42 42 42 42 42 42 42 42 42 42 42 42
  80e498  42 42 42 42 42 42 42 42 42 42 42 42 42 42 42 42
  80e4a8  42 42 42 42 42 42 42 42 42 42 42 42 42 42 42 42
  80e4b8  42 42 42 42 42 42 42 42 42 42 42 42 42 42 42 42
  80e4c8  42 42 42 42 42 42 42 42 42 42 42 42 42 42 42 42
  80e4d8  42 42 42 42 42 42 42 42 42 42 42 42 42 42 42 42
  80e4e8  42 42 42 42 42 42 42 42 42 42 42 42 42 42 42 42
  80e4f8  42 42 42 42 42 42 42 42 42 42 42 42 42 42 42 42
  80e508  42 42 42 42 42 42 42 42 42 42 42 42 42 42 42 42
  80e518  42 42 42 42 42 42 42 42 42 42 42 42 42 42 42 42
  80e528  42 42 42 42 42 42 42 42 42 42 42 42 42 42 42 42
  80e538  42 42 42 42 42 42 42 42 42 42 42 42 42 42 42 42
  80e548  42 42 42 42 42 42 42 42 42 42 42 42 42 42 42 42
  80e558  42 42 42 42 42 42 42 42 42 42 42 42 42 42 42 42
  80e568  42 42 42 42 42 42 42 42 42 42 42 42 42 42 42 42
  80e578  42 42 42 42 42 42 42 42 42 42 42 42 42 42 42 42
  80e588  42 42 42 42 42 42 42 42 42 42 42 42 42 42 42 42
  80e598  42 42 42 42 42 42 42 42 42 42 42 42 42 42 42 42
  80e5a8  42 42 42 42 42 42 42 42 42 42 42 42 42 42 42 42
  80e5b8  42 42 42 42 42 42 42 42 42 42 42 42 42 42 42 42
  80e5c8  42 42 42 42 42 42 42 42 42 42 42 42 42 42 42 42
  80e5d8  42 42 42 42 42 42 42 42 42 42 42 42 42 42 42 42
  80e5e8  42 42 42 42 42 42 42 42 42 42 42 42 42 42 42 42
  80e5f8  42 42 42 42 42 42 42 42 42 42 42 42 42 42 42 42
  80e608  42 42 42 42 42 42 42 42 42 42 42 42 42 42 42 42
  80e618  42 42 42 42 42 42 42 42 42 42 42 42 42 42 42 42
  80e628  42 42 42 42 42 42 42 42 42 42 42 42 42 42 42 42
  80e638  42 42 42 42 42 42 42 42 42 42 42 42 42 42 42 42
  80e648  42 42 42 42 42 42 42 42 42 42 42 42 42 42 42 42
  80e658  42 42 42 42 42 42 42 42 42 42 42 42 42 42 42 42
  80e668  42 42 42 42 42 42 42 42 42 42 42 42 42 42 42 42
  80e678  42 42 42 42 42 42 42 42 42 42 42 42 42 42 42 42
  80e688  42 42 42 42 42 42 42 42 42 42 42 42 42 42 42 42
  80e698  42 42 42 42 42 42 42 42 42 42 42 42 42 42 42 42
  80e6a8  42 42 42 42 42 42 42 42 42 42 42 42 42 42 42 42
  80e6b8  42 42 42 42 42 42 42 42 42 42 42 42 42 42 42 42
  80e6c8  42 42 42 42 42 42 42 42 42 42 42 42 42 42 42 42
  80e6d8  42 42 42 42 42 42 42 42 42 42 42 42 42 42 42 42
  80e6e8  42 42 42 42 42 42 42 42 42 42 42 42 42 42 42 42
  80e6f8  42 42 42 42 42 42 42 42 42 42 42 42 42 42 42 42
  80e708  42 42 42 42 42 42 42 42 42 42 42 42 42 42 42 42
  80e718  42 42 42 42 42 42 42 42 42 42 42 42 42 42 42 42
  80e728  42 42 42 42 42 42 42 42 42 42 42 42 42 42 42 42
  80e738  42 42 42 42 42 42 42 42 42 42 42 42 42 42 42 42
  80e748  42 42 42 42 42 42 42 42 42 42 42 42 42 42 42 42
  80e758  42 42 42 42 42 42 42 42 42 42 42 42 42 42 42 42
  80e768  42 42 42 42 00 80 ea 28 00 00 00 9e 00 00 00 00
  80e778  00 00 00 00 ff ff ff ff 00 42 42 42 42 42 42 42
  80e788  42 42 42 42 42 42 42 42 42 42 42 42 42 42 42 42
  80e798  42 42 42 42 42 42 42 42 42 42 42 42 42 42 42 42
  80e7a8  42 42 42 42 42 42 42 42 42 42 42 42 42 42 42 42
  80e7b8  42 42 42 42 42 42 42 42 42 42 42 42 42 42 42 42
  80e7c8  42 42 42 42 42 42 42 42 42 42 42 42 42 42 42 42
  80e7d8  42 42 42 42 42 42 42 42 42 42 42 42 42 42 42 42
  80e7e8  42 42 42 42 42 42 42 42 42 42 42 42 42 42 42 42
  80e7f8  42 42 42 42 42 42 42 42 42 42 42 42 42 42 42 42
  80e808  42 42 42 42 42 42 42 42 42 42 42 42 42 42 42 42
  80e818  42 42 42 42 42 42 42 42 42 42 42 42 42 42 42 42
  80e828  42 42 42 42 10 00 02 02 00 00 00 00 07 00 00 1d
  80e838  00 20 73 32 00 00 00 20 00 00 00 00 00 00 02 0d
  80e848  00 00 00 00 00 00 00 00 00 00 00 00 42 42 42 42
  80e858  00 00 00 25 00 00 00 00 02 cc 00 04 10 00 02 02
  80e868  00 00 00 94 00 00 00 25 00 00 02 00 00 00 04 00
  80e878  00 00 00 00 00 00 00 00 00 00 10 00 00 00 00 90
  80e888  00 00 00 00 00 00 00 00 00 00 00 00 00 00 00 91
  80e898  00 00 00 00 00 00 00 00 00 00 00 00 7f ff ff ff
  80e8a8  47 0b d8 0c 00 80 04 66 00 00 00 20 00 00 00 00
  80e8b8  00 00 00 00 00 00 7f ff 00 00 02 0f f0 00 00 00
  80e8c8  00 00 46 00 41 44 30 31 00 00 00 00 00 00 2f 6d
  80e8d8  00 00 00 01 c0 00 00 00 00 00 00 00 00 00 7f ff
  80e8e8  78 00 00 00 00 80 0b 60 70 00 00 00 10 00 02 02
  80e8f8  00 00 00 00 07 00 00 1d 00 20 1c 0c 00 00 00 20
  80e908  00 00 00 00 00 00 02 0f 00 00 00 00 00 00 00 00
  80e918  00 00 00 00 00 80 0b 60 e1 31 f7 70 00 00 00 00
  80e928  e1 0f 32 e0 10 00 02 02 00 00 00 94 00 00 00 75
  80e938  00 00 02 00 00 00 04 00 00 00 00 00 00 00 00 00
  80e948  00 00 10 00 00 00 00 90 00 00 00 00 00 00 00 00
  80e958  00 00 00 00 00 00 00 91 00 00 00 00 00 00 00 00
  80e968  00 00 00 00 7f ff ff ff 47 0b d8 0c 80 00 00 00
  80e978  00 00 00 20 00 00 00 00 00 00 00 00 00 80 ac 88
  80e988  00 00 42 0f 00 00 00 00 00 00 00 00 00 00 00 00
  80e998  00 00 00 00 00 00 00 00 00 00 00 00 10 00 02 02
  80e9a8  00 00 00 00 07 00 00 1d 00 20 61 8a 00 00 00 20
  80e9b8  00 00 00 00 00 00 02 0f 00 00 00 00 00 00 00 00
  80e9c8  00 00 00 00 10 00 02 03 00 00 00 01 00 00 00 72
  80e9d8  00 81 36 0c 10 00 02 02 00 81 36 10 00 00 00 76
  80e9e8  00 00 02 00 00 00 04 00 00 00 00 00 00 00 00 00
  80e9f8  00 00 10 00 00 00 00 90 00 00 00 00 00 00 00 00
  80ea08  00 00 00 00 00 00 00 91 00 00 00 00 00 00 00 00
  80ea18  00 00 00 00 7f ff ff ff 47 0b d8 0c 80 00 00 00
  80ea28  00 00 00 20 00 00 00 00 00 84 2f 4c 00 00 00 00
  80ea38  00 00 02 0f f0 00 00 00 00 00 00 00 00 00 00 00
  80ea48  e1 31 c6 28 00 00 00 00 02 cc 23 d0 e0 fb ed 76
  80ea58  00 00 00 00 00 00 00 30 00 81 34 40 00 80 10 04
  80ea68  10 00 02 03 00 00 03 88 00 00 00 06 ae 73 ba 55
  80ea78  00 01 d4 c0 00 80 be e0 ae 73 ba 55 00 00 00 00
  80ea88  00 20 61 18 10 00 02 02 00 00 00 00 07 00 00 1d
  80ea98  00 20 47 ca 00 00 00 20 00 00 00 00 00 00 02 0f
  80eaa8  00 00 00 00 00 00 00 00 00 00 00 00 00 00 00 00
  80eab8  00 80 eb 48 00 00 00 00 00 21 e5 ac 00 80 e2 f4
  80eac8  00 20 38 60 00 80 05 44 00 80 05 40 00 80 10 64
  80ead8  e1 31 b7 e8 00 00 00 04 00 80 0f 00 00 00 00 08
  80eae8  00 00 00 00 00 80 e2 f4 00 00 00 04 00 80 e2 f4
  80eaf8  00 00 00 47 ef 77 d1 6c 70 a8 00 02 00 00 00 47
  80eb08  e0 fb f5 60 00 80 eb 48 00 0a 00 03 70 a8 00 13
  80eb18  00 00 00 04 00 00 00 00 00 00 64 c5 e1 31 b7 e8
  80eb28  70 a8 00 04 00 00 00 00 00 00 00 00 00 00 00 00
  80eb38  00 00 00 00 00 00 00 00 00 00 00 00 42 42 42 42
  80eb48  00 00 00 00 42 42 42 42 70 a8 00 09 00 00 ea 60
  80eb58  00 0a 00 00 80 a8 00 14 80 a8 00 12 00 05 00 02
  80eb68  00 05 00 01 00 0c 00 05 00 00 00 00 00 00 42 0f
  80eb78  00 20 25 28 00 00 00 00 00 80 e3 90 00 80 e2 f4
  80eb88  00 80 d1 18 00 80 e2 f4 00 80 04 90 00 80 e2 f4
  80eb98  e1 0f 23 08 00 80 04 74 00 01 00 68 00 01 40 0c
  80eba8  00 80 0f 00 00 00 00 04 00 80 e3 90 42 42 42 42

===============================================================================
Process: Pid = 0000001c, dms
Saved Registers
---------------

Process swapped out inside kernel. (small context)
Only PC (inside the kernel) and stack pointer shown.

  PC: 0x002047ca          SP: 0x0080f3e8

Stack Content
-------------

Stack size = 2064 storage units

Hex Addr  00 01 02 03 04 05 06 07 08 09 0a 0b 0c 0d 0e 0f
--------  -- -- -- -- -- -- -- -- -- -- -- -- -- -- -- --
  80ecb0  2a 42 42 42 42 42 42 42 42 42 42 42 42 42 42 42
  80ecc0  42 42 42 42 42 42 42 42 42 42 42 42 42 42 42 42
  80ecd0  42 42 42 42 42 42 42 42 42 42 42 42 42 42 42 42
  80ece0  42 42 42 42 42 42 42 42 42 42 42 42 42 42 42 42
  80ecf0  42 42 42 42 42 42 42 42 42 42 42 42 42 42 42 42
  80ed00  42 42 42 42 42 42 42 42 42 42 42 42 42 42 42 42
  80ed10  42 42 42 42 42 42 42 42 42 42 42 42 42 42 42 42
  80ed20  42 42 42 42 42 42 42 42 42 42 42 42 42 42 42 42
  80ed30  42 42 42 42 42 42 42 42 42 42 42 42 42 42 42 42
  80ed40  42 42 42 42 42 42 42 42 42 42 42 42 42 42 42 42
  80ed50  42 42 42 42 42 42 42 42 42 42 42 42 42 42 42 42
  80ed60  42 42 42 42 42 42 42 42 42 42 42 42 42 42 42 42
  80ed70  42 42 42 42 42 42 42 42 42 42 42 42 42 42 42 42
  80ed80  42 42 42 42 42 42 42 42 42 42 42 42 42 42 42 42
  80ed90  42 42 42 42 42 42 42 42 42 42 42 42 42 42 42 42
  80eda0  42 42 42 42 42 42 42 42 42 42 42 42 42 42 42 42
  80edb0  42 42 42 42 42 42 42 42 42 42 42 42 42 42 42 42
  80edc0  42 42 42 42 42 42 42 42 42 42 42 42 42 42 42 42
  80edd0  42 42 42 42 42 42 42 42 42 42 42 42 42 42 42 42
  80ede0  42 42 42 42 42 42 42 42 42 42 42 42 42 42 42 42
  80edf0  42 42 42 42 42 42 42 42 42 42 42 42 42 42 42 42
  80ee00  42 42 42 42 42 42 42 42 42 42 42 42 42 42 42 42
  80ee10  42 42 42 42 42 42 42 42 42 42 42 42 42 42 42 42
  80ee20  42 42 42 42 42 42 42 42 42 42 42 42 42 42 42 42
  80ee30  42 42 42 42 42 42 42 42 42 42 42 42 42 42 42 42
  80ee40  42 42 42 42 42 42 42 42 42 42 42 42 42 42 42 42
  80ee50  42 42 42 42 42 42 42 42 42 42 42 42 42 42 42 42
  80ee60  42 42 42 42 42 42 42 42 42 42 42 42 42 42 42 42
  80ee70  42 42 42 42 42 42 42 42 42 42 42 42 42 42 42 42
  80ee80  42 42 42 42 42 42 42 42 42 42 42 42 42 42 42 42
  80ee90  42 42 42 42 42 42 42 42 42 42 42 42 42 42 42 42
  80eea0  42 42 42 42 42 42 42 42 42 42 42 42 42 42 42 42
  80eeb0  42 42 42 42 42 42 42 42 42 42 42 42 42 42 42 42
  80eec0  42 42 42 42 42 42 42 42 42 42 42 42 42 42 42 42
  80eed0  42 42 42 42 42 42 42 42 42 42 42 42 42 42 42 42
  80eee0  42 42 42 42 42 42 42 42 42 42 42 42 42 42 42 42
  80eef0  42 42 42 42 42 42 42 42 42 42 42 42 42 42 42 42
  80ef00  42 42 42 42 42 42 42 42 42 42 42 42 42 42 42 42
  80ef10  42 42 42 42 42 42 42 42 42 42 42 42 42 42 42 42
  80ef20  42 42 42 42 42 42 42 42 42 42 42 42 42 42 42 42
  80ef30  42 42 42 42 42 42 42 42 42 42 42 42 42 42 42 42
  80ef40  42 42 42 42 42 42 42 42 42 42 42 42 42 42 42 42
  80ef50  42 42 42 42 42 42 42 42 42 42 42 42 42 42 42 42
  80ef60  42 42 42 42 42 42 42 42 42 42 42 42 42 42 42 42
  80ef70  42 42 42 42 42 42 42 42 42 42 42 42 42 42 42 42
  80ef80  42 42 42 42 42 42 42 42 42 42 42 42 42 42 42 42
  80ef90  42 42 42 42 42 42 42 42 42 42 42 42 42 42 42 42
  80efa0  42 42 42 42 42 42 42 42 42 42 42 42 42 42 42 42
  80efb0  42 42 42 42 42 42 42 42 42 42 42 42 42 42 42 42
  80efc0  42 42 42 42 42 42 42 42 42 42 42 42 42 42 42 42
  80efd0  42 42 42 42 42 42 42 42 42 42 42 42 42 42 42 42
  80efe0  42 42 42 42 42 42 42 42 42 42 42 42 42 42 42 42
  80eff0  42 42 42 42 42 42 42 42 42 42 42 42 42 42 42 42
  80f000  42 42 42 42 42 42 42 42 42 42 42 42 42 42 42 42
  80f010  42 42 42 42 42 42 42 42 42 42 42 42 42 42 42 42
  80f020  42 42 42 42 42 42 42 42 42 42 42 42 42 42 42 42
  80f030  42 42 42 42 42 42 42 42 42 42 42 42 42 42 42 42
  80f040  42 42 42 42 42 42 42 42 42 42 42 42 42 42 42 42
  80f050  42 42 42 42 42 42 42 42 42 42 42 42 42 42 42 42
  80f060  42 42 42 42 42 42 42 42 42 42 42 42 42 42 42 42
  80f070  42 42 42 42 42 42 42 42 42 42 42 42 42 42 42 42
  80f080  42 42 42 42 42 42 42 42 42 42 42 42 42 42 42 42
  80f090  42 42 42 42 42 42 42 42 42 42 42 42 42 42 42 42
  80f0a0  42 42 42 42 42 42 42 42 42 42 42 42 42 42 42 42
  80f0b0  42 42 42 42 42 42 42 42 42 42 42 42 42 42 42 42
  80f0c0  42 42 42 42 42 42 42 42 42 42 42 42 42 42 42 42
  80f0d0  42 42 42 42 42 42 42 42 42 42 42 42 42 42 42 42
  80f0e0  42 42 42 42 42 42 42 42 42 42 42 42 42 42 42 42
  80f0f0  42 42 42 42 42 42 42 42 42 42 42 42 42 42 42 42
  80f100  42 42 42 42 42 42 42 42 42 42 42 42 42 42 42 42
  80f110  42 42 42 42 42 42 42 42 42 42 42 42 42 42 42 42
  80f120  42 42 42 42 42 42 42 42 42 42 42 42 42 42 42 42
  80f130  42 42 42 42 42 42 42 42 42 42 42 42 42 42 42 42
  80f140  42 42 42 42 42 42 42 42 42 42 42 42 42 42 42 42
  80f150  42 42 42 42 42 42 42 42 42 42 42 42 42 42 42 42
  80f160  42 42 42 42 42 42 42 42 42 42 42 42 42 42 42 42
  80f170  42 42 42 42 42 42 42 42 42 42 42 42 42 42 42 42
  80f180  42 42 42 42 42 42 42 42 42 42 42 42 42 42 42 42
  80f190  42 42 42 42 42 42 42 42 42 42 42 42 42 42 42 42
  80f1a0  42 42 42 42 42 42 42 42 42 42 42 42 42 42 42 42
  80f1b0  42 42 42 42 42 42 42 42 42 42 42 42 42 42 42 42
  80f1c0  42 42 42 42 42 42 42 42 42 42 42 42 42 42 42 42
  80f1d0  42 42 42 42 42 42 42 42 42 42 42 42 42 42 42 42
  80f1e0  42 42 42 42 42 42 42 42 42 42 42 42 42 42 42 42
  80f1f0  42 42 42 42 42 42 42 42 42 42 42 42 42 42 42 42
  80f200  42 42 42 42 42 42 42 42 42 42 42 42 10 00 02 02
  80f210  00 00 00 00 07 00 00 1d e1 0e c2 c0 00 00 00 20
  80f220  00 00 00 00 00 00 02 0f 00 00 00 00 00 00 00 00
  80f230  00 00 00 00 42 42 42 42 00 00 00 2a 00 00 00 00
  80f240  02 cc 00 04 10 00 02 02 00 81 36 10 00 00 00 13
  80f250  00 00 02 00 00 00 04 00 00 00 00 00 00 00 00 00
  80f260  00 00 10 00 00 00 00 90 00 00 00 00 00 02 56 58
  80f270  00 00 00 00 00 00 00 91 00 00 00 00 00 19 b5 c8
  80f280  00 00 00 3c 7f ff ff ff 00 84 62 f0 80 00 00 00
  80f290  00 00 00 20 00 00 00 00 00 84 2f 4c 10 00 02 02
  80f2a0  00 00 00 00 07 00 00 1d 00 20 96 18 00 00 00 20
  80f2b0  00 00 00 00 10 00 02 02 00 00 00 00 07 00 00 1d
  80f2c0  00 84 27 d4 00 80 7b f0 00 20 73 c4 00 00 02 0f
  80f2d0  00 20 97 16 00 80 0b 60 00 20 a4 c4 e1 31 c2 b0
  80f2e0  00 80 7b f0 00 80 0b 60 00 84 27 d4 00 80 7b f0
  80f2f0  00 20 73 c4 00 80 2f 18 00 20 97 16 00 80 0b 60
  80f300  00 20 a4 c4 e4 35 68 68 00 80 7b f0 00 80 0b 60
  80f310  e4 35 c3 d0 e4 35 bf 38 00 80 45 30 00 80 2f 18
  80f320  20 00 e0 0c 00 00 00 18 e1 0f 0c 44 e4 35 c3 d0
  80f330  00 00 00 01 00 81 36 68 00 80 80 00 00 00 00 00
  80f340  00 00 00 18 00 80 46 70 e1 0e d7 58 00 00 00 3e
  80f350  00 00 00 00 00 00 00 14 00 00 00 01 00 00 00 01
  80f360  00 00 00 18 00 00 00 00 00 00 00 00 07 00 00 1d
  80f370  00 00 00 00 00 00 00 01 00 00 7f ff 00 00 00 01
  80f380  00 00 00 94 00 00 00 0d e1 0e 92 7c 00 00 04 00
  80f390  e4 35 a1 80 00 80 f3 f0 00 00 00 01 00 00 00 1c
  80f3a0  e1 31 c9 50 00 81 38 9c 00 20 1d 28 bd 97 8d e1
  80f3b0  e4 35 c3 68 00 80 f3 f0 e4 35 c1 f8 e1 31 c9 70
  80f3c0  47 0b d8 0c 80 00 00 00 00 21 e5 04 00 80 05 40
  80f3d0  e0 fc 13 18 00 00 00 1c 00 01 00 68 00 01 40 0c
  80f3e0  e1 31 c9 50 00 81 38 9c 00 00 01 53 e1 31 c9 70
  80f3f0  e1 31 c9 70 10 00 02 02 00 00 00 00 07 00 00 1d
  80f400  00 20 47 ca 00 00 00 20 00 00 00 00 00 00 02 0f
  80f410  00 00 00 00 00 00 00 00 00 00 00 00 00 00 00 00
  80f420  00 80 f4 a0 00 00 00 00 00 21 e5 ac 00 80 eb fc
  80f430  00 20 38 60 00 80 05 44 00 80 05 40 00 80 10 64
  80f440  00 01 00 68 00 00 00 04 00 80 0f 00 e1 31 c8 20
  80f450  00 00 00 00 00 80 eb fc 00 80 d1 18 00 80 eb fc
  80f460  00 80 04 74 00 00 00 00 00 01 40 0c e1 31 c2 b0
  80f470  e0 fc 14 30 00 80 f4 a0 00 80 04 90 00 80 eb fc
  80f480  00 80 d1 18 00 80 eb fc e1 0f 23 08 e1 31 c2 b0
  80f490  00 80 ec 98 00 00 00 00 00 00 00 00 00 80 04 74
  80f4a0  00 00 00 00 00 00 00 04 00 80 d1 18 00 80 eb fc
  80f4b0  00 80 ec 98 00 00 00 04 00 80 ec 98 42 42 42 42

===============================================================================
Process: Pid = 0000001d, dirt
Saved Registers
---------------

Process swapped out inside kernel. (small context)
Only PC (inside the kernel) and stack pointer shown.

  PC: 0x002047ca          SP: 0x0080fcc8

Stack Content
-------------

Stack size = 2064 storage units

Hex Addr  00 01 02 03 04 05 06 07 08 09 0a 0b 0c 0d 0e 0f
--------  -- -- -- -- -- -- -- -- -- -- -- -- -- -- -- --
  80f5b8  2a 42 42 42 42 42 42 42 42 42 42 42 42 42 42 42
  80f5c8  42 42 42 42 42 42 42 42 42 42 42 42 42 42 42 42
  80f5d8  42 42 42 42 42 42 42 42 42 42 42 42 42 42 42 42
  80f5e8  42 42 42 42 42 42 42 42 42 42 42 42 42 42 42 42
  80f5f8  42 42 42 42 42 42 42 42 42 42 42 42 42 42 42 42
  80f608  42 42 42 42 42 42 42 42 42 42 42 42 42 42 42 42
  80f618  42 42 42 42 42 42 42 42 42 42 42 42 42 42 42 42
  80f628  42 42 42 42 42 42 42 42 42 42 42 42 42 42 42 42
  80f638  42 42 42 42 42 42 42 42 42 42 42 42 42 42 42 42
  80f648  42 42 42 42 42 42 42 42 42 42 42 42 42 42 42 42
  80f658  42 42 42 42 42 42 42 42 42 42 42 42 42 42 42 42
  80f668  42 42 42 42 42 42 42 42 42 42 42 42 42 42 42 42
  80f678  42 42 42 42 42 42 42 42 42 42 42 42 42 42 42 42
  80f688  42 42 42 42 42 42 42 42 42 42 42 42 42 42 42 42
  80f698  42 42 42 42 42 42 42 42 42 42 42 42 42 42 42 42
  80f6a8  42 42 42 42 42 42 42 42 42 42 42 42 42 42 42 42
  80f6b8  42 42 42 42 42 42 42 42 42 42 42 42 42 42 42 42
  80f6c8  42 42 42 42 42 42 42 42 42 42 42 42 42 42 42 42
  80f6d8  42 42 42 42 42 42 42 42 42 42 42 42 42 42 42 42
  80f6e8  42 42 42 42 42 42 42 42 42 42 42 42 42 42 42 42
  80f6f8  42 42 42 42 42 42 42 42 42 42 42 42 42 42 42 42
  80f708  42 42 42 42 42 42 42 42 42 42 42 42 42 42 42 42
  80f718  42 42 42 42 42 42 42 42 42 42 42 42 42 42 42 42
  80f728  42 42 42 42 42 42 42 42 42 42 42 42 42 42 42 42
  80f738  42 42 42 42 42 42 42 42 42 42 42 42 42 42 42 42
  80f748  42 42 42 42 42 42 42 42 42 42 42 42 42 42 42 42
  80f758  42 42 42 42 42 42 42 42 42 42 42 42 42 42 42 42
  80f768  42 42 42 42 42 42 42 42 42 42 42 42 42 42 42 42
  80f778  42 42 42 42 42 42 42 42 42 42 42 42 42 42 42 42
  80f788  42 42 42 42 42 42 42 42 42 42 42 42 42 42 42 42
  80f798  42 42 42 42 42 42 42 42 42 42 42 42 42 42 42 42
  80f7a8  42 42 42 42 42 42 42 42 42 42 42 42 42 42 42 42
  80f7b8  42 42 42 42 42 42 42 42 42 42 42 42 42 42 42 42
  80f7c8  42 42 42 42 42 42 42 42 42 42 42 42 42 42 42 42
  80f7d8  42 42 42 42 42 42 42 42 42 42 42 42 42 42 42 42
  80f7e8  42 42 42 42 42 42 42 42 42 42 42 42 42 42 42 42
  80f7f8  42 42 42 42 42 42 42 42 42 42 42 42 42 42 42 42
  80f808  42 42 42 42 42 42 42 42 42 42 42 42 42 42 42 42
  80f818  42 42 42 42 42 42 42 42 42 42 42 42 42 42 42 42
  80f828  42 42 42 42 42 42 42 42 42 42 42 42 42 42 42 42
  80f838  42 42 42 42 42 42 42 42 42 42 42 42 42 42 42 42
  80f848  42 42 42 42 42 42 42 42 42 42 42 42 42 42 42 42
  80f858  42 42 42 42 42 42 42 42 42 42 42 42 42 42 42 42
  80f868  42 42 42 42 42 42 42 42 42 42 42 42 42 42 42 42
  80f878  42 42 42 42 42 42 42 42 42 42 42 42 42 42 42 42
  80f888  42 42 42 42 42 42 42 42 42 42 42 42 42 42 42 42
  80f898  42 42 42 42 42 42 42 42 42 42 42 42 42 42 42 42
  80f8a8  42 42 42 42 42 42 42 42 42 42 42 42 42 42 42 42
  80f8b8  42 42 42 42 42 42 42 42 42 42 42 42 42 42 42 42
  80f8c8  42 42 42 42 42 42 42 42 42 42 42 42 42 42 42 42
  80f8d8  42 42 42 42 42 42 42 42 42 42 42 42 42 42 42 42
  80f8e8  42 42 42 42 42 42 42 42 42 42 42 42 42 42 42 42
  80f8f8  42 42 42 42 42 42 42 42 42 42 42 42 42 42 42 42
  80f908  42 42 42 42 42 42 42 42 42 42 42 42 42 42 42 42
  80f918  42 42 42 42 42 42 42 42 42 42 42 42 42 42 42 42
  80f928  42 42 42 42 42 42 42 42 42 42 42 42 42 42 42 42
  80f938  42 42 42 42 42 42 42 42 42 42 42 42 42 42 42 42
  80f948  42 42 42 42 42 42 42 42 42 42 42 42 42 42 42 42
  80f958  42 42 42 42 42 42 42 42 42 42 42 42 42 42 42 42
  80f968  42 42 42 42 42 42 42 42 42 42 42 42 42 42 42 42
  80f978  42 42 42 42 42 42 42 42 42 42 42 42 42 42 42 42
  80f988  42 42 42 42 42 42 42 42 42 42 42 42 42 42 42 42
  80f998  42 42 42 42 42 42 42 42 42 42 42 42 42 42 42 42
  80f9a8  42 42 42 42 42 42 42 42 42 42 42 42 42 42 42 42
  80f9b8  42 42 42 42 42 42 42 42 42 42 42 42 42 42 42 42
  80f9c8  42 42 42 42 42 42 42 42 42 42 42 42 42 42 42 42
  80f9d8  42 42 42 42 42 42 42 42 42 42 42 42 42 42 42 42
  80f9e8  42 42 42 42 42 42 42 42 42 42 42 42 42 42 42 42
  80f9f8  42 42 42 42 42 42 42 42 42 42 42 42 42 42 42 42
  80fa08  42 42 42 42 42 42 42 42 42 42 42 42 42 42 42 42
  80fa18  42 42 42 42 42 42 42 42 42 42 42 42 42 42 42 42
  80fa28  42 42 42 42 42 42 42 42 42 42 42 42 42 42 42 42
  80fa38  42 42 42 42 42 42 42 42 42 42 42 42 42 42 42 42
  80fa48  42 42 42 42 42 42 42 42 42 42 42 42 42 42 42 42
  80fa58  42 42 42 42 42 42 42 42 42 42 42 42 42 42 42 42
  80fa68  42 42 42 42 42 42 42 42 42 42 42 42 42 42 42 42
  80fa78  42 42 42 42 42 42 42 42 42 42 42 42 42 42 42 42
  80fa88  42 42 42 42 42 42 42 42 42 42 42 42 42 42 42 42
  80fa98  42 42 42 42 42 42 42 42 42 42 42 42 42 42 42 42
  80faa8  42 42 42 42 42 42 42 42 42 42 42 42 42 42 42 42
  80fab8  42 42 42 42 42 42 42 42 42 42 42 42 42 42 42 42
  80fac8  42 42 42 42 42 42 42 42 42 42 42 42 42 42 42 42
  80fad8  42 42 42 42 42 42 42 42 42 42 42 42 42 42 42 42
  80fae8  42 42 42 42 42 42 42 42 42 42 42 42 42 42 42 42
  80faf8  42 42 42 42 42 42 42 42 42 42 42 42 42 42 42 42
  80fb08  42 42 42 42 42 42 42 42 42 42 42 42 42 42 42 42
  80fb18  42 42 42 42 42 42 42 42 42 42 42 42 42 42 42 42
  80fb28  42 42 42 42 42 42 42 42 42 42 42 42 42 42 42 42
  80fb38  42 42 42 42 42 42 42 42 42 42 42 42 42 42 42 42
  80fb48  42 42 42 42 42 42 42 42 42 42 42 42 42 42 42 42
  80fb58  42 42 42 42 42 42 42 42 42 42 42 42 42 42 42 42
  80fb68  42 42 42 42 42 42 42 42 42 42 42 42 42 42 42 42
  80fb78  42 42 42 42 42 42 42 42 42 42 42 42 42 42 42 42
  80fb88  42 42 42 42 42 42 42 42 42 42 42 42 42 42 42 42
  80fb98  42 42 42 42 42 42 42 42 42 42 42 42 42 42 42 42
  80fba8  42 42 42 42 42 42 42 42 42 42 42 42 42 42 42 42
  80fbb8  42 42 42 42 42 42 42 42 42 42 42 42 42 42 42 42
  80fbc8  42 42 42 42 10 00 02 02 00 00 00 00 07 00 00 1d
  80fbd8  e1 0e 92 a4 00 00 00 20 00 00 00 00 00 00 02 0f
  80fbe8  00 00 00 00 00 00 00 00 00 00 00 00 42 42 42 42
  80fbf8  e1 31 ac 00 00 00 00 00 00 20 45 80 10 00 02 02
  80fc08  00 00 00 94 00 00 00 17 00 00 02 00 00 00 04 00
  80fc18  00 00 00 00 00 00 00 00 00 00 10 00 00 00 00 90
  80fc28  00 00 00 00 00 00 00 00 00 00 00 00 00 00 00 91
  80fc38  00 00 00 00 e1 0e 2e 60 00 00 00 3c 7f ff ff ff
  80fc48  00 00 00 00 80 00 00 00 00 00 00 20 00 00 00 00
  80fc58  00 84 2f 4c 00 00 00 00 00 00 42 0f f0 00 00 00
  80fc68  00 00 00 00 00 00 00 00 e1 31 ac 00 00 00 00 00
  80fc78  02 cc 23 b0 20 00 00 00 00 00 00 00 00 00 7f ff
  80fc88  00 00 00 72 00 00 04 00 70 00 00 00 00 00 00 00
  80fc98  00 00 00 04 00 00 00 00 00 80 09 90 00 00 00 00
  80fca8  00 00 00 00 00 00 00 00 e1 0e 92 7c 00 00 00 00
  80fcb8  00 00 00 00 e4 35 a0 f0 00 00 00 00 00 00 00 01
  80fcc8  e4 35 a3 78 e4 35 70 38 00 80 fc d4 10 00 02 02
  80fcd8  00 00 00 00 07 00 00 1d 00 20 47 ca 00 00 00 20
  80fce8  00 00 00 00 00 00 02 0f 00 00 00 00 00 00 00 00
  80fcf8  00 00 00 00 00 00 00 1c 00 80 fd 78 00 00 00 00
  80fd08  00 21 e5 ac 00 80 f5 04 00 20 38 60 00 80 05 44
  80fd18  00 80 05 40 00 80 eb fc 00 01 00 68 00 00 00 04
  80fd28  00 80 0f 00 00 00 65 0a 00 00 00 00 00 80 f5 04
  80fd38  00 00 65 0e 00 80 f5 04 00 00 65 0a 00 00 00 44
  80fd48  00 00 07 d0 e1 31 ae 00 e0 fb 90 90 00 80 fd 78
  80fd58  70 aa 00 01 e1 31 ae 00 00 00 65 0e e1 31 ad f8
  80fd68  00 00 65 08 e4 35 69 98 e1 31 ae 64 00 00 00 00
  80fd78  00 00 00 00 00 00 00 20 00 00 00 00 00 00 42 0f
  80fd88  00 20 25 28 00 00 00 00 00 80 f5 a0 00 80 f5 04
  80fd98  00 80 d1 18 00 80 f5 04 00 80 04 90 00 80 f5 04
  80fda8  e1 0f 23 08 00 80 04 74 00 01 00 68 00 01 40 0c
  80fdb8  00 80 0f 00 00 00 00 04 00 80 f5 a0 42 42 42 42

===============================================================================
Process: Pid = 0000001e, das
Saved Registers
---------------

Process swapped out inside kernel. (small context)
Only PC (inside the kernel) and stack pointer shown.

  PC: 0x002047ca          SP: 0x008105b0

Stack Content
-------------

Stack size = 2064 storage units

Hex Addr  00 01 02 03 04 05 06 07 08 09 0a 0b 0c 0d 0e 0f
--------  -- -- -- -- -- -- -- -- -- -- -- -- -- -- -- --
  80fec0  2a 42 42 42 42 42 42 42 42 42 42 42 42 42 42 42
  80fed0  42 42 42 42 42 42 42 42 42 42 42 42 42 42 42 42
  80fee0  42 42 42 42 42 42 42 42 42 42 42 42 42 42 42 42
  80fef0  42 42 42 42 42 42 42 42 42 42 42 42 42 42 42 42
  80ff00  42 42 42 42 42 42 42 42 42 42 42 42 42 42 42 42
  80ff10  42 42 42 42 42 42 42 42 42 42 42 42 42 42 42 42
  80ff20  42 42 42 42 42 42 42 42 42 42 42 42 42 42 42 42
  80ff30  42 42 42 42 42 42 42 42 42 42 42 42 42 42 42 42
  80ff40  42 42 42 42 42 42 42 42 42 42 42 42 42 42 42 42
  80ff50  42 42 42 42 42 42 42 42 42 42 42 42 42 42 42 42
  80ff60  42 42 42 42 42 42 42 42 42 42 42 42 42 42 42 42
  80ff70  42 42 42 42 42 42 42 42 42 42 42 42 42 42 42 42
  80ff80  42 42 42 42 42 42 42 42 42 42 42 42 42 42 42 42
  80ff90  42 42 42 42 42 42 42 42 42 42 42 42 42 42 42 42
  80ffa0  42 42 42 42 42 42 42 42 42 42 42 42 42 42 42 42
  80ffb0  42 42 42 42 42 42 42 42 42 42 42 42 42 42 42 42
  80ffc0  42 42 42 42 42 42 42 42 42 42 42 42 42 42 42 42
  80ffd0  42 42 42 42 42 42 42 42 42 42 42 42 42 42 42 42
  80ffe0  42 42 42 42 42 42 42 42 42 42 42 42 42 42 42 42
  80fff0  42 42 42 42 42 42 42 42 42 42 42 42 42 42 42 42
  810000  42 42 42 42 42 42 42 42 42 42 42 42 42 42 42 42
  810010  42 42 42 42 42 42 42 42 42 42 42 42 42 42 42 42
  810020  42 42 42 42 42 42 42 42 42 42 42 42 42 42 42 42
  810030  42 42 42 42 42 42 42 42 42 42 42 42 42 42 42 42
  810040  42 42 42 42 42 42 42 42 42 42 42 42 42 42 42 42
  810050  42 42 42 42 42 42 42 42 42 42 42 42 42 42 42 42
  810060  42 42 42 42 42 42 42 42 42 42 42 42 42 42 42 42
  810070  42 42 42 42 42 42 42 42 42 42 42 42 42 42 42 42
  810080  42 42 42 42 42 42 42 42 42 42 42 42 42 42 42 42
  810090  42 42 42 42 42 42 42 42 42 42 42 42 42 42 42 42
  8100a0  42 42 42 42 42 42 42 42 42 42 42 42 42 42 42 42
  8100b0  42 42 42 42 42 42 42 42 42 42 42 42 42 42 42 42
  8100c0  42 42 42 42 42 42 42 42 42 42 42 42 42 42 42 42
  8100d0  42 42 42 42 42 42 42 42 42 42 42 42 42 42 42 42
  8100e0  42 42 42 42 42 42 42 42 42 42 42 42 42 42 42 42
  8100f0  42 42 42 42 42 42 42 42 42 42 42 42 42 42 42 42
  810100  42 42 42 42 42 42 42 42 42 42 42 42 42 42 42 42
  810110  42 42 42 42 42 42 42 42 42 42 42 42 42 42 42 42
  810120  42 42 42 42 42 42 42 42 42 42 42 42 42 42 42 42
  810130  42 42 42 42 42 42 42 42 42 42 42 42 42 42 42 42
  810140  42 42 42 42 42 42 42 42 42 42 42 42 42 42 42 42
  810150  42 42 42 42 42 42 42 42 42 42 42 42 42 42 42 42
  810160  42 42 42 42 42 42 42 42 42 42 42 42 42 42 42 42
  810170  42 42 42 42 42 42 42 42 42 42 42 42 42 42 42 42
  810180  42 42 42 42 42 42 42 42 42 42 42 42 42 42 42 42
  810190  42 42 42 42 42 42 42 42 42 42 42 42 42 42 42 42
  8101a0  42 42 42 42 42 42 42 42 42 42 42 42 42 42 42 42
  8101b0  42 42 42 42 42 42 42 42 42 42 42 42 42 42 42 42
  8101c0  42 42 42 42 42 42 42 42 42 42 42 42 42 42 42 42
  8101d0  42 42 42 42 42 42 42 42 42 42 42 42 42 42 42 42
  8101e0  42 42 42 42 42 42 42 42 42 42 42 42 42 42 42 42
  8101f0  42 42 42 42 42 42 42 42 42 42 42 42 42 42 42 42
  810200  42 42 42 42 42 42 42 42 42 42 42 42 42 42 42 42
  810210  42 42 42 42 42 42 42 42 42 42 42 42 42 42 42 42
  810220  42 42 42 42 42 42 42 42 42 42 42 42 42 42 42 42
  810230  42 42 42 42 42 42 42 42 42 42 42 42 42 42 42 42
  810240  42 42 42 42 42 42 42 42 42 42 42 42 42 42 42 42
  810250  42 42 42 42 42 42 42 42 42 42 42 42 42 42 42 42
  810260  42 42 42 42 42 42 42 42 42 42 42 42 42 42 42 42
  810270  42 42 42 42 42 42 42 42 42 42 42 42 42 42 42 42
  810280  42 42 42 42 42 42 42 42 42 42 42 42 42 42 42 42
  810290  42 42 42 42 42 42 42 42 42 42 42 42 42 42 42 42
  8102a0  42 42 42 42 42 42 42 42 42 42 42 42 42 42 42 42
  8102b0  42 42 42 42 42 42 42 42 42 42 42 42 42 42 42 42
  8102c0  42 42 42 42 42 42 42 42 42 42 42 42 42 42 42 42
  8102d0  42 42 42 42 42 42 42 42 42 42 42 42 42 42 42 42
  8102e0  42 42 42 42 42 42 42 42 42 42 42 42 42 42 42 42
  8102f0  42 42 42 42 42 42 42 42 42 42 42 42 42 42 42 42
  810300  42 42 42 42 42 42 42 42 42 42 42 42 42 42 42 42
  810310  42 42 42 42 42 42 42 42 42 42 42 42 42 42 42 42
  810320  42 42 42 42 42 42 42 42 42 42 42 42 42 42 42 42
  810330  42 42 42 42 42 42 42 42 42 42 42 42 42 42 42 42
  810340  42 42 42 42 42 42 42 42 42 42 42 42 42 42 42 42
  810350  42 42 42 42 42 42 42 42 42 42 42 42 42 42 42 42
  810360  42 42 42 42 42 42 42 42 42 42 42 42 42 42 42 42
  810370  42 42 42 42 42 42 42 42 42 42 42 42 42 42 42 42
  810380  42 42 42 42 42 42 42 42 42 42 42 42 42 42 42 42
  810390  42 42 42 42 42 42 42 42 42 42 42 42 42 42 42 42
  8103a0  42 42 42 42 42 42 42 42 42 42 42 42 42 42 42 42
  8103b0  42 42 42 42 42 42 42 42 42 42 42 42 42 42 42 42
  8103c0  42 42 42 42 42 42 42 42 42 42 42 42 42 42 42 42
  8103d0  42 42 42 42 42 42 42 42 42 42 42 42 42 42 42 42
  8103e0  42 42 42 42 42 42 42 42 42 42 42 42 42 42 42 42
  8103f0  42 42 42 42 42 42 42 42 42 42 42 42 42 42 42 42
  810400  42 42 42 42 42 42 42 42 42 42 42 42 42 42 42 42
  810410  42 42 42 42 42 42 42 42 42 42 42 42 42 42 42 42
  810420  42 42 42 42 42 42 42 42 42 42 42 42 42 42 42 42
  810430  42 42 42 42 42 42 42 42 42 42 42 42 42 42 42 42
  810440  42 42 42 42 42 42 42 42 42 42 42 42 42 42 42 42
  810450  42 42 42 42 42 42 42 42 42 42 42 42 42 42 42 42
  810460  42 42 42 42 42 42 42 42 42 42 42 42 42 42 42 42
  810470  42 42 42 42 42 42 42 42 42 42 42 42 42 42 42 42
  810480  42 42 42 42 42 42 42 42 42 42 42 42 42 42 42 42
  810490  42 42 42 42 42 42 42 42 42 42 42 42 42 42 42 42
  8104a0  42 42 42 42 42 42 42 42 42 42 42 42 42 42 42 42
  8104b0  42 42 42 42 42 42 42 42 42 42 42 42 42 42 42 42
  8104c0  42 42 42 42 42 42 42 42 42 42 42 42 42 42 42 42
  8104d0  42 42 42 42 42 42 42 42 42 42 42 42 42 42 42 42
  8104e0  42 42 42 42 42 42 42 42 42 42 42 42 42 42 42 42
  8104f0  42 42 42 42 42 42 42 42 42 42 42 42 42 42 42 42
  810500  42 42 42 42 42 42 42 42 42 42 42 42 42 42 42 42
  810510  42 42 42 42 42 42 42 42 42 42 42 42 42 42 42 42
  810520  42 42 42 42 10 00 02 02 00 00 00 00 10 00 02 02
  810530  00 00 00 00 07 00 00 1d 00 21 c8 e0 00 00 00 20
  810540  00 00 00 00 00 00 02 0f 00 00 00 00 00 00 00 00
  810550  00 00 00 00 00 00 00 00 e1 31 f9 98 00 00 00 01
  810560  e1 0f 32 e0 10 00 02 02 00 00 00 94 00 00 00 01
  810570  00 00 02 00 00 00 04 00 00 00 00 00 00 00 00 00
  810580  00 00 10 00 00 00 00 90 00 00 00 00 00 00 00 00
  810590  00 00 00 00 00 00 00 91 00 00 00 00 00 00 00 00
  8105a0  00 00 00 00 7f ff ff ff 47 0b d8 0c 80 00 00 00
  8105b0  00 00 00 20 00 00 00 00 00 00 00 00 10 00 02 02
  8105c0  00 00 00 00 07 00 00 1d 00 20 47 ca 00 00 00 20
  8105d0  00 00 00 00 00 00 02 0f 00 00 00 00 00 00 00 00
  8105e0  00 00 00 00 00 00 00 00 00 81 06 70 00 00 00 00
  8105f0  00 21 e5 ac 00 80 fe 0c 00 20 38 60 00 80 05 44
  810600  00 80 05 40 00 80 10 64 30 a7 20 08 00 00 00 04
  810610  00 80 0f 00 00 00 00 00 00 00 00 00 00 80 fe 0c
  810620  00 80 d1 18 00 80 fe 0c 00 80 04 74 00 21 e5 b2
  810630  30 a7 00 0d e1 31 c5 80 e0 fb e8 1a 00 81 06 70
  810640  70 a7 00 07 00 80 fe 0c 00 80 d1 18 00 80 fe 0c
  810650  30 a7 20 09 e1 31 c5 80 00 80 fe a8 00 00 00 00
  810660  42 42 42 42 42 42 42 42 42 42 42 42 42 42 42 42
  810670  00 00 00 00 10 00 02 03 00 00 00 00 07 00 00 1d
  810680  00 20 24 e0 70 a7 00 01 70 a7 00 06 00 00 42 0f
  810690  00 20 25 28 00 00 00 00 00 80 fe a8 00 80 fe 0c
  8106a0  00 80 d1 18 00 80 fe 0c 00 80 04 90 00 80 fe 0c
  8106b0  e1 0f 23 08 00 80 04 74 00 01 00 68 00 01 40 0c
  8106c0  00 80 0f 00 00 00 00 04 00 80 fe a8 42 42 42 42

===============================================================================
Process: Pid = 0000001f, master
Saved Registers
---------------

Process swapped out inside kernel. (small context)
Only PC (inside the kernel) and stack pointer shown.

  PC: 0x002047ca          SP: 0x008116d8

Stack Content
-------------

Stack size = 4112 storage units

Hex Addr  00 01 02 03 04 05 06 07 08 09 0a 0b 0c 0d 0e 0f
--------  -- -- -- -- -- -- -- -- -- -- -- -- -- -- -- --
  8107c8  2a 42 42 42 42 42 42 42 42 42 42 42 42 42 42 42
  8107d8  42 42 42 42 42 42 42 42 42 42 42 42 42 42 42 42
  8107e8  42 42 42 42 42 42 42 42 42 42 42 42 42 42 42 42
  8107f8  42 42 42 42 42 42 42 42 42 42 42 42 42 42 42 42
  810808  42 42 42 42 42 42 42 42 42 42 42 42 42 42 42 42
  810818  42 42 42 42 42 42 42 42 42 42 42 42 42 42 42 42
  810828  42 42 42 42 42 42 42 42 42 42 42 42 42 42 42 42
  810838  42 42 42 42 42 42 42 42 42 42 42 42 42 42 42 42
  810848  42 42 42 42 42 42 42 42 42 42 42 42 42 42 42 42
  810858  42 42 42 42 42 42 42 42 42 42 42 42 42 42 42 42
  810868  42 42 42 42 42 42 42 42 42 42 42 42 42 42 42 42
  810878  42 42 42 42 42 42 42 42 42 42 42 42 42 42 42 42
  810888  42 42 42 42 42 42 42 42 42 42 42 42 42 42 42 42
  810898  42 42 42 42 42 42 42 42 42 42 42 42 42 42 42 42
  8108a8  42 42 42 42 42 42 42 42 42 42 42 42 42 42 42 42
  8108b8  42 42 42 42 42 42 42 42 42 42 42 42 42 42 42 42
  8108c8  42 42 42 42 42 42 42 42 42 42 42 42 42 42 42 42
  8108d8  42 42 42 42 42 42 42 42 42 42 42 42 42 42 42 42
  8108e8  42 42 42 42 42 42 42 42 42 42 42 42 42 42 42 42
  8108f8  42 42 42 42 42 42 42 42 42 42 42 42 42 42 42 42
  810908  42 42 42 42 42 42 42 42 42 42 42 42 42 42 42 42
  810918  42 42 42 42 42 42 42 42 42 42 42 42 42 42 42 42
  810928  42 42 42 42 42 42 42 42 42 42 42 42 42 42 42 42
  810938  42 42 42 42 42 42 42 42 42 42 42 42 42 42 42 42
  810948  42 42 42 42 42 42 42 42 42 42 42 42 42 42 42 42
  810958  42 42 42 42 42 42 42 42 42 42 42 42 42 42 42 42
  810968  42 42 42 42 42 42 42 42 42 42 42 42 42 42 42 42
  810978  42 42 42 42 42 42 42 42 42 42 42 42 42 42 42 42
  810988  42 42 42 42 42 42 42 42 42 42 42 42 42 42 42 42
  810998  42 42 42 42 42 42 42 42 42 42 42 42 42 42 42 42
  8109a8  42 42 42 42 42 42 42 42 42 42 42 42 42 42 42 42
  8109b8  42 42 42 42 42 42 42 42 42 42 42 42 42 42 42 42
  8109c8  42 42 42 42 42 42 42 42 42 42 42 42 42 42 42 42
  8109d8  42 42 42 42 42 42 42 42 42 42 42 42 42 42 42 42
  8109e8  42 42 42 42 42 42 42 42 42 42 42 42 42 42 42 42
  8109f8  42 42 42 42 42 42 42 42 42 42 42 42 42 42 42 42
  810a08  42 42 42 42 42 42 42 42 42 42 42 42 42 42 42 42
  810a18  42 42 42 42 42 42 42 42 42 42 42 42 42 42 42 42
  810a28  42 42 42 42 42 42 42 42 42 42 42 42 42 42 42 42
  810a38  42 42 42 42 42 42 42 42 42 42 42 42 42 42 42 42
  810a48  42 42 42 42 42 42 42 42 42 42 42 42 42 42 42 42
  810a58  42 42 42 42 42 42 42 42 42 42 42 42 42 42 42 42
  810a68  42 42 42 42 42 42 42 42 42 42 42 42 42 42 42 42
  810a78  42 42 42 42 42 42 42 42 42 42 42 42 42 42 42 42
  810a88  42 42 42 42 42 42 42 42 42 42 42 42 42 42 42 42
  810a98  42 42 42 42 42 42 42 42 42 42 42 42 42 42 42 42
  810aa8  42 42 42 42 42 42 42 42 42 42 42 42 42 42 42 42
  810ab8  42 42 42 42 42 42 42 42 42 42 42 42 42 42 42 42
  810ac8  42 42 42 42 42 42 42 42 42 42 42 42 42 42 42 42
  810ad8  42 42 42 42 42 42 42 42 42 42 42 42 42 42 42 42
  810ae8  42 42 42 42 42 42 42 42 42 42 42 42 42 42 42 42
  810af8  42 42 42 42 42 42 42 42 42 42 42 42 42 42 42 42
  810b08  42 42 42 42 42 42 42 42 42 42 42 42 42 42 42 42
  810b18  42 42 42 42 42 42 42 42 42 42 42 42 42 42 42 42
  810b28  42 42 42 42 42 42 42 42 42 42 42 42 42 42 42 42
  810b38  42 42 42 42 42 42 42 42 42 42 42 42 42 42 42 42
  810b48  42 42 42 42 42 42 42 42 42 42 42 42 42 42 42 42
  810b58  42 42 42 42 42 42 42 42 42 42 42 42 42 42 42 42
  810b68  42 42 42 42 42 42 42 42 42 42 42 42 42 42 42 42
  810b78  42 42 42 42 42 42 42 42 42 42 42 42 42 42 42 42
  810b88  42 42 42 42 42 42 42 42 42 42 42 42 42 42 42 42
  810b98  42 42 42 42 42 42 42 42 42 42 42 42 42 42 42 42
  810ba8  42 42 42 42 42 42 42 42 42 42 42 42 42 42 42 42
  810bb8  42 42 42 42 42 42 42 42 42 42 42 42 42 42 42 42
  810bc8  42 42 42 42 42 42 42 42 42 42 42 42 42 42 42 42
  810bd8  42 42 42 42 42 42 42 42 42 42 42 42 42 42 42 42
  810be8  42 42 42 42 42 42 42 42 42 42 42 42 42 42 42 42
  810bf8  42 42 42 42 42 42 42 42 42 42 42 42 42 42 42 42
  810c08  42 42 42 42 42 42 42 42 42 42 42 42 42 42 42 42
  810c18  42 42 42 42 42 42 42 42 42 42 42 42 42 42 42 42
  810c28  42 42 42 42 42 42 42 42 42 42 42 42 42 42 42 42
  810c38  42 42 42 42 42 42 42 42 42 42 42 42 42 42 42 42
  810c48  42 42 42 42 42 42 42 42 42 42 42 42 42 42 42 42
  810c58  42 42 42 42 42 42 42 42 42 42 42 42 42 42 42 42
  810c68  42 42 42 42 42 42 42 42 42 42 42 42 42 42 42 42
  810c78  42 42 42 42 42 42 42 42 42 42 42 42 42 42 42 42
  810c88  42 42 42 42 42 42 42 42 42 42 42 42 42 42 42 42
  810c98  42 42 42 42 42 42 42 42 42 42 42 42 42 42 42 42
  810ca8  42 42 42 42 42 42 42 42 42 42 42 42 42 42 42 42
  810cb8  42 42 42 42 42 42 42 42 42 42 42 42 42 42 42 42
  810cc8  42 42 42 42 42 42 42 42 42 42 42 42 42 42 42 42
  810cd8  42 42 42 42 42 42 42 42 42 42 42 42 42 42 42 42
  810ce8  42 42 42 42 42 42 42 42 42 42 42 42 42 42 42 42
  810cf8  42 42 42 42 42 42 42 42 42 42 42 42 42 42 42 42
  810d08  42 42 42 42 42 42 42 42 42 42 42 42 42 42 42 42
  810d18  42 42 42 42 42 42 42 42 42 42 42 42 42 42 42 42
  810d28  42 42 42 42 42 42 42 42 42 42 42 42 42 42 42 42
  810d38  42 42 42 42 42 42 42 42 42 42 42 42 42 42 42 42
  810d48  42 42 42 42 42 42 42 42 42 42 42 42 42 42 42 42
  810d58  42 42 42 42 42 42 42 42 42 42 42 42 42 42 42 42
  810d68  42 42 42 42 42 42 42 42 42 42 42 42 42 42 42 42
  810d78  42 42 42 42 42 42 42 42 42 42 42 42 42 42 42 42
  810d88  42 42 42 42 42 42 42 42 42 42 42 42 42 42 42 42
  810d98  42 42 42 42 42 42 42 42 42 42 42 42 42 42 42 42
  810da8  42 42 42 42 42 42 42 42 42 42 42 42 42 42 42 42
  810db8  42 42 42 42 42 42 42 42 42 42 42 42 42 42 42 42
  810dc8  42 42 42 42 42 42 42 42 42 42 42 42 42 42 42 42
  810dd8  42 42 42 42 42 42 42 42 42 42 42 42 42 42 42 42
  810de8  42 42 42 42 42 42 42 42 42 42 42 42 42 42 42 42
  810df8  42 42 42 42 42 42 42 42 42 42 42 42 42 42 42 42
  810e08  42 42 42 42 42 42 42 42 42 42 42 42 42 42 42 42
  810e18  42 42 42 42 42 42 42 42 42 42 42 42 42 42 42 42
  810e28  42 42 42 42 42 42 42 42 42 42 42 42 42 42 42 42
  810e38  42 42 42 42 42 42 42 42 42 42 42 42 42 42 42 42
  810e48  42 42 42 42 42 42 42 42 42 42 42 42 42 42 42 42
  810e58  42 42 42 42 42 42 42 42 42 42 42 42 42 42 42 42
  810e68  42 42 42 42 42 42 42 42 42 42 42 42 42 42 42 42
  810e78  42 42 42 42 42 42 42 42 42 42 42 42 42 42 42 42
  810e88  42 42 42 42 42 42 42 42 42 42 42 42 42 42 42 42
  810e98  42 42 42 42 42 42 42 42 42 42 42 42 42 42 42 42
  810ea8  42 42 42 42 42 42 42 42 42 42 42 42 42 42 42 42
  810eb8  42 42 42 42 42 42 42 42 42 42 42 42 42 42 42 42
  810ec8  42 42 42 42 42 42 42 42 42 42 42 42 42 42 42 42
  810ed8  42 42 42 42 42 42 42 42 42 42 42 42 42 42 42 42
  810ee8  42 42 42 42 42 42 42 42 42 42 42 42 42 42 42 42
  810ef8  42 42 42 42 42 42 42 42 42 42 42 42 42 42 42 42
  810f08  42 42 42 42 42 42 42 42 42 42 42 42 42 42 42 42
  810f18  42 42 42 42 42 42 42 42 42 42 42 42 42 42 42 42
  810f28  42 42 42 42 42 42 42 42 42 42 42 42 42 42 42 42
  810f38  42 42 42 42 42 42 42 42 42 42 42 42 42 42 42 42
  810f48  42 42 42 42 42 42 42 42 42 42 42 42 42 42 42 42
  810f58  42 42 42 42 42 42 42 42 42 42 42 42 42 42 42 42
  810f68  42 42 42 42 42 42 42 42 42 42 42 42 42 42 42 42
  810f78  42 42 42 42 42 42 42 42 42 42 42 42 42 42 42 42
  810f88  42 42 42 42 42 42 42 42 42 42 42 42 42 42 42 42
  810f98  42 42 42 42 42 42 42 42 42 42 42 42 42 42 42 42
  810fa8  42 42 42 42 42 42 42 42 42 42 42 42 42 42 42 42
  810fb8  42 42 42 42 42 42 42 42 42 42 42 42 42 42 42 42
  810fc8  42 42 42 42 42 42 42 42 42 42 42 42 42 42 42 42
  810fd8  42 42 42 42 42 42 42 42 42 42 42 42 42 42 42 42
  810fe8  42 42 42 42 42 42 42 42 42 42 42 42 42 42 42 42
  810ff8  42 42 42 42 42 42 42 42 42 42 42 42 42 42 42 42
  811008  42 42 42 42 42 42 42 42 42 42 42 42 42 42 42 42
  811018  42 42 42 42 42 42 42 42 42 42 42 42 42 42 42 42
  811028  42 42 42 42 42 42 42 42 42 42 42 42 42 42 42 42
  811038  42 42 42 42 42 42 42 42 42 42 42 42 42 42 42 42
  811048  42 42 42 42 42 42 42 42 42 42 42 42 42 42 42 42
  811058  42 42 42 42 42 42 42 42 42 42 42 42 42 42 42 42
  811068  42 42 42 42 42 42 42 42 42 42 42 42 42 42 42 42
  811078  42 42 42 42 42 42 42 42 42 42 42 42 42 42 42 42
  811088  42 42 42 42 42 42 42 42 42 42 42 42 42 42 42 42
  811098  42 42 42 42 42 42 42 42 42 42 42 42 42 42 42 42
  8110a8  42 42 42 42 42 42 42 42 42 42 42 42 42 42 42 42
  8110b8  42 42 42 42 42 42 42 42 42 42 42 42 42 42 42 42
  8110c8  42 42 42 42 42 42 42 42 42 42 42 42 42 42 42 42
  8110d8  42 42 42 42 42 42 42 42 42 42 42 42 42 42 42 42
  8110e8  42 42 42 42 42 42 42 42 42 42 42 42 42 42 42 42
  8110f8  42 42 42 42 42 42 42 42 42 42 42 42 42 42 42 42
  811108  42 42 42 42 42 42 42 42 42 42 42 42 42 42 42 42
  811118  42 42 42 42 42 42 42 42 42 42 42 42 42 42 42 42
  811128  42 42 42 42 42 42 42 42 42 42 42 42 42 42 42 42
  811138  42 42 42 42 42 42 42 42 42 42 42 42 42 42 42 42
  811148  42 42 42 42 42 42 42 42 42 42 42 42 42 42 42 42
  811158  42 42 42 42 42 42 42 42 42 42 42 42 42 42 42 42
  811168  42 42 42 42 42 42 42 42 42 42 42 42 42 42 42 42
  811178  42 42 42 42 42 42 42 42 42 42 42 42 42 42 42 42
  811188  42 42 42 42 42 42 42 42 42 42 42 42 42 42 42 42
  811198  42 42 42 42 42 42 42 42 42 42 42 42 42 42 42 42
  8111a8  42 42 42 42 42 42 42 42 42 42 42 42 42 42 42 42
  8111b8  42 42 42 42 42 42 42 42 42 42 42 42 42 42 42 42
  8111c8  42 42 42 42 42 42 42 42 42 42 42 42 42 42 42 42
  8111d8  42 42 42 42 42 42 42 42 42 42 42 42 42 42 42 42
  8111e8  42 42 42 42 42 42 42 42 42 42 42 42 42 42 42 42
  8111f8  42 42 42 42 42 42 42 42 42 42 42 42 42 42 42 42
  811208  42 42 42 42 42 42 42 42 42 42 42 42 42 42 42 42
  811218  42 42 42 42 42 42 42 42 42 42 42 42 42 42 42 42
  811228  42 42 42 42 42 42 42 42 42 42 42 42 42 42 42 42
  811238  42 42 42 42 42 42 42 42 42 42 42 42 42 42 42 42
  811248  42 42 42 42 42 42 42 42 42 42 42 42 42 42 42 42
  811258  42 42 42 42 42 42 42 42 42 42 42 42 42 42 42 42
  811268  42 42 42 42 42 42 42 42 42 42 42 42 42 42 42 42
  811278  42 42 42 42 42 42 42 42 42 42 42 42 42 42 42 42
  811288  42 42 42 42 42 42 42 42 42 42 42 42 42 42 42 42
  811298  42 42 42 42 42 42 42 42 42 42 42 42 42 42 42 42
  8112a8  42 42 42 42 42 42 42 42 42 42 42 42 42 42 42 42
  8112b8  42 42 42 42 42 42 42 42 42 42 42 42 42 42 42 42
  8112c8  42 42 42 42 42 42 42 42 42 42 42 42 42 42 42 42
  8112d8  42 42 42 42 42 42 42 42 42 42 42 42 42 42 42 42
  8112e8  42 42 42 42 42 42 42 42 42 42 42 42 42 42 42 42
  8112f8  42 42 42 42 42 42 42 42 42 42 42 42 42 42 42 42
  811308  42 42 42 42 42 42 42 42 42 42 42 42 42 42 42 42
  811318  42 42 42 42 42 42 42 42 42 42 42 42 42 42 42 42
  811328  42 42 42 42 42 42 42 42 42 42 42 42 42 42 42 42
  811338  42 42 42 42 42 42 42 42 42 42 42 42 42 42 42 42
  811348  42 42 42 42 42 42 42 42 42 42 42 42 42 42 42 42
  811358  42 42 42 42 42 42 42 42 42 42 42 42 42 42 42 42
  811368  42 42 42 42 42 42 42 42 42 42 42 42 42 42 42 42
  811378  42 42 42 42 42 42 42 42 42 42 42 42 42 42 42 42
  811388  42 42 42 42 42 42 42 42 42 42 42 42 42 42 42 42
  811398  42 42 42 42 42 42 42 42 42 42 42 42 42 42 42 42
  8113a8  42 42 42 42 42 42 42 42 42 42 42 42 42 42 42 42
  8113b8  42 42 42 42 42 42 42 42 42 42 42 42 42 42 42 42
  8113c8  42 42 42 42 42 42 42 42 42 42 42 42 42 42 42 42
  8113d8  42 42 42 42 42 42 42 42 42 42 42 42 42 42 42 42
  8113e8  42 42 42 42 42 42 42 42 42 42 42 42 42 42 42 42
  8113f8  42 42 42 42 42 42 42 42 42 42 42 42 42 42 42 42
  811408  42 42 42 42 42 42 42 42 42 42 42 42 42 42 42 42
  811418  42 42 42 42 42 42 42 42 42 42 42 42 42 42 42 42
  811428  42 42 42 42 42 42 42 42 42 42 42 42 42 42 42 42
  811438  42 42 42 42 42 42 42 42 42 42 42 42 42 42 42 42
  811448  42 42 42 42 42 42 42 42 42 42 42 42 42 42 42 42
  811458  42 42 42 42 42 42 42 42 42 42 42 42 42 42 42 42
  811468  42 42 42 42 42 42 42 42 42 42 42 42 42 42 42 42
  811478  42 42 42 42 42 42 42 42 42 42 42 42 42 42 42 42
  811488  42 42 42 42 42 42 42 42 42 42 42 42 42 42 42 42
  811498  42 42 42 42 42 42 42 42 42 42 42 42 42 42 42 42
  8114a8  42 42 42 42 42 42 42 42 42 42 42 42 42 42 42 42
  8114b8  42 42 42 42 42 42 42 42 42 42 42 42 42 42 42 42
  8114c8  42 42 42 42 42 42 42 42 42 42 42 42 42 42 42 42
  8114d8  42 42 42 42 42 42 42 42 42 42 42 42 42 42 42 42
  8114e8  42 42 42 42 42 42 42 42 42 42 42 42 42 42 42 42
  8114f8  42 42 42 42 42 42 42 42 42 42 42 42 42 42 42 42
  811508  42 42 42 42 42 42 42 42 42 42 42 42 42 42 42 42
  811518  42 42 42 42 42 42 42 42 42 42 42 42 42 42 42 42
  811528  42 42 42 42 42 42 42 42 42 42 42 42 42 42 42 42
  811538  42 42 42 42 42 42 42 42 42 42 42 42 42 42 42 42
  811548  42 42 42 42 42 42 42 42 42 42 42 42 42 42 42 42
  811558  42 42 42 42 42 42 42 42 42 42 42 42 42 42 42 42
  811568  42 42 42 42 42 42 42 42 42 42 42 42 42 42 42 42
  811578  42 42 42 42 42 42 42 42 42 42 42 42 42 42 42 42
  811588  42 42 42 42 42 42 42 42 42 42 42 42 42 42 42 42
  811598  42 42 42 42 42 42 42 42 42 42 42 42 42 42 42 42
  8115a8  42 42 42 42 42 42 42 42 42 42 42 42 42 42 42 42
  8115b8  42 42 42 42 42 42 42 42 42 42 42 42 42 42 42 42
  8115c8  42 42 42 42 42 42 42 42 42 42 42 42 42 42 42 42
  8115d8  42 42 42 42 42 42 42 42 42 42 42 42 42 42 42 42
  8115e8  42 42 42 42 42 42 42 42 42 42 42 42 42 42 42 42
  8115f8  42 42 42 42 42 42 42 42 42 42 42 42 42 42 42 42
  811608  42 42 42 42 42 42 42 42 42 42 42 42 42 42 42 42
  811618  42 42 42 42 42 42 42 42 42 42 42 42 42 42 42 42
  811628  42 42 42 42 42 42 42 42 42 42 42 42 10 00 02 02
  811638  00 00 00 00 07 00 00 1d 00 2a ca 54 00 00 00 20
  811648  00 00 00 00 00 00 02 0f 00 00 00 00 00 00 00 00
  811658  00 00 00 00 00 81 07 14 00 00 10 00 00 00 00 72
  811668  e1 0f 32 e0 00 00 00 70 00 80 79 20 00 00 00 7e
  811678  00 00 02 00 00 00 04 00 00 00 00 00 00 00 00 00
  811688  00 00 10 00 00 00 00 90 00 00 00 00 00 00 00 00
  811698  00 00 00 00 00 00 00 91 00 00 00 00 00 00 00 00
  8116a8  00 00 00 00 7f ff ff ff 47 0b d8 0c 00 80 04 66
  8116b8  00 00 00 20 00 00 00 00 00 00 00 00 e4 35 8e c0
  8116c8  00 00 02 0f 00 00 00 00 00 00 00 00 64 69 61 67
  8116d8  00 00 00 00 00 00 00 00 00 81 07 14 10 00 02 02
  8116e8  00 00 00 00 07 00 00 1d 00 20 47 ca 00 00 00 20
  8116f8  00 00 00 00 00 00 02 0f 00 00 00 00 00 00 00 00
  811708  00 00 00 00 00 00 00 00 00 25 ad 08 00 00 00 00
  811718  00 21 e5 ac 00 81 07 14 00 20 38 60 00 80 05 44
  811728  00 80 05 40 00 80 10 64 70 82 00 04 00 00 00 04
  811738  00 80 0f 00 00 00 00 1f 00 00 00 00 00 81 07 14
  811748  00 00 00 1f 00 81 07 14 00 00 bb bb 00 25 ac cc
  811758  80 82 00 01 e1 31 c5 80 00 25 aa 64 00 25 ad 08
  811768  00 00 00 1f 00 25 ac cc 00 00 00 1f 00 81 07 14
  811778  00 00 aa aa e1 31 b8 90 00 81 07 b0 00 00 00 00
  811788  80 82 00 03 80 82 00 06 00 00 00 00 00 00 42 0f
  811798  00 20 25 28 00 00 00 00 00 81 07 b0 00 81 07 14
  8117a8  00 80 d1 18 00 81 07 14 00 80 04 90 00 81 07 14
  8117b8  e1 0f 23 08 00 80 04 74 00 01 00 68 00 01 40 0c
  8117c8  00 80 0f 00 00 00 00 04 00 81 07 b0 42 42 42 42

===============================================================================
Process: Pid = 00000020, sgw
Saved Registers
---------------

Process swapped out inside kernel. (small context)
Only PC (inside the kernel) and stack pointer shown.

  PC: 0x002047ca          SP: 0x00812580

Stack Content
-------------

Stack size = 4112 storage units

Hex Addr  00 01 02 03 04 05 06 07 08 09 0a 0b 0c 0d 0e 0f
--------  -- -- -- -- -- -- -- -- -- -- -- -- -- -- -- --
  8118d0  2a 42 42 42 42 42 42 42 42 42 42 42 42 42 42 42
  8118e0  42 42 42 42 42 42 42 42 42 42 42 42 42 42 42 42
  8118f0  42 42 42 42 42 42 42 42 42 42 42 42 42 42 42 42
  811900  42 42 42 42 42 42 42 42 42 42 42 42 42 42 42 42
  811910  42 42 42 42 42 42 42 42 42 42 42 42 42 42 42 42
  811920  42 42 42 42 42 42 42 42 42 42 42 42 42 42 42 42
  811930  42 42 42 42 42 42 42 42 42 42 42 42 42 42 42 42
  811940  42 42 42 42 42 42 42 42 42 42 42 42 42 42 42 42
  811950  42 42 42 42 42 42 42 42 42 42 42 42 42 42 42 42
  811960  42 42 42 42 42 42 42 42 42 42 42 42 42 42 42 42
  811970  42 42 42 42 42 42 42 42 42 42 42 42 42 42 42 42
  811980  42 42 42 42 42 42 42 42 42 42 42 42 42 42 42 42
  811990  42 42 42 42 42 42 42 42 42 42 42 42 42 42 42 42
  8119a0  42 42 42 42 42 42 42 42 42 42 42 42 42 42 42 42
  8119b0  42 42 42 42 42 42 42 42 42 42 42 42 42 42 42 42
  8119c0  42 42 42 42 42 42 42 42 42 42 42 42 42 42 42 42
  8119d0  42 42 42 42 42 42 42 42 42 42 42 42 42 42 42 42
  8119e0  42 42 42 42 42 42 42 42 42 42 42 42 42 42 42 42
  8119f0  42 42 42 42 42 42 42 42 42 42 42 42 42 42 42 42
  811a00  42 42 42 42 42 42 42 42 42 42 42 42 42 42 42 42
  811a10  42 42 42 42 42 42 42 42 42 42 42 42 42 42 42 42
  811a20  42 42 42 42 42 42 42 42 42 42 42 42 42 42 42 42
  811a30  42 42 42 42 42 42 42 42 42 42 42 42 42 42 42 42
  811a40  42 42 42 42 42 42 42 42 42 42 42 42 42 42 42 42
  811a50  42 42 42 42 42 42 42 42 42 42 42 42 42 42 42 42
  811a60  42 42 42 42 42 42 42 42 42 42 42 42 42 42 42 42
  811a70  42 42 42 42 42 42 42 42 42 42 42 42 42 42 42 42
  811a80  42 42 42 42 42 42 42 42 42 42 42 42 42 42 42 42
  811a90  42 42 42 42 42 42 42 42 42 42 42 42 42 42 42 42
  811aa0  42 42 42 42 42 42 42 42 42 42 42 42 42 42 42 42
  811ab0  42 42 42 42 42 42 42 42 42 42 42 42 42 42 42 42
  811ac0  42 42 42 42 42 42 42 42 42 42 42 42 42 42 42 42
  811ad0  42 42 42 42 42 42 42 42 42 42 42 42 42 42 42 42
  811ae0  42 42 42 42 42 42 42 42 42 42 42 42 42 42 42 42
  811af0  42 42 42 42 42 42 42 42 42 42 42 42 42 42 42 42
  811b00  42 42 42 42 42 42 42 42 42 42 42 42 42 42 42 42
  811b10  42 42 42 42 42 42 42 42 42 42 42 42 42 42 42 42
  811b20  42 42 42 42 42 42 42 42 42 42 42 42 42 42 42 42
  811b30  42 42 42 42 42 42 42 42 42 42 42 42 42 42 42 42
  811b40  42 42 42 42 42 42 42 42 42 42 42 42 42 42 42 42
  811b50  42 42 42 42 42 42 42 42 42 42 42 42 42 42 42 42
  811b60  42 42 42 42 42 42 42 42 42 42 42 42 42 42 42 42
  811b70  42 42 42 42 42 42 42 42 42 42 42 42 42 42 42 42
  811b80  42 42 42 42 42 42 42 42 42 42 42 42 42 42 42 42
  811b90  42 42 42 42 42 42 42 42 42 42 42 42 42 42 42 42
  811ba0  42 42 42 42 42 42 42 42 42 42 42 42 42 42 42 42
  811bb0  42 42 42 42 42 42 42 42 42 42 42 42 42 42 42 42
  811bc0  42 42 42 42 42 42 42 42 42 42 42 42 42 42 42 42
  811bd0  42 42 42 42 42 42 42 42 42 42 42 42 42 42 42 42
  811be0  42 42 42 42 42 42 42 42 42 42 42 42 42 42 42 42
  811bf0  42 42 42 42 42 42 42 42 42 42 42 42 42 42 42 42
  811c00  42 42 42 42 42 42 42 42 42 42 42 42 42 42 42 42
  811c10  42 42 42 42 42 42 42 42 42 42 42 42 42 42 42 42
  811c20  42 42 42 42 42 42 42 42 42 42 42 42 42 42 42 42
  811c30  42 42 42 42 42 42 42 42 42 42 42 42 42 42 42 42
  811c40  42 42 42 42 42 42 42 42 42 42 42 42 42 42 42 42
  811c50  42 42 42 42 42 42 42 42 42 42 42 42 42 42 42 42
  811c60  42 42 42 42 42 42 42 42 42 42 42 42 42 42 42 42
  811c70  42 42 42 42 42 42 42 42 42 42 42 42 42 42 42 42
  811c80  42 42 42 42 42 42 42 42 42 42 42 42 42 42 42 42
  811c90  42 42 42 42 42 42 42 42 42 42 42 42 42 42 42 42
  811ca0  42 42 42 42 42 42 42 42 42 42 42 42 42 42 42 42
  811cb0  42 42 42 42 42 42 42 42 42 42 42 42 42 42 42 42
  811cc0  42 42 42 42 42 42 42 42 42 42 42 42 42 42 42 42
  811cd0  42 42 42 42 42 42 42 42 42 42 42 42 42 42 42 42
  811ce0  42 42 42 42 42 42 42 42 42 42 42 42 42 42 42 42
  811cf0  42 42 42 42 42 42 42 42 42 42 42 42 42 42 42 42
  811d00  42 42 42 42 42 42 42 42 42 42 42 42 42 42 42 42
  811d10  42 42 42 42 42 42 42 42 42 42 42 42 42 42 42 42
  811d20  42 42 42 42 42 42 42 42 42 42 42 42 42 42 42 42
  811d30  42 42 42 42 42 42 42 42 42 42 42 42 42 42 42 42
  811d40  42 42 42 42 42 42 42 42 42 42 42 42 42 42 42 42
  811d50  42 42 42 42 42 42 42 42 42 42 42 42 42 42 42 42
  811d60  42 42 42 42 42 42 42 42 42 42 42 42 42 42 42 42
  811d70  42 42 42 42 42 42 42 42 42 42 42 42 42 42 42 42
  811d80  42 42 42 42 42 42 42 42 42 42 42 42 42 42 42 42
  811d90  42 42 42 42 42 42 42 42 42 42 42 42 42 42 42 42
  811da0  42 42 42 42 42 42 42 42 42 42 42 42 42 42 42 42
  811db0  42 42 42 42 42 42 42 42 42 42 42 42 42 42 42 42
  811dc0  42 42 42 42 42 42 42 42 42 42 42 42 42 42 42 42
  811dd0  42 42 42 42 42 42 42 42 42 42 42 42 42 42 42 42
  811de0  42 42 42 42 42 42 42 42 42 42 42 42 42 42 42 42
  811df0  42 42 42 42 42 42 42 42 42 42 42 42 42 42 42 42
  811e00  42 42 42 42 42 42 42 42 42 42 42 42 42 42 42 42
  811e10  42 42 42 42 42 42 42 42 42 42 42 42 42 42 42 42
  811e20  42 42 42 42 42 42 42 42 42 42 42 42 42 42 42 42
  811e30  42 42 42 42 42 42 42 42 42 42 42 42 42 42 42 42
  811e40  42 42 42 42 42 42 42 42 42 42 42 42 42 42 42 42
  811e50  42 42 42 42 42 42 42 42 42 42 42 42 42 42 42 42
  811e60  42 42 42 42 42 42 42 42 42 42 42 42 42 42 42 42
  811e70  42 42 42 42 42 42 42 42 42 42 42 42 42 42 42 42
  811e80  42 42 42 42 42 42 42 42 42 42 42 42 42 42 42 42
  811e90  42 42 42 42 42 42 42 42 42 42 42 42 42 42 42 42
  811ea0  42 42 42 42 42 42 42 42 42 42 42 42 42 42 42 42
  811eb0  42 42 42 42 42 42 42 42 42 42 42 42 42 42 42 42
  811ec0  42 42 42 42 42 42 42 42 42 42 42 42 42 42 42 42
  811ed0  42 42 42 42 42 42 42 42 42 42 42 42 42 42 42 42
  811ee0  42 42 42 42 42 42 42 42 42 42 42 42 42 42 42 42
  811ef0  42 42 42 42 42 42 42 42 42 42 42 42 42 42 42 42
  811f00  42 42 42 42 42 42 42 42 42 42 42 42 42 42 42 42
  811f10  42 42 42 42 42 42 42 42 42 42 42 42 42 42 42 42
  811f20  42 42 42 42 42 42 42 42 42 42 42 42 42 42 42 42
  811f30  42 42 42 42 42 42 42 42 42 42 42 42 42 42 42 42
  811f40  42 42 42 42 42 42 42 42 42 42 42 42 42 42 42 42
  811f50  42 42 42 42 42 42 42 42 42 42 42 42 42 42 42 42
  811f60  42 42 42 42 42 42 42 42 42 42 42 42 42 42 42 42
  811f70  42 42 42 42 42 42 42 42 42 42 42 42 42 42 42 42
  811f80  42 42 42 42 42 42 42 42 42 42 42 42 42 42 42 42
  811f90  42 42 42 42 42 42 42 42 42 42 42 42 42 42 42 42
  811fa0  42 42 42 42 42 42 42 42 42 42 42 42 42 42 42 42
  811fb0  42 42 42 42 42 42 42 42 42 42 42 42 42 42 42 42
  811fc0  42 42 42 42 42 42 42 42 42 42 42 42 42 42 42 42
  811fd0  42 42 42 42 42 42 42 42 42 42 42 42 42 42 42 42
  811fe0  42 42 42 42 42 42 42 42 42 42 42 42 42 42 42 42
  811ff0  42 42 42 42 42 42 42 42 42 42 42 42 42 42 42 42
  812000  42 42 42 42 42 42 42 42 42 42 42 42 42 42 42 42
  812010  42 42 42 42 42 42 42 42 42 42 42 42 42 42 42 42
  812020  42 42 42 42 42 42 42 42 42 42 42 42 42 42 42 42
  812030  42 42 42 42 42 42 42 42 42 42 42 42 42 42 42 42
  812040  42 42 42 42 42 42 42 42 42 42 42 42 42 42 42 42
  812050  42 42 42 42 42 42 42 42 42 42 42 42 42 42 42 42
  812060  42 42 42 42 42 42 42 42 42 42 42 42 42 42 42 42
  812070  42 42 42 42 42 42 42 42 42 42 42 42 42 42 42 42
  812080  42 42 42 42 42 42 42 42 42 42 42 42 42 42 42 42
  812090  42 42 42 42 42 42 42 42 42 42 42 42 42 42 42 42
  8120a0  42 42 42 42 42 42 42 42 42 42 42 42 42 42 42 42
  8120b0  42 42 42 42 42 42 42 42 42 42 42 42 42 42 42 42
  8120c0  42 42 42 42 42 42 42 42 42 42 42 42 42 42 42 42
  8120d0  42 42 42 42 42 42 42 42 42 42 42 42 42 42 42 42
  8120e0  42 42 42 42 42 42 42 42 42 42 42 42 42 42 42 42
  8120f0  42 42 42 42 42 42 42 42 42 42 42 42 42 42 42 42
  812100  42 42 42 42 42 42 42 42 42 42 42 42 42 42 42 42
  812110  42 42 42 42 42 42 42 42 42 42 42 42 42 42 42 42
  812120  42 42 42 42 42 42 42 42 42 42 42 42 42 42 42 42
  812130  42 42 42 42 42 42 42 42 42 42 42 42 42 42 42 42
  812140  42 42 42 42 42 42 42 42 42 42 42 42 42 42 42 42
  812150  42 42 42 42 42 42 42 42 42 42 42 42 42 42 42 42
  812160  42 42 42 42 42 42 42 42 42 42 42 42 42 42 42 42
  812170  42 42 42 42 42 42 42 42 42 42 42 42 42 42 42 42
  812180  42 42 42 42 42 42 42 42 42 42 42 42 42 42 42 42
  812190  42 42 42 42 42 42 42 42 42 42 42 42 42 42 42 42
  8121a0  42 42 42 42 42 42 42 42 42 42 42 42 42 42 42 42
  8121b0  42 42 42 42 42 42 42 42 42 42 42 42 42 42 42 42
  8121c0  42 42 42 42 42 42 42 42 42 42 42 42 42 42 42 42
  8121d0  42 42 42 42 42 42 42 42 42 42 42 42 42 42 42 42
  8121e0  42 42 42 42 42 42 42 42 42 42 42 42 42 42 42 42
  8121f0  42 42 42 42 42 42 42 42 42 42 42 42 42 42 42 42
  812200  42 42 42 42 42 42 42 42 42 42 42 42 42 42 42 42
  812210  42 42 42 42 42 42 42 42 42 42 42 42 42 42 42 42
  812220  42 42 42 42 42 42 42 42 42 42 42 42 42 42 42 42
  812230  42 42 42 42 42 42 42 42 42 42 42 42 42 42 42 42
  812240  42 42 42 42 42 42 42 42 42 42 42 42 42 42 42 42
  812250  42 42 42 42 42 42 42 42 42 42 42 42 42 42 42 42
  812260  42 42 42 42 42 42 42 42 42 42 42 42 42 42 42 42
  812270  42 42 42 42 42 42 42 42 42 42 42 42 42 42 42 42
  812280  42 42 42 42 42 42 42 42 42 42 42 42 42 42 42 42
  812290  42 42 42 42 42 42 42 42 42 42 42 42 42 42 42 42
  8122a0  42 42 42 42 42 42 42 42 42 42 42 42 42 42 42 42
  8122b0  42 42 42 42 42 42 42 42 42 42 42 42 42 42 42 42
  8122c0  42 42 42 42 42 42 42 42 42 42 42 42 42 42 42 42
  8122d0  42 42 42 42 42 42 42 42 42 42 42 42 42 42 42 42
  8122e0  42 42 42 42 42 42 42 42 42 42 42 42 42 42 42 42
  8122f0  42 42 42 42 42 42 42 42 42 42 42 42 42 42 42 42
  812300  42 42 42 42 42 42 42 42 42 42 42 42 42 42 42 42
  812310  42 42 42 42 42 42 42 42 42 42 42 42 42 42 42 42
  812320  42 42 42 42 42 42 42 42 42 42 42 42 42 42 42 42
  812330  42 42 42 42 42 42 42 42 42 42 42 42 42 42 42 42
  812340  42 42 42 42 42 42 42 42 42 42 42 42 42 42 42 42
  812350  42 42 42 42 42 42 42 42 42 42 42 42 42 42 42 42
  812360  42 42 42 42 42 42 42 42 42 42 42 42 42 42 42 42
  812370  42 42 42 42 42 42 42 42 42 42 42 42 42 42 42 42
  812380  42 42 42 42 42 42 42 42 42 42 42 42 42 42 42 42
  812390  42 42 42 42 42 42 42 42 42 42 42 42 42 42 42 42
  8123a0  42 42 42 42 42 42 42 42 42 42 42 42 42 42 42 42
  8123b0  42 42 42 42 42 42 42 42 42 42 42 42 42 42 42 42
  8123c0  42 42 42 42 42 42 42 42 42 42 42 42 42 42 42 42
  8123d0  42 42 42 42 42 42 42 42 42 42 42 42 42 42 42 42
  8123e0  42 42 42 42 42 42 42 42 42 42 42 42 42 42 42 42
  8123f0  42 42 42 42 42 42 42 42 42 42 42 42 42 42 42 42
  812400  42 42 42 42 42 42 42 42 42 42 42 42 42 42 42 42
  812410  42 42 42 42 42 42 42 42 42 42 42 42 42 42 42 42
  812420  42 42 42 42 42 42 42 42 42 42 42 42 42 42 42 42
  812430  42 42 42 42 42 42 42 42 42 42 42 42 42 42 42 42
  812440  42 42 42 42 42 42 42 42 42 42 42 42 42 42 42 42
  812450  42 42 42 42 42 42 42 42 42 42 42 42 42 42 42 42
  812460  42 42 42 42 42 42 42 42 42 42 42 42 42 42 42 42
  812470  42 42 42 42 42 42 42 42 42 42 42 42 42 42 42 42
  812480  42 42 42 42 42 42 42 42 42 42 42 42 42 42 42 42
  812490  42 42 42 42 42 42 42 42 42 42 42 42 42 42 42 42
  8124a0  42 42 42 42 42 42 42 42 42 42 42 42 42 42 42 42
  8124b0  42 42 42 42 42 42 42 42 42 42 42 42 42 42 42 42
  8124c0  42 42 42 42 42 42 42 42 42 42 42 42 42 42 42 42
  8124d0  42 42 42 42 42 42 42 42 42 42 42 42 42 42 42 42
  8124e0  42 42 42 42 42 42 42 42 42 42 42 42 42 42 42 42
  8124f0  42 42 42 42 42 42 42 42 42 42 42 42 42 42 42 42
  812500  42 42 42 42 42 42 42 42 42 42 42 42 42 42 42 42
  812510  42 42 42 42 42 42 42 42 42 42 42 42 42 42 42 42
  812520  42 42 42 42 42 42 42 42 42 42 42 42 42 42 42 42
  812530  42 42 42 42 42 42 42 42 42 42 42 42 42 42 42 42
  812540  42 42 42 42 42 42 42 42 42 42 42 42 42 42 42 42
  812550  42 42 42 42 42 42 42 42 42 42 42 42 42 42 42 42
  812560  42 42 42 42 42 42 42 42 42 42 42 42 42 42 42 42
  812570  42 42 42 42 42 42 42 42 42 42 42 42 42 42 42 42
  812580  42 42 42 42 42 42 42 42 42 42 42 42 10 00 02 02
  812590  00 00 00 00 07 00 00 1d 00 20 47 ca 00 00 00 20
  8125a0  00 00 00 00 00 00 42 0f 00 00 00 00 00 00 00 00
  8125b0  00 00 00 00 00 00 00 21 00 81 26 68 00 00 00 00
  8125c0  00 21 e5 ac 00 81 18 1c 00 20 38 60 00 80 05 44
  8125d0  00 80 05 40 00 81 29 24 00 01 00 68 00 00 00 04
  8125e0  00 80 0f 00 42 42 42 42 00 00 00 00 00 81 18 1c
  8125f0  00 80 d1 18 00 81 18 1c 00 80 04 74 00 80 04 74
  812600  00 01 40 0c 42 42 42 42 e1 03 06 76 00 81 26 68
  812610  00 80 04 90 00 81 18 1c 00 80 d1 18 00 81 18 1c
  812620  e1 0f 23 08 00 00 7f 00 e1 31 c0 88 42 42 42 42
  812630  42 42 42 42 42 42 42 42 42 42 42 42 42 42 42 42
  812640  42 42 42 42 42 42 42 42 42 42 42 42 42 42 42 42
  812650  42 42 42 42 42 42 42 42 42 42 42 42 42 42 42 42
  812660  42 42 42 42 00 00 00 00 00 00 00 00 42 42 42 42
  812670  42 42 42 42 42 42 42 42 42 42 42 42 42 42 42 42
  812680  42 42 42 42 42 42 42 42 42 42 42 42 42 42 42 42
  812690  42 42 42 42 42 42 42 42 42 42 42 42 42 42 42 42
  8126a0  42 42 42 42 42 42 42 42 42 42 42 42 42 42 42 42
  8126b0  42 42 42 42 42 42 42 42 42 42 42 42 42 42 42 42
  8126c0  42 42 42 42 42 42 42 42 42 42 42 42 42 42 42 42
  8126d0  42 42 42 42 42 42 42 42 42 42 42 42 42 42 42 42
  8126e0  42 42 42 42 42 42 42 42 42 42 42 42 42 42 42 42
  8126f0  42 42 42 42 42 42 42 42 42 42 42 42 42 42 42 42
  812700  42 42 42 42 42 42 42 42 42 42 42 42 42 42 42 42
  812710  42 42 42 42 42 42 42 42 42 42 42 42 42 42 42 42
  812720  42 42 42 42 42 42 42 42 42 42 42 42 42 42 42 42
  812730  42 42 42 42 42 42 42 42 42 42 42 42 42 42 42 42
  812740  42 42 42 42 42 42 42 42 42 42 42 42 42 42 42 42
  812750  42 42 42 42 42 42 42 42 42 42 42 42 42 42 42 42
  812760  42 42 42 42 42 42 42 42 42 42 42 42 42 42 42 42
  812770  42 42 42 42 42 42 42 42 42 42 42 42 42 42 42 42
  812780  42 42 42 42 42 42 42 42 42 42 42 42 42 42 42 42
  812790  42 42 42 42 42 42 42 42 42 42 42 42 42 42 42 42
  8127a0  42 42 42 42 70 9b 00 03 30 9b 00 11 00 02 aa be
  8127b0  70 9b 00 21 70 9b 00 22 00 02 aa bb 00 02 aa bc
  8127c0  00 02 10 0c 00 00 ff ff e1 31 c1 50 e1 31 c1 51
  8127d0  e1 31 c1 52 e1 31 c1 53 e1 31 c1 54 e1 31 c1 55
  8127e0  00 02 10 06 70 9b 00 0d e1 31 c1 08 10 00 00 00
  8127f0  70 9b 00 25 20 9b 00 32 70 9b 00 27 80 00 00 00
  812800  80 9b 00 34 ff 00 00 00 00 00 7f 00 00 00 00 00
  812810  00 3f 80 00 00 00 00 00 1f c0 00 00 00 00 00 00
  812820  e0 00 00 00 00 00 00 0f 00 00 00 00 00 00 07 f0
  812830  00 00 00 00 00 03 f8 00 00 00 00 00 01 fc 00 00
  812840  00 00 00 00 fe 00 00 00 00 ff 00 00 00 00 ff 00
  812850  00 00 00 ff 30 9b 00 24 70 9b 00 26 e1 31 c1 10
  812860  80 9b 00 09 e1 31 c0 f4 70 9b 00 20 70 9b 00 2d
  812870  70 9b 00 2c 80 9b 00 19 00 02 10 0a 00 02 10 08
  812880  00 02 10 04 20 9b 00 31 30 9b 00 0f 07 00 00 1d
  812890  00 20 24 e0 e1 31 c0 88 00 00 00 00 00 00 42 0f
  8128a0  00 20 25 28 00 00 00 00 00 81 18 b8 00 81 18 1c
  8128b0  00 80 d1 18 00 81 18 1c 00 80 04 90 00 81 18 1c
  8128c0  e1 0f 23 08 00 80 04 74 00 01 00 68 00 01 40 0c
  8128d0  00 80 0f 00 00 00 00 04 00 81 18 b8 42 42 42 42

===============================================================================
Process: Pid = 00000021, dtt
Saved Registers
---------------

Process swapped out inside kernel. (small context)
Only PC (inside the kernel) and stack pointer shown.

  PC: 0x002047ca          SP: 0x00813090

Stack Content
-------------

Stack size = 2064 storage units

Hex Addr  00 01 02 03 04 05 06 07 08 09 0a 0b 0c 0d 0e 0f
--------  -- -- -- -- -- -- -- -- -- -- -- -- -- -- -- --
  8129d8  2a 42 42 42 42 42 42 42 42 42 42 42 42 42 42 42
  8129e8  42 42 42 42 42 42 42 42 42 42 42 42 42 42 42 42
  8129f8  42 42 42 42 42 42 42 42 42 42 42 42 42 42 42 42
  812a08  42 42 42 42 42 42 42 42 42 42 42 42 42 42 42 42
  812a18  42 42 42 42 42 42 42 42 42 42 42 42 42 42 42 42
  812a28  42 42 42 42 42 42 42 42 42 42 42 42 42 42 42 42
  812a38  42 42 42 42 42 42 42 42 42 42 42 42 42 42 42 42
  812a48  42 42 42 42 42 42 42 42 42 42 42 42 42 42 42 42
  812a58  42 42 42 42 42 42 42 42 42 42 42 42 42 42 42 42
  812a68  42 42 42 42 42 42 42 42 42 42 42 42 42 42 42 42
  812a78  42 42 42 42 42 42 42 42 42 42 42 42 42 42 42 42
  812a88  42 42 42 42 42 42 42 42 42 42 42 42 42 42 42 42
  812a98  42 42 42 42 42 42 42 42 42 42 42 42 42 42 42 42
  812aa8  42 42 42 42 42 42 42 42 42 42 42 42 42 42 42 42
  812ab8  42 42 42 42 42 42 42 42 42 42 42 42 42 42 42 42
  812ac8  42 42 42 42 42 42 42 42 42 42 42 42 42 42 42 42
  812ad8  42 42 42 42 42 42 42 42 42 42 42 42 42 42 42 42
  812ae8  42 42 42 42 42 42 42 42 42 42 42 42 42 42 42 42
  812af8  42 42 42 42 42 42 42 42 42 42 42 42 42 42 42 42
  812b08  42 42 42 42 42 42 42 42 42 42 42 42 42 42 42 42
  812b18  42 42 42 42 42 42 42 42 42 42 42 42 42 42 42 42
  812b28  42 42 42 42 42 42 42 42 42 42 42 42 42 42 42 42
  812b38  42 42 42 42 42 42 42 42 42 42 42 42 42 42 42 42
  812b48  42 42 42 42 42 42 42 42 42 42 42 42 42 42 42 42
  812b58  42 42 42 42 42 42 42 42 42 42 42 42 42 42 42 42
  812b68  42 42 42 42 42 42 42 42 42 42 42 42 42 42 42 42
  812b78  42 42 42 42 42 42 42 42 42 42 42 42 42 42 42 42
  812b88  42 42 42 42 42 42 42 42 42 42 42 42 42 42 42 42
  812b98  42 42 42 42 42 42 42 42 42 42 42 42 42 42 42 42
  812ba8  42 42 42 42 42 42 42 42 42 42 42 42 42 42 42 42
  812bb8  42 42 42 42 42 42 42 42 42 42 42 42 42 42 42 42
  812bc8  42 42 42 42 42 42 42 42 42 42 42 42 42 42 42 42
  812bd8  42 42 42 42 42 42 42 42 42 42 42 42 42 42 42 42
  812be8  42 42 42 42 42 42 42 42 42 42 42 42 42 42 42 42
  812bf8  42 42 42 42 42 42 42 42 42 42 42 42 42 42 42 42
  812c08  42 42 42 42 42 42 42 42 42 42 42 42 42 42 42 42
  812c18  42 42 42 42 42 42 42 42 42 42 42 42 42 42 42 42
  812c28  42 42 42 42 42 42 42 42 42 42 42 42 42 42 42 42
  812c38  42 42 42 42 42 42 42 42 42 42 42 42 42 42 42 42
  812c48  42 42 42 42 42 42 42 42 42 42 42 42 42 42 42 42
  812c58  42 42 42 42 42 42 42 42 42 42 42 42 42 42 42 42
  812c68  42 42 42 42 42 42 42 42 42 42 42 42 42 42 42 42
  812c78  42 42 42 42 42 42 42 42 42 42 42 42 42 42 42 42
  812c88  42 42 42 42 42 42 42 42 42 42 42 42 42 42 42 42
  812c98  42 42 42 42 42 42 42 42 42 42 42 42 42 42 42 42
  812ca8  42 42 42 42 42 42 42 42 42 42 42 42 42 42 42 42
  812cb8  42 42 42 42 42 42 42 42 42 42 42 42 42 42 42 42
  812cc8  42 42 42 42 42 42 42 42 42 42 42 42 42 42 42 42
  812cd8  42 42 42 42 42 42 42 42 42 42 42 42 42 42 42 42
  812ce8  42 42 42 42 42 42 42 42 42 42 42 42 42 42 42 42
  812cf8  42 42 42 42 42 42 42 42 42 42 42 42 42 42 42 42
  812d08  42 42 42 42 42 42 42 42 42 42 42 42 42 42 42 42
  812d18  42 42 42 42 42 42 42 42 42 42 42 42 42 42 42 42
  812d28  42 42 42 42 42 42 42 42 42 42 42 42 42 42 42 42
  812d38  42 42 42 42 42 42 42 42 42 42 42 42 42 42 42 42
  812d48  42 42 42 42 42 42 42 42 42 42 42 42 42 42 42 42
  812d58  42 42 42 42 42 42 42 42 42 42 42 42 42 42 42 42
  812d68  42 42 42 42 42 42 42 42 42 42 42 42 42 42 42 42
  812d78  42 42 42 42 42 42 42 42 42 42 42 42 42 42 42 42
  812d88  42 42 42 42 42 42 42 42 42 42 42 42 42 42 42 42
  812d98  42 42 42 42 42 42 42 42 42 42 42 42 42 42 42 42
  812da8  42 42 42 42 42 42 42 42 42 42 42 42 42 42 42 42
  812db8  42 42 42 42 42 42 42 42 42 42 42 42 42 42 42 42
  812dc8  42 42 42 42 42 42 42 42 42 42 42 42 42 42 42 42
  812dd8  42 42 42 42 42 42 42 42 42 42 42 42 42 42 42 42
  812de8  42 42 42 42 42 42 42 42 42 42 42 42 42 42 42 42
  812df8  42 42 42 42 42 42 42 42 42 42 42 42 42 42 42 42
  812e08  42 42 42 42 42 42 42 42 42 42 42 42 42 42 42 42
  812e18  42 42 42 42 42 42 42 42 42 42 42 42 42 42 42 42
  812e28  42 42 42 42 42 42 42 42 42 42 42 42 42 42 42 42
  812e38  42 42 42 42 42 42 42 42 42 42 42 42 42 42 42 42
  812e48  42 42 42 42 42 42 42 42 42 42 42 42 42 42 42 42
  812e58  42 42 42 42 42 42 42 42 42 42 42 42 42 42 42 42
  812e68  42 42 42 42 42 42 42 42 42 42 42 42 42 42 42 42
  812e78  42 42 42 42 42 42 42 42 42 42 42 42 42 42 42 42
  812e88  42 42 42 42 42 42 42 42 42 42 42 42 42 42 42 42
  812e98  42 42 42 42 42 42 42 42 42 42 42 42 42 42 42 42
  812ea8  42 42 42 42 42 42 42 42 42 42 42 42 42 42 42 42
  812eb8  42 42 42 42 42 42 42 42 42 42 42 42 42 42 42 42
  812ec8  42 42 42 42 42 42 42 42 42 42 42 42 42 42 42 42
  812ed8  42 42 42 42 42 42 42 42 42 42 42 42 42 42 42 42
  812ee8  42 42 42 42 42 42 42 42 42 42 42 42 42 42 42 42
  812ef8  42 42 42 42 42 42 42 42 42 42 42 42 42 42 42 42
  812f08  42 42 42 42 42 42 42 42 42 42 42 42 42 42 42 42
  812f18  42 42 42 42 42 42 42 42 42 42 42 42 42 42 42 42
  812f28  42 42 42 42 42 42 42 42 42 42 42 42 42 42 42 42
  812f38  42 42 42 42 42 42 42 42 42 42 42 42 42 42 42 42
  812f48  42 42 42 42 42 42 42 42 42 42 42 42 42 42 42 42
  812f58  42 42 42 42 42 42 42 42 42 42 42 42 42 42 42 42
  812f68  42 42 42 42 42 42 42 42 42 42 42 42 42 42 42 42
  812f78  42 42 42 42 42 42 42 42 42 42 42 42 42 42 42 42
  812f88  42 42 42 42 42 42 42 42 42 42 42 42 42 42 42 42
  812f98  42 42 42 42 42 42 42 42 42 42 42 42 42 42 42 42
  812fa8  42 42 42 42 42 42 42 42 42 42 42 42 42 42 42 42
  812fb8  42 42 42 42 42 42 42 42 42 42 42 42 42 42 42 42
  812fc8  42 42 42 42 42 42 42 42 42 42 42 42 42 42 42 42
  812fd8  42 42 42 42 42 42 42 42 42 42 42 42 42 42 42 42
  812fe8  42 42 42 42 42 42 42 42 42 42 42 42 42 42 42 42
  812ff8  42 42 42 42 42 42 42 42 42 42 42 42 42 42 42 42
  813008  42 42 42 42 42 42 42 42 42 42 42 42 42 42 42 42
  813018  42 42 42 42 42 42 42 42 42 42 42 42 42 42 42 42
  813028  42 42 42 42 42 42 42 42 42 42 42 42 42 42 42 42
  813038  42 42 42 42 42 42 42 42 42 42 42 42 42 42 42 42
  813048  42 42 42 42 42 42 42 42 42 42 42 42 42 42 42 42
  813058  42 42 42 42 42 42 42 42 42 42 42 42 42 42 42 42
  813068  42 42 42 42 42 42 42 42 00 80 04 90 00 81 29 24
  813078  e1 0f 23 08 00 80 04 74 00 81 29 24 00 80 5e 88
  813088  00 80 05 40 00 81 29 24 00 01 00 68 e1 30 4e a0
  813098  00 80 0f 00 10 00 02 02 00 00 00 00 07 00 00 1d
  8130a8  00 20 47 ca 00 00 00 20 00 00 00 00 00 00 02 0f
  8130b8  00 00 00 00 00 00 00 00 00 00 00 00 00 00 00 04
  8130c8  00 81 31 50 00 00 00 00 00 21 e5 ac 00 81 29 24
  8130d8  00 20 38 60 00 80 05 44 00 80 05 40 00 80 2c dc
  8130e8  00 01 00 68 00 00 00 04 00 80 0f 00 00 00 00 90
  8130f8  00 00 00 00 00 81 29 24 00 80 d1 18 00 81 29 24
  813108  70 b4 00 03 00 80 04 74 e1 30 4e a0 7f ff ff ff
  813118  e0 fc 4d c6 00 81 31 50 00 80 04 90 00 81 29 24
  813128  00 80 d1 18 00 81 29 24 70 b4 00 07 e1 31 b5 f0
  813138  00 81 29 c0 00 00 00 00 00 00 00 00 00 00 00 00
  813148  00 00 00 00 00 81 31 d8 00 00 00 00 00 00 00 00
  813158  00 00 00 00 03 0c ef 29 07 00 00 1d 00 00 00 21
  813168  00 84 b3 d8 00 81 18 68 70 b4 00 01 70 b4 00 02
  813178  00 00 ff ff 70 b4 00 0d 70 b4 00 0e 70 b4 00 0f
  813188  70 b4 00 10 70 b4 00 04 70 b4 00 08 70 b4 00 06
  813198  70 b4 00 05 70 b4 00 0c ff ff 7f ff 00 00 02 0f
  8131a8  00 20 25 28 00 02 10 08 00 81 29 c0 00 81 29 24
  8131b8  00 80 d1 18 00 81 29 24 00 80 04 90 00 81 29 24
  8131c8  e1 0f 23 08 00 80 04 74 00 01 00 68 e1 30 4e a0
  8131d8  00 80 0f 00 00 00 00 04 00 81 29 c0 42 42 42 42

===============================================================================
Process: Pid = 00000022, tcp_fwd
Saved Registers
---------------

Process swapped out inside kernel. (small context)
Only PC (inside the kernel) and stack pointer shown.

  PC: 0x42424242          SP: 0xe13199a0

Stack Content
-------------

Stack size = 2064 storage units

Hex Addr  00 01 02 03 04 05 06 07 08 09 0a 0b 0c 0d 0e 0f
--------  -- -- -- -- -- -- -- -- -- -- -- -- -- -- -- --
e1319258  2a 42 42 42 42 42 42 42 42 42 42 42 42 42 42 42
e1319268  42 42 42 42 42 42 42 42 42 42 42 42 42 42 42 42
e1319278  42 42 42 42 42 42 42 42 42 42 42 42 42 42 42 42
e1319288  42 42 42 42 42 42 42 42 42 42 42 42 42 42 42 42
e1319298  42 42 42 42 42 42 42 42 42 42 42 42 42 42 42 42
e13192a8  42 42 42 42 42 42 42 42 42 42 42 42 42 42 42 42
e13192b8  42 42 42 42 42 42 42 42 42 42 42 42 42 42 42 42
e13192c8  42 42 42 42 42 42 42 42 42 42 42 42 42 42 42 42
e13192d8  42 42 42 42 42 42 42 42 42 42 42 42 42 42 42 42
e13192e8  42 42 42 42 42 42 42 42 42 42 42 42 42 42 42 42
e13192f8  42 42 42 42 42 42 42 42 42 42 42 42 42 42 42 42
e1319308  42 42 42 42 42 42 42 42 42 42 42 42 42 42 42 42
e1319318  42 42 42 42 42 42 42 42 42 42 42 42 42 42 42 42
e1319328  42 42 42 42 42 42 42 42 42 42 42 42 42 42 42 42
e1319338  42 42 42 42 42 42 42 42 42 42 42 42 42 42 42 42
e1319348  42 42 42 42 42 42 42 42 42 42 42 42 42 42 42 42
e1319358  42 42 42 42 42 42 42 42 42 42 42 42 42 42 42 42
e1319368  42 42 42 42 42 42 42 42 42 42 42 42 42 42 42 42
e1319378  42 42 42 42 42 42 42 42 42 42 42 42 42 42 42 42
e1319388  42 42 42 42 42 42 42 42 42 42 42 42 42 42 42 42
e1319398  42 42 42 42 42 42 42 42 42 42 42 42 42 42 42 42
e13193a8  42 42 42 42 42 42 42 42 42 42 42 42 42 42 42 42
e13193b8  42 42 42 42 42 42 42 42 42 42 42 42 42 42 42 42
e13193c8  42 42 42 42 42 42 42 42 42 42 42 42 42 42 42 42
e13193d8  42 42 42 42 42 42 42 42 42 42 42 42 42 42 42 42
e13193e8  42 42 42 42 42 42 42 42 42 42 42 42 42 42 42 42
e13193f8  42 42 42 42 42 42 42 42 42 42 42 42 42 42 42 42
e1319408  42 42 42 42 42 42 42 42 42 42 42 42 42 42 42 42
e1319418  42 42 42 42 42 42 42 42 42 42 42 42 42 42 42 42
e1319428  42 42 42 42 42 42 42 42 42 42 42 42 42 42 42 42
e1319438  42 42 42 42 42 42 42 42 42 42 42 42 42 42 42 42
e1319448  42 42 42 42 42 42 42 42 42 42 42 42 42 42 42 42
e1319458  42 42 42 42 42 42 42 42 42 42 42 42 42 42 42 42
e1319468  42 42 42 42 42 42 42 42 42 42 42 42 42 42 42 42
e1319478  42 42 42 42 42 42 42 42 42 42 42 42 42 42 42 42
e1319488  42 42 42 42 42 42 42 42 42 42 42 42 42 42 42 42
e1319498  42 42 42 42 42 42 42 42 42 42 42 42 42 42 42 42
e13194a8  42 42 42 42 42 42 42 42 42 42 42 42 42 42 42 42
e13194b8  42 42 42 42 42 42 42 42 42 42 42 42 42 42 42 42
e13194c8  42 42 42 42 42 42 42 42 42 42 42 42 42 42 42 42
e13194d8  42 42 42 42 42 42 42 42 42 42 42 42 42 42 42 42
e13194e8  42 42 42 42 42 42 42 42 42 42 42 42 42 42 42 42
e13194f8  42 42 42 42 42 42 42 42 42 42 42 42 42 42 42 42
e1319508  42 42 42 42 42 42 42 42 42 42 42 42 42 42 42 42
e1319518  42 42 42 42 42 42 42 42 42 42 42 42 42 42 42 42
e1319528  42 42 42 42 42 42 42 42 42 42 42 42 42 42 42 42
e1319538  42 42 42 42 42 42 42 42 42 42 42 42 42 42 42 42
e1319548  42 42 42 42 42 42 42 42 42 42 42 42 42 42 42 42
e1319558  42 42 42 42 42 42 42 42 42 42 42 42 42 42 42 42
e1319568  42 42 42 42 42 42 42 42 42 42 42 42 42 42 42 42
e1319578  42 42 42 42 42 42 42 42 42 42 42 42 42 42 42 42
e1319588  42 42 42 42 42 42 42 42 42 42 42 42 42 42 42 42
e1319598  42 42 42 42 42 42 42 42 42 42 42 42 42 42 42 42
e13195a8  42 42 42 42 42 42 42 42 42 42 42 42 42 42 42 42
e13195b8  42 42 42 42 42 42 42 42 42 42 42 42 42 42 42 42
e13195c8  42 42 42 42 42 42 42 42 42 42 42 42 42 42 42 42
e13195d8  42 42 42 42 42 42 42 42 42 42 42 42 42 42 42 42
e13195e8  42 42 42 42 42 42 42 42 42 42 42 42 42 42 42 42
e13195f8  42 42 42 42 42 42 42 42 42 42 42 42 42 42 42 42
e1319608  42 42 42 42 42 42 42 42 42 42 42 42 42 42 42 42
e1319618  42 42 42 42 42 42 42 42 42 42 42 42 42 42 42 42
e1319628  42 42 42 42 42 42 42 42 42 42 42 42 42 42 42 42
e1319638  42 42 42 42 42 42 42 42 42 42 42 42 42 42 42 42
e1319648  42 42 42 42 42 42 42 42 42 42 42 42 42 42 42 42
e1319658  42 42 42 42 42 42 42 42 42 42 42 42 42 42 42 42
e1319668  42 42 42 42 42 42 42 42 42 42 42 42 42 42 42 42
e1319678  42 42 42 42 42 42 42 42 42 42 42 42 42 42 42 42
e1319688  42 42 42 42 42 42 42 42 42 42 42 42 42 42 42 42
e1319698  42 42 42 42 42 42 42 42 42 42 42 42 42 42 42 42
e13196a8  42 42 42 42 42 42 42 42 42 42 42 42 42 42 42 42
e13196b8  42 42 42 42 42 42 42 42 42 42 42 42 42 42 42 42
e13196c8  42 42 42 42 42 42 42 42 42 42 42 42 42 42 42 42
e13196d8  42 42 42 42 42 42 42 42 42 42 42 42 42 42 42 42
e13196e8  42 42 42 42 42 42 42 42 42 42 42 42 42 42 42 42
e13196f8  42 42 42 42 42 42 42 42 42 42 42 42 42 42 42 42
e1319708  42 42 42 42 42 42 42 42 42 42 42 42 42 42 42 42
e1319718  42 42 42 42 42 42 42 42 42 42 42 42 42 42 42 42
e1319728  42 42 42 42 42 42 42 42 42 42 42 42 42 42 42 42
e1319738  42 42 42 42 42 42 42 42 42 42 42 42 42 42 42 42
e1319748  42 42 42 42 42 42 42 42 42 42 42 42 42 42 42 42
e1319758  42 42 42 42 42 42 42 42 42 42 42 42 42 42 42 42
e1319768  42 42 42 42 42 42 42 42 42 42 42 42 42 42 42 42
e1319778  42 42 42 42 42 42 42 42 42 42 42 42 42 42 42 42
e1319788  42 42 42 42 42 42 42 42 42 42 42 42 42 42 42 42
e1319798  42 42 42 42 42 42 42 42 42 42 42 42 42 42 42 42
e13197a8  42 42 42 42 42 42 42 42 42 42 42 42 42 42 42 42
e13197b8  42 42 42 42 42 42 42 42 42 42 42 42 42 42 42 42
e13197c8  42 42 42 42 42 42 42 42 42 42 42 42 42 42 42 42
e13197d8  42 42 42 42 42 42 42 42 42 42 42 42 42 42 42 42
e13197e8  42 42 42 42 42 42 42 42 42 42 42 42 42 42 42 42
e13197f8  42 42 42 42 42 42 42 42 42 42 42 42 42 42 42 42
e1319808  42 42 42 42 42 42 42 42 42 42 42 42 42 42 42 42
e1319818  42 42 42 42 42 42 42 42 42 42 42 42 42 42 42 42
e1319828  42 42 42 42 42 42 42 42 42 42 42 42 42 42 42 42
e1319838  42 42 42 42 42 42 42 42 42 42 42 42 42 42 42 42
e1319848  42 42 42 42 42 42 42 42 42 42 42 42 42 42 42 42
e1319858  42 42 42 42 42 42 42 42 42 42 42 42 42 42 42 42
e1319868  42 42 42 42 42 42 42 42 42 42 42 42 42 42 42 42
e1319878  42 42 42 42 42 42 42 42 42 42 42 42 42 42 42 42
e1319888  42 42 42 42 42 42 42 42 42 42 42 42 42 42 42 42
e1319898  42 42 42 42 42 42 42 42 42 42 42 42 42 42 42 42
e13198a8  42 42 42 42 42 42 42 42 42 42 42 42 42 42 42 42
e13198b8  42 42 42 42 42 42 42 42 42 42 42 42 42 42 42 42
e13198c8  42 42 42 42 42 42 42 42 42 42 42 42 42 42 42 42
e13198d8  42 42 42 42 42 42 42 42 42 42 42 42 42 42 42 42
e13198e8  42 42 42 42 42 42 42 42 42 42 42 42 42 42 42 42
e13198f8  42 42 42 42 42 42 42 42 42 42 42 42 42 42 42 42
e1319908  42 42 42 42 42 42 42 42 42 42 42 42 42 42 42 42
e1319918  42 42 42 42 42 42 42 42 42 42 42 42 42 42 42 42
e1319928  42 42 42 42 42 42 42 42 42 42 42 42 42 42 42 42
e1319938  42 42 42 42 42 42 42 42 42 42 42 42 42 42 42 42
e1319948  42 42 42 42 42 42 42 42 42 42 42 42 42 42 42 42
e1319958  42 42 42 42 42 42 42 42 42 42 42 42 42 42 42 42
e1319968  42 42 42 42 42 42 42 42 42 42 42 42 42 42 42 42
e1319978  42 42 42 42 42 42 42 42 42 42 42 42 42 42 42 42
e1319988  42 42 42 42 42 42 42 42 42 42 42 42 42 42 42 42
e1319998  42 42 42 42 42 42 42 42 42 42 42 42 42 42 42 42
e13199a8  42 42 42 42 42 42 42 42 42 42 42 42 42 42 42 42
e13199b8  42 42 42 42 42 42 42 42 42 42 42 42 42 42 42 42
e13199c8  42 42 42 42 42 42 42 42 42 42 42 42 42 42 42 42
e13199d8  42 42 42 42 42 42 42 42 42 42 42 42 42 42 42 42
e13199e8  42 42 42 42 42 42 42 42 42 42 42 42 42 42 42 42
e13199f8  42 42 42 42 42 42 42 42 42 42 42 42 42 42 42 42
e1319a08  42 42 42 42 10 00 02 03 00 00 00 00 07 00 00 1d
e1319a18  00 20 24 e0 00 00 00 20 00 00 00 00 00 00 02 0f
e1319a28  00 00 00 00 00 00 00 00 00 00 00 00 42 42 42 42
e1319a38  00 80 04 90 00 81 32 2c e1 0f 23 08 00 80 04 74
e1319a48  e1 31 92 40 00 00 00 04 00 80 d1 00 00 81 32 2c
e1319a58  e1 30 4e b0 e1 30 4e a0 00 80 0f 00 42 42 42 42

===============================================================================
Process: Pid = 00000023, dus
Saved Registers
---------------

Process swapped out inside kernel. (small context)
Only PC (inside the kernel) and stack pointer shown.

  PC: 0x42424242          SP: 0xe131a5c8

Stack Content
-------------

Stack size = 2064 storage units

Hex Addr  00 01 02 03 04 05 06 07 08 09 0a 0b 0c 0d 0e 0f
--------  -- -- -- -- -- -- -- -- -- -- -- -- -- -- -- --
e1319e80  2a 42 42 42 42 42 42 42 42 42 42 42 42 42 42 42
e1319e90  42 42 42 42 42 42 42 42 42 42 42 42 42 42 42 42
e1319ea0  42 42 42 42 42 42 42 42 42 42 42 42 42 42 42 42
e1319eb0  42 42 42 42 42 42 42 42 42 42 42 42 42 42 42 42
e1319ec0  42 42 42 42 42 42 42 42 42 42 42 42 42 42 42 42
e1319ed0  42 42 42 42 42 42 42 42 42 42 42 42 42 42 42 42
e1319ee0  42 42 42 42 42 42 42 42 42 42 42 42 42 42 42 42
e1319ef0  42 42 42 42 42 42 42 42 42 42 42 42 42 42 42 42
e1319f00  42 42 42 42 42 42 42 42 42 42 42 42 42 42 42 42
e1319f10  42 42 42 42 42 42 42 42 42 42 42 42 42 42 42 42
e1319f20  42 42 42 42 42 42 42 42 42 42 42 42 42 42 42 42
e1319f30  42 42 42 42 42 42 42 42 42 42 42 42 42 42 42 42
e1319f40  42 42 42 42 42 42 42 42 42 42 42 42 42 42 42 42
e1319f50  42 42 42 42 42 42 42 42 42 42 42 42 42 42 42 42
e1319f60  42 42 42 42 42 42 42 42 42 42 42 42 42 42 42 42
e1319f70  42 42 42 42 42 42 42 42 42 42 42 42 42 42 42 42
e1319f80  42 42 42 42 42 42 42 42 42 42 42 42 42 42 42 42
e1319f90  42 42 42 42 42 42 42 42 42 42 42 42 42 42 42 42
e1319fa0  42 42 42 42 42 42 42 42 42 42 42 42 42 42 42 42
e1319fb0  42 42 42 42 42 42 42 42 42 42 42 42 42 42 42 42
e1319fc0  42 42 42 42 42 42 42 42 42 42 42 42 42 42 42 42
e1319fd0  42 42 42 42 42 42 42 42 42 42 42 42 42 42 42 42
e1319fe0  42 42 42 42 42 42 42 42 42 42 42 42 42 42 42 42
e1319ff0  42 42 42 42 42 42 42 42 42 42 42 42 42 42 42 42
e131a000  42 42 42 42 42 42 42 42 42 42 42 42 42 42 42 42
e131a010  42 42 42 42 42 42 42 42 42 42 42 42 42 42 42 42
e131a020  42 42 42 42 42 42 42 42 42 42 42 42 42 42 42 42
e131a030  42 42 42 42 42 42 42 42 42 42 42 42 42 42 42 42
e131a040  42 42 42 42 42 42 42 42 42 42 42 42 42 42 42 42
e131a050  42 42 42 42 42 42 42 42 42 42 42 42 42 42 42 42
e131a060  42 42 42 42 42 42 42 42 42 42 42 42 42 42 42 42
e131a070  42 42 42 42 42 42 42 42 42 42 42 42 42 42 42 42
e131a080  42 42 42 42 42 42 42 42 42 42 42 42 42 42 42 42
e131a090  42 42 42 42 42 42 42 42 42 42 42 42 42 42 42 42
e131a0a0  42 42 42 42 42 42 42 42 42 42 42 42 42 42 42 42
e131a0b0  42 42 42 42 42 42 42 42 42 42 42 42 42 42 42 42
e131a0c0  42 42 42 42 42 42 42 42 42 42 42 42 42 42 42 42
e131a0d0  42 42 42 42 42 42 42 42 42 42 42 42 42 42 42 42
e131a0e0  42 42 42 42 42 42 42 42 42 42 42 42 42 42 42 42
e131a0f0  42 42 42 42 42 42 42 42 42 42 42 42 42 42 42 42
e131a100  42 42 42 42 42 42 42 42 42 42 42 42 42 42 42 42
e131a110  42 42 42 42 42 42 42 42 42 42 42 42 42 42 42 42
e131a120  42 42 42 42 42 42 42 42 42 42 42 42 42 42 42 42
e131a130  42 42 42 42 42 42 42 42 42 42 42 42 42 42 42 42
e131a140  42 42 42 42 42 42 42 42 42 42 42 42 42 42 42 42
e131a150  42 42 42 42 42 42 42 42 42 42 42 42 42 42 42 42
e131a160  42 42 42 42 42 42 42 42 42 42 42 42 42 42 42 42
e131a170  42 42 42 42 42 42 42 42 42 42 42 42 42 42 42 42
e131a180  42 42 42 42 42 42 42 42 42 42 42 42 42 42 42 42
e131a190  42 42 42 42 42 42 42 42 42 42 42 42 42 42 42 42
e131a1a0  42 42 42 42 42 42 42 42 42 42 42 42 42 42 42 42
e131a1b0  42 42 42 42 42 42 42 42 42 42 42 42 42 42 42 42
e131a1c0  42 42 42 42 42 42 42 42 42 42 42 42 42 42 42 42
e131a1d0  42 42 42 42 42 42 42 42 42 42 42 42 42 42 42 42
e131a1e0  42 42 42 42 42 42 42 42 42 42 42 42 42 42 42 42
e131a1f0  42 42 42 42 42 42 42 42 42 42 42 42 42 42 42 42
e131a200  42 42 42 42 42 42 42 42 42 42 42 42 42 42 42 42
e131a210  42 42 42 42 42 42 42 42 42 42 42 42 42 42 42 42
e131a220  42 42 42 42 42 42 42 42 42 42 42 42 42 42 42 42
e131a230  42 42 42 42 42 42 42 42 42 42 42 42 42 42 42 42
e131a240  42 42 42 42 42 42 42 42 42 42 42 42 42 42 42 42
e131a250  42 42 42 42 42 42 42 42 42 42 42 42 42 42 42 42
e131a260  42 42 42 42 42 42 42 42 42 42 42 42 42 42 42 42
e131a270  42 42 42 42 42 42 42 42 42 42 42 42 42 42 42 42
e131a280  42 42 42 42 42 42 42 42 42 42 42 42 42 42 42 42
e131a290  42 42 42 42 42 42 42 42 42 42 42 42 42 42 42 42
e131a2a0  42 42 42 42 42 42 42 42 42 42 42 42 42 42 42 42
e131a2b0  42 42 42 42 42 42 42 42 42 42 42 42 42 42 42 42
e131a2c0  42 42 42 42 42 42 42 42 42 42 42 42 42 42 42 42
e131a2d0  42 42 42 42 42 42 42 42 42 42 42 42 42 42 42 42
e131a2e0  42 42 42 42 42 42 42 42 42 42 42 42 42 42 42 42
e131a2f0  42 42 42 42 42 42 42 42 42 42 42 42 42 42 42 42
e131a300  42 42 42 42 42 42 42 42 42 42 42 42 42 42 42 42
e131a310  42 42 42 42 42 42 42 42 42 42 42 42 42 42 42 42
e131a320  42 42 42 42 42 42 42 42 42 42 42 42 42 42 42 42
e131a330  42 42 42 42 42 42 42 42 42 42 42 42 42 42 42 42
e131a340  42 42 42 42 42 42 42 42 42 42 42 42 42 42 42 42
e131a350  42 42 42 42 42 42 42 42 42 42 42 42 42 42 42 42
e131a360  42 42 42 42 42 42 42 42 42 42 42 42 42 42 42 42
e131a370  42 42 42 42 42 42 42 42 42 42 42 42 42 42 42 42
e131a380  42 42 42 42 42 42 42 42 42 42 42 42 42 42 42 42
e131a390  42 42 42 42 42 42 42 42 42 42 42 42 42 42 42 42
e131a3a0  42 42 42 42 42 42 42 42 42 42 42 42 42 42 42 42
e131a3b0  42 42 42 42 42 42 42 42 42 42 42 42 42 42 42 42
e131a3c0  42 42 42 42 42 42 42 42 42 42 42 42 42 42 42 42
e131a3d0  42 42 42 42 42 42 42 42 42 42 42 42 42 42 42 42
e131a3e0  42 42 42 42 42 42 42 42 42 42 42 42 42 42 42 42
e131a3f0  42 42 42 42 42 42 42 42 42 42 42 42 42 42 42 42
e131a400  42 42 42 42 42 42 42 42 42 42 42 42 42 42 42 42
e131a410  42 42 42 42 42 42 42 42 42 42 42 42 42 42 42 42
e131a420  42 42 42 42 42 42 42 42 42 42 42 42 42 42 42 42
e131a430  42 42 42 42 42 42 42 42 42 42 42 42 42 42 42 42
e131a440  42 42 42 42 42 42 42 42 42 42 42 42 42 42 42 42
e131a450  42 42 42 42 42 42 42 42 42 42 42 42 42 42 42 42
e131a460  42 42 42 42 42 42 42 42 42 42 42 42 42 42 42 42
e131a470  42 42 42 42 42 42 42 42 42 42 42 42 42 42 42 42
e131a480  42 42 42 42 42 42 42 42 42 42 42 42 42 42 42 42
e131a490  42 42 42 42 42 42 42 42 42 42 42 42 42 42 42 42
e131a4a0  42 42 42 42 42 42 42 42 42 42 42 42 42 42 42 42
e131a4b0  42 42 42 42 42 42 42 42 42 42 42 42 42 42 42 42
e131a4c0  42 42 42 42 42 42 42 42 42 42 42 42 42 42 42 42
e131a4d0  42 42 42 42 42 42 42 42 42 42 42 42 42 42 42 42
e131a4e0  42 42 42 42 42 42 42 42 42 42 42 42 42 42 42 42
e131a4f0  42 42 42 42 42 42 42 42 42 42 42 42 42 42 42 42
e131a500  42 42 42 42 42 42 42 42 42 42 42 42 42 42 42 42
e131a510  42 42 42 42 42 42 42 42 42 42 42 42 42 42 42 42
e131a520  42 42 42 42 42 42 42 42 42 42 42 42 42 42 42 42
e131a530  42 42 42 42 42 42 42 42 42 42 42 42 42 42 42 42
e131a540  42 42 42 42 42 42 42 42 42 42 42 42 42 42 42 42
e131a550  42 42 42 42 42 42 42 42 42 42 42 42 42 42 42 42
e131a560  42 42 42 42 42 42 42 42 42 42 42 42 42 42 42 42
e131a570  42 42 42 42 42 42 42 42 42 42 42 42 42 42 42 42
e131a580  42 42 42 42 42 42 42 42 42 42 42 42 42 42 42 42
e131a590  42 42 42 42 42 42 42 42 42 42 42 42 42 42 42 42
e131a5a0  42 42 42 42 42 42 42 42 42 42 42 42 42 42 42 42
e131a5b0  42 42 42 42 42 42 42 42 42 42 42 42 42 42 42 42
e131a5c0  42 42 42 42 42 42 42 42 42 42 42 42 42 42 42 42
e131a5d0  42 42 42 42 42 42 42 42 42 42 42 42 42 42 42 42
e131a5e0  42 42 42 42 42 42 42 42 42 42 42 42 42 42 42 42
e131a5f0  42 42 42 42 42 42 42 42 42 42 42 42 42 42 42 42
e131a600  42 42 42 42 42 42 42 42 42 42 42 42 42 42 42 42
e131a610  42 42 42 42 42 42 42 42 42 42 42 42 42 42 42 42
e131a620  42 42 42 42 42 42 42 42 42 42 42 42 42 42 42 42
e131a630  42 42 42 42 10 00 02 03 00 00 00 00 07 00 00 1d
e131a640  00 20 24 e0 00 00 00 20 00 00 00 00 00 00 02 0f
e131a650  00 00 00 00 00 00 00 00 00 00 00 00 42 42 42 42
e131a660  00 80 04 90 00 81 33 0c e1 0f 23 08 00 80 04 74
e131a670  e1 31 9e 68 00 00 00 04 00 80 d1 00 00 81 33 0c
e131a680  00 20 25 28 00 00 00 04 e1 31 9e 68 42 42 42 42

